Ec:_glClearStencil
Z8d:_Array_InternalArray__ICollection_Add_TisMark_t2724874473_m1613484179_gshared
qig:__ZL80Graphic_t2426225576_CustomAttributesCacheGenerator_Graphic_OnFillVBO_m1723985607P21CustomAttributesCache
bug:_RuntimeTypeHandle_GetObjectData_m3567098501
Huj:__ZN6il2cpp2vm5Array13GetByteLengthEP11Il2CppArray
loh:_Raycast3DCallback_BeginInvoke_m3028685017
fQf:__ZL61IRemotingFormatter_t4112065742_CustomAttributesCacheGeneratorP21CustomAttributesCache
EF:__Z102Register_UnityEngine_Experimental_Director_AnimatorControllerPlayable_INTERNAL_CALL_ResetTriggerStringv
cPe:_Comparison_1_Invoke_m353639462_gshared
zTg:_UInt64_System_IConvertible_ToDecimal_m4205696037
DWd:_GraphicRegistry_RegisterGraphicForCanvas_m2284226562
eAa:__Z21SourceMipLevelForBlitiiii
ljb:__ZN31CanvasBatchIntermediateRenderer15AddAsRenderNodeER15RenderNodeQueueRK20DeprecatedSourceData
HCg:_GenericTypeParameterBuilder_GetEvent_m4210567427
nvd:_Enumerator_get_Key_m2908810861
S7h:__Z55RuntimeInvoker_ILTokenInfo_t149559338_Int32_t2071877448PK10MethodInfoPvPS2_
c0c:__ZN11UnityEngine7Connect14AppUpdateEventD0Ev
hT:__ZdlPv
AD:__ZN23AnimationOffsetPlayable11SetRotationE11Quaternionf
zB:__ZN11UnityEngine9Animation28GenericAnimationBindingCacheD2Ev
mQf:__ZL68RemotingSurrogateSelector_t2821375126_CustomAttributesCacheGeneratorP21CustomAttributesCache
Qjh:_EqualityComparer_1__cctor_m968537130_gshared
sle:_List_1_System_Collections_IList_IndexOf_m39706221_gshared
Sxd:_Decimal_op_Implicit_m2971610317
GGi:_TextGenerator_get_lineCount_m4287181941
nXd:_Graphic_UnregisterDirtyVerticesCallback_m1526739224
W1a:__Z18RestoreRenderStateR20CameraRenderOldStateR17ShaderPassContext
Uqd:_SynchronizedArrayListWrapper_get_Item_m3309425850
FLb:__Z18Transfer_BlittableI18StreamedBinaryReadILb1EELb1E5RectTIfEEvRK29SerializationCommandArgumentsR31RuntimeSerializationCommandInfo
pIb:__Z18Transfer_BlittableI24GenerateTypeTreeTransferLb0E11ColorRGBA32EvRK29SerializationCommandArgumentsR31RuntimeSerializationCommandInfo
R1:__Z25scripting_class_from_name17ScriptingImagePtrPKcS1_
ohj:__ZN14dense_hash_mapI10KeyWrapperINSt3__24pairIPK12PropertyInfoP11Il2CppClassEEEj17ReflectionMapHashIS8_ENS9_14EqualsComparerINS1_8equal_toIS8_EEEENS1_9allocatorINS2_IKS9_jEEEEE15set_deleted_keyERSH_
eCb:__Z29scripting_class_enum_basetype17ScriptingClassPtr
wXd:_GraphicRaycaster_get_ignoreReversedGraphics_m2757724367
TRj:_emscripten_glDeleteBuffers__wrapper
zyj:__ZN6il2cpp8metadata26Il2CppTypeEqualityComparer8AreEqualEPK10Il2CppTypeS4_
sDg:_GenericTypeParameterBuilder_GetHashCode_m867619899
R6h:__Z79RuntimeInvoker_Void_t1841601450_Int32_t2071877448_ParameterModifier_t1820634920PK10MethodInfoPvPS2_
GPg:_TimeSpan_ToString_m2947282901
hjh:_EqualityComparer_1__cctor_m3397254040_gshared
qV:__ZNK20LocalFileSystemPosix6ParentERK13FileEntryDataRN4core12basic_stringIcNS3_20StringStorageDefaultIcEEEE
OXh:__Z37RuntimeInvoker_ContentType_t859870085PK10MethodInfoPvPS2_
AGi:_TextGenerator_get_verts_m3124035267
i4e:_MonoType_CheckMethodSecurity_m4116906190
TIi:_Vector2_get_one_m3174311904
gee:_Array_Sort_TisVector2_t2243707579_m1307634946_gshared
n3h:__Z37RuntimeInvoker_Enumerator_t1593300101PK10MethodInfoPvPS2_
Bpa:__ZN17PersistentManager22CheckInstanceIDsLoadedEPii
Yxa:__ZN7ApiGLES17CopyBufferSubDataEjjlll
hmi:_AnimatorControllerPlayable_IsInTransition_m4064534331
M$i:__ZN15dense_hashtableINSt3__24pairIK10KeyWrapperIPKcEP11Il2CppClassEES5_N6il2cpp5utils11StringUtils12StringHasherIS4_EEN14dense_hash_mapIS5_S8_SE_NS5_14EqualsComparerINSC_21CaseSensitiveComparerEEENS0_9allocatorIS9_EEE9SelectKeyESI_SK_E13set_empty_keyERKS9_
D3f:__ZL99Sprite_t309593783_CustomAttributesCacheGenerator_Sprite_get_associatedAlphaSplitTexture_m3617241169P21CustomAttributesCache
pVi:__ZNSt3__26vectorIPK10Il2CppTypeNS_9allocatorIS3_EEE7reserveEj
uLi:_U3CCreateWhereIteratorU3Ec__Iterator1D_1_Reset_m1773515612_gshared
OVa:__ZN25CameraStackRenderingState20GetOrCreateBuiltinRTE24BuiltinRenderTextureTypeii17DepthBufferFormat19RenderTextureFormatj22RenderTextureReadWrite14VRTextureUsagei
Z_d:_InputField_get_caretPosition_m1005871812
ndh:_Dictionary_2__ctor_m3111963761_gshared
$Ki:_AesManaged_CreateEncryptor_m1729287824
Xqb:__ZNK14Texture2DArray26CanReuploadDataToGfxDeviceEv
o_a:__ZN17PrePassRenderLoop14RenderBasePassEP13RenderTextureRK14LightingLayersR13dynamic_arrayI16RenderObjectDataLj4EERbR10MinMaxAABB
Gfb:__ZN17GlobalGameManager23VirtualRedirectTransferER17RemapPPtrTransfer
XNc:_sfnt_stream_close
Ynd:_Char_System_IConvertible_ToInt16_m2741348777_AdjustorThunk
bjc:__ZN5IMGUI18RepaintModalWindowER8GUIState
Deb:__ZN21ArchiveStorageCreator10InitializeERKN4core12basic_stringIcNS0_20StringStorageDefaultIcEEEEb
_Vd:_FontData_get_verticalOverflow_m83665814
SHe:_ReadOnlyCollection_1_System_Collections_Generic_IListU3CTU3E_set_Item_m1547026160_gshared
DJf:__ZL61MarshalAsAttribute_t2900773360_CustomAttributesCacheGeneratorP21CustomAttributesCache
dvb:__Z23SetSpriteMeshIndexCountP14SharedMeshDataj
Daa:__ZN7Texture13SetFilterModeEi
w9b:__Z46Register_UnityEngine_Application_get_isPlayingv
Pwj:__ZN6il2cpp8metadata13GenericMethod9GetMethodEPK19Il2CppGenericMethod
Dq:__ZNSt3__26vectorIN4core12basic_stringIcNS1_20StringStorageDefaultIcEEEENS_9allocatorIS5_EEE7reserveEj
kAd:_Convert_ToUInt16_m2130758075
wdj:__ZN15dense_hashtableINSt3__24pairIK10KeyWrapperINS1_IPK11Il2CppImageP11Il2CppClassEEEjEES9_17ReflectionMapHashIS8_EN14dense_hash_mapIS9_jSD_NS9_14EqualsComparerINS0_8equal_toIS8_EEEENS0_9allocatorISB_EEE9SelectKeyESI_SK_E3endEv
Xzf:_X509BasicConstraintsExtension_Encode_m3505127076
nUc:_Round_Up_To_Grid
Isa:__ZN13GfxDeviceGLES11SetViewportERK5RectTIiE
aZd:_Image_get_pixelsPerUnit_m4104195799
Iuh:_Toggle_InternalToggle_m2323729210
bEd:_Decimal_System_IConvertible_ToInt64_m2504363272
ygc:__Z24Time_Get_Custom_PropTimev
ejd:_Array_GetValue_m3182152438
Wd:_emscripten_glDepthRange
bwg:_DESTransform_CipherFunct_m3559419566
U3h:__Z91RuntimeInvoker_Boolean_t3825574718_TouchScreenKeyboardTypeU26_t2194866306_Int32_t2071877448PK10MethodInfoPvPS2_
mUg:_UIntPtr_get_Size_m537421489
C5c:_Rijndael_Create_m113171669
fYg:_GUILayoutGroup_CalcWidth_m4107152934
Gtg:_RuntimeFieldHandle_get_Value_m3963757144
PQb:__Z14resize_trimmedINSt3__26vectorIN9ShaderLab20SerializedSubProgram12UAVParameterENS0_9allocatorIS4_EEEEEvRT_j
cpg:_SerializationInfo_AddValue_m1781549036
Lnf:_TlsServerKeyExchange_verifySignature_m3641534563
UDe:_Collection_1_Clear_m445145071_gshared
Wsh:_Slider_FindSelectableOnLeft_m3136767885
$Nh:__Z75RuntimeInvoker_Void_t1841601450_Il2CppObject_RuntimeFieldHandle_t2331729674PK10MethodInfoPvPS2_
Eza:__ZN4crndL20crnd_default_reallocEPvjPjbS0_
KWd:__ZN21InterfaceFuncInvoker1IP19Material_t193706927S1_E6InvokeEjP11Il2CppClassP12Il2CppObjectS1_
X5d:_Array_BinarySearch_TisInt32_t2071877448_m51233948_gshared
H5b:__ZN7Texture11SetWrapModeEi
LJj:__ZNSt3__212basic_stringIcNS_11char_traitsIcEENS_9allocatorIcEEEC2ERKS5_
zpg:_ProviderData_CopyFrom_m431414335
sLg:_UTF32Encoding_GetPreamble_m767706727
jgc:__Z33Texture_CUSTOM_Internal_GetHeightP12Il2CppObject
OAe:_Collection_1_System_Collections_IList_Add_m1953936885_gshared
q1d:_LayoutGroup_get_preferredHeight_m3901163825
nUa:__ZN23ScriptableRenderContextC2Ev
dhb:__ZN4PPtrI13RenderTextureE8TransferI18StreamedBinaryReadILb0EEEEvRT_
Cxd:_DateTime_AbsoluteDays_m3061694073
x4h:__Z56RuntimeInvoker_Boolean_t3825574718_LabelData_t3712112744PK10MethodInfoPvPS2_
Lji:_AnimationClipPlayable_set_speed_m3332297554
UUc:_UNITY_FT_Stream_GetChar
wse:_List_1_CheckIndex_m4231572822_gshared
z9g:_Enumerator_System_Collections_IEnumerator_get_Current_m229223308_gshared
J_f:__ZL202U3CCreateWhereIteratorU3Ec__Iterator1D_1_t2523986802_CustomAttributesCacheGenerator_U3CCreateWhereIteratorU3Ec__Iterator1D_1_System_Collections_Generic_IEnumerableU3CTSourceU3E_GetEnumerator_m2392330777P21CustomAttributesCache
qCb:__Z26BuildSerializationCacheFor17ScriptingClassPtrRb
U7i:_il2cpp_class_get_name
ymi:_AnimatorControllerPlayable_CrossFadeInFixedTimeInternal_m3729673154
GOf:__ZL55GCHandleType_t1970708122_CustomAttributesCacheGeneratorP21CustomAttributesCache
cii:_Event_Init_m3901382626
qdb:__ZN10FileSystem12MountHandlerEP17FileSystemHandler
Dqd:_FixedSizeArrayListWrapper_AddRange_m2071800418
RB:__ZN13ProduceHelperI8AnimatorLb0EE7ProduceE18MemLabelIdentifier18ObjectCreationMode
F8:__Z9InitInputv
BFi:_StateMachineBehaviour_OnStateUpdate_m2021794605
fke:_Enumerator_VerifyState_m2358705882_AdjustorThunk
hJb:__Z29Transfer_Blittable_ArrayFieldI24GenerateTypeTreeTransfer11ColorRGBA32EvRT_R9ArrayInfoRK23StaticTransferFieldInfo
kph:_Selectable_Navigate_m915280351
vgf:_AppDomain_getCurDomain_m591611373
t8a:__ZN16MemoryFileSystem6DeleteER13FileEntryDatab
jJi:_Vector3_get_normalized_m936072361
zna:__ZL21BlitScaleStbImageImplRK14ImageReferenceRS_NS_10ColorSpaceE
quf:_TlsStream_set_Position_m378064217
rB:__ZN18StreamedBinaryReadILb0EE21TransferSTLStyleArrayI13dynamic_arrayIjLj4EEEEvRT_17TransferMetaFlags
HCc:__ZNSt3__26__sortIR31RayHitsByInverseDepthComparitorP12RaycastHit2DEEvT0_S5_T_
YEb:__Z29Transfer_Blittable_ArrayFieldI14SafeBinaryReadyEvRT_R9ArrayInfoRK23StaticTransferFieldInfo
GXi:__ZL25UnresolvedVirtualCall_113P12Il2CppObjectiiiPK10MethodInfo
JBd:_DateTime_System_IConvertible_ToUInt32_m1363211018
Qad:_Evidence_Equals_m2325859915
Cyg:_Default__ctor_m172834064
sc:invoke_vifffii
Hgg:__ZL77StandaloneInputModule_t70867863_CustomAttributesCacheGenerator_m_VerticalAxisP21CustomAttributesCache
qzb:__ZN20ArchiveStorageReader17MakeStorageUnusedEv
Ixi:_Regex_IsMatch_m2159202025
TIa:__ZNK25MultiBlocksMemoryFileData5CloneEv
ABj:_GC_add_ext_descriptor
OCj:__ZN6il2cpp2os14WindowsRuntime22GetRestrictedErrorInfoEv
sZd:_Image_CalculateLayoutInputHorizontal_m3275149860
tqg:_RemotingServices_GetMethodBaseFromName_m3271095947
DVh:__Z71RuntimeInvoker_TimeSpan_t3430258949_Double_t4078015681_Int64_t909078037PK10MethodInfoPvPS2_
JKa:__ZN17ArchiveFileSystem11CreateAsDirER13FileEntryData
PLj:dynCall_iiiiiiiiiiii
lgd:_ASCIIEncoding_GetBytes_m3617160053
JEh:_InternalEnumerator_1_MoveNext_m2289229080_AdjustorThunk
Pmf:_CipherSuiteCollection_System_Collections_IList_RemoveAt_m143866082
QC:__ZN26AnimatorControllerPlayable26ParameterControlledByCurveEi
Fra:__ZN22VertexDeclarationCacheD0Ev
$Ub:__ZL26KeywordSetToStringDontSortRKNSt3__26vectorIN4core12basic_stringIcNS1_20StringStorageDefaultIcEEEENS_9allocatorIS5_EEEERS5_
Jia:__ZN6prcoreL17RemapGenericFloatI16TexFormatRGFloat17TexFormatRGBAHalfEEvPKNS_9InnerInfoE
Ndb:__ZNK21AssetBundleFileSystem8PositionERK13FileEntryData
YYi:__ZL25UnresolvedVirtualCall_185P12Il2CppObject20TimeSpan_t3430258949PK10MethodInfo
SG:__ZN12AudioManager22CreateFMODSoundFromWWWEP10IWWWStream15FMOD_SOUND_TYPE17FMOD_SOUND_FORMATjjbbP10SampleClip
D0b:__ZNK32RendererMaterialAnimationBinding15GenerateBindingERKN4core12basic_stringIcNS0_20StringStorageDefaultIcEEEEbRN11UnityEngine9Animation14GenericBindingE
Wdj:__ZN24dense_hashtable_iteratorINSt3__24pairIK10KeyWrapperINS1_IPK11Il2CppImageP11Il2CppClassEEEjEES9_17ReflectionMapHashIS8_EN14dense_hash_mapIS9_jSD_NS9_14EqualsComparerINS0_8equal_toIS8_EEEENS0_9allocatorISB_EEE9SelectKeyESI_SK_E30advance_past_empty_and_deletedEv
xji:_UnityEventBase_UnityEngine_ISerializationCallbackReceiver_OnBeforeSerialize_m1773826808
dhh:_DefaultComparer_GetHashCode_m361278435_gshared
f1:__ZN8Remapper23GetOrGenerateInstanceIDERK26SerializedObjectIdentifier
R0e:_StreamWriter_Flush_m3426120024
PKa:__ZN17FileSystemHandler10AtomicMoveER13FileEntryDataS1_
Ya:invoke_iiiiiifffiiifii
r_e:_MemoryStream__ctor_m1489366847
jbd:_SecurityElement_IsValidTag_m64902195
C9g:_Enumerator_System_Collections_IEnumerator_get_Current_m229223308_AdjustorThunk
sJg:_PropertyInfo_SetValue_m2961483868
uXg:_GUILayoutEntry_set_style_m70917293
Zqe:_List_1_System_Collections_IList_Contains_m4193366963_gshared
BPi:_UnityEvent_3_FindMethod_Impl_m1889846153_gshared
lng:_DictionaryEnumerator_get_Value_m1915638953
WYi:__ZL25UnresolvedVirtualCall_183P12Il2CppObject26DateTimeOffset_t1362988906PK10MethodInfo
_yg:_ConstructorInfo_Invoke_m2144827141
s4f:__ZL82Object_t1021602117_CustomAttributesCacheGenerator_Object_get_hideFlags_m4158950869P21CustomAttributesCache
nqb:__ZN6Sprite8TransferI24GenerateTypeTreeTransferEEvRT_
rhc:__Z48Register_UnityEngine_Transform_SetAsFirstSiblingv
G4h:__Z56RuntimeInvoker_Boolean_t3825574718_UriScheme_t1876590943PK10MethodInfoPvPS2_
pqb:__ZN7SubMesh8TransferI24GenerateTypeTreeTransferEEvRT_
Nfj:__ZN14dense_hash_mapI10KeyWrapperIPK14Il2CppAssemblyEPK16MonoAssemblyNameN6il2cpp5utils11PointerHashIS2_EENS4_14EqualsComparerINSt3__28equal_toIS3_EEEENSD_9allocatorINSD_4pairIKS4_S7_EEEEE13set_empty_keyERSJ_
wIg:_MonoProperty_get_CanWrite_m2124922514
Vlf:_CipherSuite_get_HashAlgorithmType_m3902365773
p3h:__Z36RuntimeInvoker_Enumerator_t132208513PK10MethodInfoPvPS2_
S4h:__Z112RuntimeInvoker_Int32_t2071877448_Il2CppObject_Int32_t2071877448_Int32_t2071877448_Int32_t2071877448_Il2CppObjectPK10MethodInfoPvPS2_
KIj:_poll
d_e:_Stream_BeginRead_m1985960185
j_g:_GUIStyle_GetFontInternalDuringLoadingThread_m229734483
r_b:__ZN13ProduceHelperI14Texture2DArrayLb0EE7ProduceE18MemLabelIdentifier18ObjectCreationMode
dkf:_MD4Managed_GG_m1462438360
Ldc:__Z46Mesh_CUSTOM_PrintErrorCantAccessMeshForIndicesP12Il2CppObject
gGc:__Z55Register_UnityEngine_Rigidbody2D_INTERNAL_CALL_AddForcev
W8b:__ZN9Transform23SetSiblingIndexInternalEib
drh:_ScrollRect_get_minWidth_m3151814267
TXe:_BinaryReader_CheckBuffer_m1059275266
Vsa:__ZN13GfxDeviceGLES17DestroySubProgramEPN9ShaderLab10SubProgramE
Ex:__ZN7mecanim5human12HumanPoseSubERNS0_9HumanPoseERKS1_S4_
Rjf:_MD4_Create_m2582504069
VSi:_HashSet_1_System_Collections_IEnumerable_GetEnumerator_m2498631708_gshared
apj:__ZN6il2cpp8metadata15GenericMetadata15GetGenericClassEiPK17Il2CppGenericInst
Jld:_Boolean_System_IConvertible_ToInt16_m977801621
RDb:__Z18Transfer_BlittableI14SafeBinaryReadLb0E10Matrix4x4fEvRK29SerializationCommandArgumentsR31RuntimeSerializationCommandInfo
CMa:__Z24GetFixedBehaviourManagerv
LSa:__ZN12FlareManager9UpdateJobEP25FlareManagerUpdateJobData
t5i:__ZN6il2cpp2vm10ThreadPool4WaitEP17Il2CppAsyncResultPPv
YGj:_vfprintf
epg:_SerializationException__ctor_m1019897788
fbi:_Debug_get_logger_m4173808038
Mga:__ZL13SortTexByNameRKNSt3__24pairIN9ShaderLab16FastPropertyNameEN18UnityPropertySheet11UnityTexEnvEEES7_
ATa:__ZN20DynamicPropertySheetD0Ev
h6a:__ZN14SafeBinaryRead17RegisterConverterEPKcS1_PFbPvRS_E
NX:__ZN35RegisterRuntimeInitializeAndCleanup8RegisterEPFvPvES2_iS0_
Akd:_AsyncCallback__ctor_m3071689932
RYi:__ZL25UnresolvedVirtualCall_178P12Il2CppObject22UILineInfo_t3621277874S1_PK10MethodInfo
zNe:_ReadOnlyCollection_1_System_Collections_IList_Clear_m2600246370_gshared
bzc:__ZN4PPtrI17PhysicsMaterial2DE8TransferI18StreamedBinaryReadILb0EEEEvRT_
H_h:__Z74RuntimeInvoker_Void_t1841601450_PlayableHandleU26_t3483893774_Il2CppObjectPK10MethodInfoPvPS2_
EZh:__Z135RuntimeInvoker_RaycastHit2D_t4063908774_Vector2_t2243707579_Vector2_t2243707579_Single_t2076509932_Int32_t2071877448_Single_t2076509932PK10MethodInfoPvPS2_
t$h:__Z41RuntimeInvoker_EventModifiers_t2690251474PK10MethodInfoPvPS2_
mbf:_DSAManaged_NormalizeArray_m2287089393
Ahc:__Z21Object_CUSTOM_DestroyP12Il2CppObjectf
sFh:_InternalEnumerator_1_System_Collections_IEnumerator_get_Current_m2389982234_AdjustorThunk
GMa:__ZN8Material26ResetAllCachedMaterialDataEP6Shader
Brh:_Selectable_get_interactable_m1725029500
dVc:_UNITY_TT_Get_MM_Var
YPi:__ZN6il2cpp6icalls8mscorlib6System7Decimal13decimal2Int64EP19il2cpp_decimal_reprPx
ba:invoke_diddi
iNd:_ExecuteEvents__cctor_m288775360
vWc:__ZNK2UI6Canvas13GetRenderModeEv
Gyd:_Double_TryParseStringConstant_m2585405703
pDb:__Z18Transfer_BlittableI14SafeBinaryReadLb0EiEvRK29SerializationCommandArgumentsR31RuntimeSerializationCommandInfo
h4i:__ZN6il2cpp2vm13MetadataCache30GetPropertyDefinitionFromIndexEi
N5c:_RijndaelTransform_Clear_m1652144089
tfe:_BaseInvokableCall_ThrowOnInvalidArg_TisIl2CppObject_m1349548392_gshared
U1c:__ZN22BaseUnityConnectClient17InitializeSessionERKN4core12basic_stringIcNS0_20StringStorageDefaultIcEEEES6_N19CloudServiceHandler13InitModeFlagsE
LJh:__Z57RuntimeInvoker_Void_t1841601450_Il2CppObject_Il2CppObjectPK10MethodInfoPvPS2_
E5e:_NumberFormatter_get_IsZero_m1325357749
RHd:_Enum_ToObject_m322320225
UIh:_Enumerator_get_Current_m2754383612_gshared
xec:__ZN13MonoBehaviour34StopCoroutineFromEnumeratorManagedE18ScriptingObjectPtr
w9c:_X509Certificate__ctor_m3860837120
zMc:_gray_raster_reset
CF:__Z100Register_UnityEngine_Experimental_Director_AnimatorControllerPlayable_INTERNAL_CALL_SetTriggerStringv
LVg:_GameObject_Internal_CreateGameObject_m3428198595
bei:_Camera_RaycastTry2D_m755036866
uNe:_ReadOnlyCollection_1_System_Collections_Generic_IListU3CTU3E_set_Item_m3663361643_gshared
dC:__ZN7mecanim9animation14AvatarConstant15InitializeClassEv
rMd:_EventTrigger_OnScroll_m626934407
Jli:_AnimatorControllerPlayable_GetCurrentAnimatorStateInfo_m689786022
Uyb:__ZN30RuntimeInitializeOnLoadManager8TransferI18StreamedBinaryReadILb0EEEEvRT_
Lfh:_Dictionary_2__ctor_m1206668798_gshared
CBg:_TypeBuilder_not_supported_m3178173643
iNc:_UNITY_tt_face_load_pclt
Tzb:__ZN21ArchiveStorageCreator14StoreDirectoryEv
N7b:__ZL34GetComponentsImplementationRecurseILb1ELi0ELi2EEbR10GameObjectbRK17CompareParametersRK39GetComponentsImplementation_ReturnValue
Gzc:__ZN10ClipperLib7Clipper24InsertLocalMinimaIntoAELEx
iEj:__ZN6il2cpp6icalls8mscorlib6System9Threading5Mutex20CreateMutex_internalEbP12Il2CppStringPb
BTh:__Z50RuntimeInvoker_Int16_t4041245914_Int16_t4041245914PK10MethodInfoPvPS2_
kqd:_ArrayListWrapper_Remove_m1105489978
MSa:__ZNK6Camera18WorldToScreenPointERK8Vector3fPb
gmd:_Boolean_CompareTo_m3691698947_AdjustorThunk
cgg:__ZL109PointerEventData_t1599784723_CustomAttributesCacheGenerator_PointerEventData_get_eligibleForClick_m2497780621P21CustomAttributesCache
cud:_HashKeys_CopyTo_m3566668422
XAh:_InternalEnumerator_1_Dispose_m549215360_AdjustorThunk
eod:_Convert_ToSByte_m2665932200
u0:__ZNSt3__227__insertion_sort_incompleteIRPFbRKN18AwakeFromLoadQueue4ItemES4_EPS2_EEbT0_S9_T_
yCi:_PKCS12_Encrypt_m2154408631
xAg:_ILGenerator_label_fixup_m1325994348
Uch:_ValueCollection_System_Collections_ICollection_get_IsSynchronized_m45572582_gshared
G5d:_Array_InternalArray__IEnumerable_GetEnumerator_TisContactPoint2D_t3659330976_m478005999_gshared
pnh:_Navigation_Equals_m4214630671_AdjustorThunk
GKe:_ReadOnlyCollection_1_System_Collections_Generic_IListU3CTU3E_set_Item_m257196015_gshared
KFg:_FieldInfo_GetPseudoCustomAttributes_m2500972355
vnb:__ZN26EnlightenSystemInformation8TransferI14SafeBinaryReadEEvRT_
fge:_Array_InternalArray__get_Item_TisLink_t2723257478_m2281261655_gshared
ztb:__ZN12MeshRendererD0Ev
gzi:_ExpressionAssertion_IsComplex_m783019628
dtd:_Hashtable__ctor_m2702360557
Fh:_utime
kRe:_DateTimeFormatInfo_get_RawAbbreviatedDayNames_m3998113647
jih:_DefaultComparer_GetHashCode_m2596628120_gshared
Dif:_PrimalityTest_Invoke_m4058801829
hqg:_RemotingConfiguration_SetCustomErrorsMode_m1844153208
zn:FUNCTION_TABLE_viiiiii
c5h:__Z84RuntimeInvoker_Int32_t2071877448_Il2CppObject_CustomAttributeNamedArgument_t94157543PK10MethodInfoPvPS2_
Y5f:__ZL98Physics2D_t2540166467_CustomAttributesCacheGenerator_Physics2D_GetColliderFromInstanceID_m95920619P21CustomAttributesCache
lKd:_CultureInfo_GetFormat_m3560116485
QA:__ZN7mecanim9animation22DestroyAvatarWorkspaceEPNS0_15AvatarWorkspaceERNS_6memory9AllocatorE
W8g:_ScriptableObject_CreateInstance_m3271154163
epd:__ZN21InterfaceFuncInvoker0IiE6InvokeEjP11Il2CppClassP12Il2CppObject
tDf:_FactoryCache__ctor_m254400436
iyi:_AnchorInfo_get_IsPosition_m3791659233
G7d:_Array_InternalArray__IndexOf_TisResourceCacheItem_t333236149_m761772858_gshared
Yic:__ZNSt3__210__list_impIN10GUIManager12SortedScriptE11memory_poolIS2_EE5clearEv
RVf:__ZL76Convert_t2607082565_CustomAttributesCacheGenerator_Convert_ToInt64_m44696721P21CustomAttributesCache
Gkb:__ZN14PlayableOutput17SetSourcePlayableEP8Playable
Dqg:_TrackingServices__cctor_m3639412334
eNi:_InvokableCall_1_add_Delegate_m3068046591_gshared
Clc:__Z32GUIStyle_Set_Custom_PropRichTextP12Il2CppObjecth
Gu:__ZN7mecanim9animation29MotionOutputGetDeltaTransformEPKNS0_12MotionOutputE
nYb:__Z13RegisterClassI16GraphicsSettingsEvv
edh:_ValueCollection_System_Collections_IEnumerable_GetEnumerator_m1773104428_gshared
Kuc:__ZN24b2ChainAndCapsuleContact8EvaluateEP10b2ManifoldRK11b2TransformS4_
AC:__ZN8Animator14OnAddComponentEPN5Unity9ComponentE
L0g:_Input_GetAxis_m2098048324
cxe:_List_1_CheckMatch_m1184924052_gshared
Ogc:__Z43Transform_CUSTOM_INTERNAL_get_localRotationP12Il2CppObjectP11Quaternionf
ZGi:_Touch_get_fingerId_m4109475843_AdjustorThunk
_Pj:_glGetShaderInfoLog__wrapper
hi:_emscripten_glGetTexParameteriv
Lqe:_List_1_ToArray_m3752387798_gshared
Oph:_ScrollRect_get_elasticity_m3987376518
_kf:_RSAManaged_ImportParameters_m3060955884
aff:_DeriveBytes__ctor_m3089550878
mqi:_ChannelData_CopyFrom_m4049054607
tYb:__Z13RegisterClassI4MeshEvv
xfg:__ZL94AxisEventData_t1524870173_CustomAttributesCacheGenerator_AxisEventData_get_moveDir_m3968662359P21CustomAttributesCache
M6d:_Array_FindLastIndex_TisIl2CppObject_m869210470_gshared
kkb:__ZN8PlayableD0Ev
hI:__ZN12AudioManager8TransferI19StreamedBinaryWriteILb0EEEEvRT_
K_e:_WriteDelegate_Invoke_m2103848735
Kre:_List_1_get_Capacity_m4262042666_gshared
kSi:_GenericEqualityComparer_1_GetHashCode_m1950634276_gshared
QMb:__ZN18StreamedBinaryReadILb1EE21TransferSTLStyleArrayI13dynamic_arrayI11ColorRGBA32Lj4EEEEvRT_17TransferMetaFlags
mbh:_Transform_1_EndInvoke_m687617772_gshared
W6h:__Z66RuntimeInvoker_Void_t1841601450_Int32_t2071877448_Mark_t2724874473PK10MethodInfoPvPS2_
tKi:_Locale_GetText_m512920887
C0b:__ZNK32RendererMaterialAnimationBinding12GetPPtrValueERKN11UnityEngine9Animation10BoundCurveE
DNb:__Z18Transfer_BlittableI18StreamedBinaryReadILb0EELb0E8Vector2fEvRK29SerializationCommandArgumentsR31RuntimeSerializationCommandInfo
Rpg:_RemotingConfiguration_get_ProcessId_m3870172209
aZc:__ZN2UI11CanvasGroup12CleanupClassEv
MSe:_SortKey_ToString_m2406913228
IV:__ZN22LocalFileSystemHandler9MakeLocalER13FileEntryDatab
Uxj:__ZN6il2cpp2vm8Profiler10AllocationEP12Il2CppObjectP11Il2CppClass
Nxd:_Convert_ToDateTime_m1020507389
_2b:__ZNK9HPlayable7IsValidEv
aKc:__ZNSt3__23mapIN20TextRenderingPrivate7FontRefENS1_6OSFontENS_4lessIS2_EENS_9allocatorINS_4pairIKS2_S3_EEEEEixERS8_
FYe:_Path_IsPathRooted_m1347207448
Prg:_ObjectManager_RegisterObjectInternal_m879109503
n2d:_Array_get_swapper_TisVector4_t2243707581_m97441823_gshared
Dpa:__ZNSt3__26__sortIRNS_4lessIiEEPiEEvT0_S5_T_
jHc:__ZN14SafeBinaryRead21TransferSTLStyleArrayI10vector_mapINSt3__24pairIttEEfN20TextRenderingPrivate8FontImpl14KerningCompareENS2_9allocatorINS3_IS4_fEEEEEEEvRT_17TransferMetaFlags
QYb:__Z13RegisterClassI15QualitySettingsEvv
exj:__ZN6il2cpp2vm6String21InitializeEmptyStringEP11Il2CppClass
d_a:__ZN25DeferredRenderLoopScratchD0Ev
Ky:__ZN27AnimationLayerMixerPlayable14SetInputWeightEif
Ax:__ZN7mecanim9animation17EvaluateHumanPoseERKNS0_18ClipMuscleConstantERKNS0_15ClipMuscleInputEPKfRKNS0_12MotionOutputERNS_5human9HumanPoseE
STf:__ZL90UTF7Encoding_t741406939_CustomAttributesCacheGenerator_UTF7Encoding_GetHashCode_m359766848P21CustomAttributesCache
JMh:__Z52RuntimeInvoker_Decimal_t724701077_Single_t2076509932PK10MethodInfoPvPS2_
jFc:__ZN14dense_hash_mapINSt3__24pairIPK10Collider2DS4_EE11Collision2DNS2_23ColliderPairHashFunctorENS0_8equal_toIS5_EE13stl_allocatorINS1_IKS5_S6_EEL18MemLabelIdentifier65ELi16EEE15set_deleted_keyERSB_
CQb:__ZN15dense_hashtableINSt3__24pairIKiN4core17string_with_labelILi1EEEEEi18SInt32HashFunctionN14dense_hash_mapIiS5_S7_NS0_8equal_toIiEE13stl_allocatorIS6_L18MemLabelIdentifier1ELi16EEE9SelectKeyESA_SD_E9copy_fromERKSG_j
Mca:__ZN6Camera11ResetAspectEv
t_f:__ZL62SecurityProtocolType_t155967584_CustomAttributesCacheGeneratorP21CustomAttributesCache
KRa:__ZNSt3__227__insertion_sort_incompleteIRPFbP10GUIElementS2_EPS2_EEbT0_S7_T_
Zzf:_X509BasicConstraintsExtension_get_HasPathLengthConstraint_m3788532759
ijb:__ZNK17InstancedPropInfo22FillInstancePropertiesER19ShaderPropertySheetjPK17BatchInstanceDatajRK15RenderNodeQueue
kea:__ZN22CreateGpuProgramOutputD2Ev
RJb:__Z18Transfer_BlittableI19StreamedBinaryWriteILb0EELb1EsEvRK29SerializationCommandArgumentsR31RuntimeSerializationCommandInfo
Y6c:_RSACryptoServiceProvider_EncryptValue_m802714447
dnj:__ZN6il2cpp6icalls8mscorlib6System2IO6MonoIO9SetLengthE12Il2CppIntPtrxPi
aFj:__ZN6il2cpp8metadata22Il2CppSignatureCompare6EqualsERK13dynamic_arrayIPK10Il2CppTypeLj4EES8_
oVf:__ZL76Convert_t2607082565_CustomAttributesCacheGenerator_Convert_ToByte_m932798552P21CustomAttributesCache
eN:__ZN13ProduceHelperI13AudioListenerLb0EE7ProduceE18MemLabelIdentifier18ObjectCreationMode
tme:_List_1_System_Collections_ICollection_get_SyncRoot_m1594235606_gshared
RPe:_DateTimeFormatInfo_GetInstance_m3133223810
Xhf:_ModulusRing_BarrettReduction_m2802101099
mOh:__Z57RuntimeInvoker_ExtenderType_t1556892101_Int32_t2071877448PK10MethodInfoPvPS2_
uJa:__ZN12HandlerChain4OpenER13FileEntryData14FilePermission16FileAutoBehavior
mai:__Z76RuntimeInvoker_Il2CppObject_UILineInfo_t3621277874_Il2CppObject_Il2CppObjectPK10MethodInfoPvPS2_
Fkh:_EqualityComparer_1_get_Default_m2134906921_gshared
DGg:_MonoMethodInfo_GetParametersInfo_m3456861922
J8h:__Z37RuntimeInvoker_UILineInfo_t3621277874PK10MethodInfoPvPS2_
g3:__ZN14FileCacherReadD2Ev
Ioa:__ZN13RendererScene23UpdatePreviousFrameDataEii
q7c:_RSAPKCS1SignatureDeformatter_VerifySignature_m1825067195
jbc:__Z50Register_UnityEngine_CullingGroup_FinalizerFailurev
yie:_KeyValuePair_2_ToString_m2613351884_gshared
rka:__ZN27UnloadUnusedAssetsOperationD0Ev
rhb:__ZN6Camera15ThreadedCleanupEv
lz:__ZN26AnimatorControllerPlayable6MemoryD2Ev
whg:__ZL69ColorBlock_t2652774230_CustomAttributesCacheGenerator_m_DisabledColorP21CustomAttributesCache
Ylf:_CipherSuite_get_Code_m3902213587
roh:_Scrollbar__ctor_m2244981801
$mj:__ZN6il2cpp6icalls8mscorlib6System2IO6MonoIO9GetLengthE12Il2CppIntPtrPi
Ssg:_ObjectRecord_get_HasPendingFixups_m670959802
V7c:_SHA256Managed_HashCore_m4111458495
bKd:_CultureInfo_get_CompareInfo_m3085280862
Qsg:_ObjectManager_RecordDelayedFixup_m1895730844
koj:__ZNK15dense_hashtableINSt3__24pairIK10KeyWrapperIP14Il2CppIUnknownEjEES5_N6il2cpp5utils11PointerHashIS3_EEN14dense_hash_mapIS5_jSB_NS5_14EqualsComparerINS0_8equal_toIS4_EEEENS0_9allocatorIS7_EEE9SelectKeyESG_SI_E12test_deletedERK24dense_hashtable_iteratorIS7_S5_SB_SK_SG_SI_E
Ejd:_ArrayTypeMismatchException__ctor_m1898555879
_se:_List_1_System_Collections_IList_get_IsFixedSize_m3522184224_gshared
hG:__ZN9AudioClip23VirtualRedirectTransferER18StreamedBinaryReadILb0EE
pof:_ClientSessionInfo_CheckDisposed_m1394638186
Sug:_SByte_Parse_m2544167007
add:_Single_CompareTo_m2081476257
RFd:_StackFrame_GetILOffset_m115192054
n0h:__Z61RuntimeInvoker_Boolean_t3825574718_Int32_t2071877448_IntPtr_tPK10MethodInfoPvPS2_
Kbb:__ZN24GenerateTypeTreeTransfer8TransferIN11AssetBundle9AssetInfoEEEvRT_PKc17TransferMetaFlags
fug:_RuntimeTypeHandle_GetHashCode_m3697629454_AdjustorThunk
B8e:_BigInteger__ctor_m2945783161
$pf:_TlsClientHello_Update_m1723542631
vQf:__ZL96ProxyAttribute_t4031752430_CustomAttributesCacheGenerator_ProxyAttribute_IsContextOK_m2391079277P21CustomAttributesCache
RTe:_IndexOutOfRangeException__ctor_m3497760912
cMe:_ReadOnlyCollection_1_CopyTo_m1652036789_gshared
Gj:_glCopyTexSubImage2D
Eag:__ZL61GUISkin_t1436893342_CustomAttributesCacheGenerator_m_textAreaP21CustomAttributesCache
L0b:__ZNK24RendererAnimationBinding13GetFloatValueERKN11UnityEngine9Animation10BoundCurveE
Kze:_Collection_1_Insert_m3594407958_gshared
tOa:_UNITY_png_write_zTXt
DU:__ZN18ScreenManagerWebGL13SetShowCursorEb
Rxj:__ZN6il2cpp6icalls8mscorlib6System7Convert24InternalFromBase64StringEP12Il2CppStringb
QLa:__ZZ23InitPlayerLoopCallbacksvEN37EarlyUpdateProcessMouseInWindowstruct7ForwardEv
euh:_Text_get_preferredWidth_m3352156860
$xg:_AssemblyCompanyAttribute__ctor_m1217508649
dZc:__ZN2UI13CanvasManager14GetRenderOrderEPKNS_6CanvasE
PDb:__Z18Transfer_BlittableI14SafeBinaryReadLb0E5RectTIfEEvRK29SerializationCommandArgumentsR31RuntimeSerializationCommandInfo
cai:__Z93RuntimeInvoker_Il2CppObject_Vector2_t2243707579_Vector2_t2243707579_Il2CppObject_Il2CppObjectPK10MethodInfoPvPS2_
KLe:_ReadOnlyCollection_1_System_Collections_Generic_IListU3CTU3E_RemoveAt_m878653284_gshared
XPe:_DateTimeFormatInfo_GetFormat_m3676195179
vya:__ZN14GfxContextGLES14GetFramebufferEv
iSj:_emscripten_glGenVertexArrays__wrapper
oZh:__Z36RuntimeInvoker_HideFlags_t1434274199PK10MethodInfoPvPS2_
yha:__ZN6prcoreL21CreateRemapAnyBlitterE13TextureFormatS0_
SFj:__ZN6il2cpp2os5Event4WaitEjb
n6b:__ZN17AnimationCurveTplIfE16StripInvalidKeysEv
A8d:_Array_InternalArray__ICollection_Add_TisKeyValuePair_2_t3716250094_m2381539361_gshared
Mff:_X509Extension_WriteLine_m2850991173
XXc:__ZNK2UI6Canvas17GetSortingLayerIDEv
pHf:__ZL40UIntPtr_t_CustomAttributesCacheGeneratorP21CustomAttributesCache
FCc:__ZN14Raycast2DQuery8RunQueryEb
z2b:__Z13RegisterClassI17GlobalGameManagerEvv
wlg:__ZL70GridLayoutGroup_t1515633077_CustomAttributesCacheGenerator_m_StartAxisP21CustomAttributesCache
Wmg:__ZL173U3CDeathTimerU3Ec__Iterator0_t590892158_CustomAttributesCacheGenerator_U3CDeathTimerU3Ec__Iterator0_System_Collections_Generic_IEnumeratorU3CobjectU3E_get_Current_m890502841P21CustomAttributesCache
J3d:_Array_InternalArray__ICollection_Remove_TisInt64_t909078037_m2653583130_gshared
qpe:_List_1_AddCollection_m2628217188_gshared
GMg:_Thread_get_ExecutionContext_m922067206
SQ:__ZN11UnityEngine15CloudWebService13WWWRestClient18GetEditableHeadersEv
$nf:_RecordProtocol_get_Context_m2688493529
xfa:__ZN4PPtrI7TextureE8TransferI14SafeBinaryReadEEvRT_
x3b:__ZN14PlayableOutput6HandleEv
RCj:__ZN6il2cpp5utils10MemoryPool9AddRegionEj
Wph:_ScrollRect_get_viewport_m3177057249
un:FUNCTION_TABLE_iiiiiiiiiiiiii
lhi:_CustomYieldInstruction_get_Current_m1743233962
Z1c:__ZN19UnityConnectService18OnPlayerQuitStaticEPS_
E2h:__Z35RuntimeInvoker_ScaleMode_t987318053PK10MethodInfoPvPS2_
_Nc:_UNITY_tt_get_cmap_info
Lgd:_DecoderExceptionFallback_GetHashCode_m2972426052
$3a:__ZN16ReflectionProbes8ScheduleEN18ReflectionProbeJob7JobTypeEP15ReflectionProbei
ZEe:_Collection_1_IsFixedSize_m3675221982_gshared
_Vf:__ZL77Convert_t2607082565_CustomAttributesCacheGenerator_Convert_ToSByte_m883113940P21CustomAttributesCache
$3:__ZN16MessageForwarder13HandleMessageEPviR11MessageData
ile:_Enumerator_MoveNext_m3293920409_AdjustorThunk
YV:__Z18IsDirectoryCreatedRKN4core12basic_stringIcNS_20StringStorageDefaultIcEEEE
gDg:_GenericTypeParameterBuilder_get_DeclaringType_m1652924692
IHh:_Comparer_1__cctor_m3112251759_gshared
ikg:__ZL73ScrollRect_t1199013257_CustomAttributesCacheGenerator_m_VerticalScrollbarP21CustomAttributesCache
hzf:_X509KeyUsageExtension_ToString_m1992050580
HJc:_UNITY_FT_GlyphLoader_Done
Xpi:_ConstructionCall__ctor_m1143766850
m0g:_GUIStyleState_Init_m2434147050
JHh:_Comparer_1_System_Collections_IComparer_Compare_m3203078743_gshared
$rg:_ObjectReader_ReadArrayOfString_m3752210963
lDc:__ZN19OverlapPointQuery2D14InitializeAABBER6b2AABB
Iag:__ZL67GUISkin_t1436893342_CustomAttributesCacheGenerator_m_verticalSliderP21CustomAttributesCache
w9h:__Z56RuntimeInvoker_Int32_t2071877448_SpriteState_t1353336012PK10MethodInfoPvPS2_
I$i:__ZNK15dense_hashtableINSt3__24pairIK10KeyWrapperIPKcEP11Il2CppClassEES5_N6il2cpp5utils11StringUtils12StringHasherIS4_EEN14dense_hash_mapIS5_S8_SE_NS5_14EqualsComparerINSC_21CaseSensitiveComparerEEENS0_9allocatorIS9_EEE9SelectKeyESI_SK_E10test_emptyERK30dense_hashtable_const_iteratorIS9_S5_SE_SM_SI_SK_E
OOc:_tt_cmap14_char_var_index
EVh:__Z77RuntimeInvoker_TimeSpan_t3430258949_TimeSpan_t3430258949_TimeSpan_t3430258949PK10MethodInfoPvPS2_
lQc:_psh_globals_new
y_e:_FileStream_Seek_m950719389
bPd:_StandaloneInputModule_set_allowActivationOnMobileDevice_m2631121618
Yxd:_Decimal_stripStyles_m294582157
zMg:_UTF8Decoder_GetChars_m3819660582
bsa:__ZN9GfxDevice20SetMaxBufferedFramesEi
Dre:_List_1_RemoveAll_m4125997475_gshared
fyc:__ZN10Collider2D19WakeAllBodyContactsEv
ZK:__ZN24AudioScriptBufferManagerD2Ev
eMj:dynCall_vdd
AYc:__ZN2UIL17UnloadAllCanvasesEv
C7a:__Z23ConvertIntegerToTypePtrIsEbPvR14SafeBinaryRead
$vc:__ZN12b2MouseJoint11ShiftOriginERK6b2Vec2
Bkh:_EqualityComparer_1__ctor_m99476293_gshared
hif:_BigInteger_Incr2_m505983313
Pci:_PCMReaderCallback_BeginInvoke_m3119095492
lpd:_ArrayList_get_Count_m523955479
a5h:__Z85RuntimeInvoker_Int32_t2071877448_Vector3_t2243707580_Vector3_t2243707580_Il2CppObjectPK10MethodInfoPvPS2_
Hqd:_FixedSizeArrayListWrapper_Remove_m1359458911
Gha:__ZN6prcoreL29inner_stretch_rgb565_bilinearEPKNS_9InnerInfoE
Rzi:_Uri__ctor_m3927533881
ebj:__ZNK15dense_hashtableINSt3__24pairIK10KeyWrapperINS1_IPK14Il2CppAssemblyP11Il2CppClassEEEjEES9_17ReflectionMapHashIS8_EN14dense_hash_mapIS9_jSD_NS9_14EqualsComparerINS0_8equal_toIS8_EEEENS0_9allocatorISB_EEE9SelectKeyESI_SK_E12test_deletedEj
yjh:_EqualityComparer_1_System_Collections_IEqualityComparer_Equals_m3724603646_gshared
HLd:_EventSystem_get_current_m319019811
sth:_Text_get_mainTexture_m813502234
TVh:__Z47RuntimeInvoker_SecurityProtocolType_t3099771628PK10MethodInfoPvPS2_
lZa:__ZNK14RenderSettings19GetFlatAmbientColorEv
X3a:__ZN6prcoreL10inner_flipILj4EEEvPhS1_j
Dwb:__ZN18StreamedBinaryReadILb0EE21TransferSTLStyleArrayI10vector_mapIPKN5Unity4TypeE7Hash128NSt3__24lessIS6_EENS8_9allocatorINS8_4pairIS6_S7_EEEEEEEvRT_17TransferMetaFlags
Xu:__ZNK27StateMachineBehaviourPlayer15IsSenderEnabledEv
FIh:_Enumerator_VerifyState_m2118679243_gshared
MZd:_InputField_get_shouldHideMobileInput_m3694613599
mhc:__Z40Register_UnityEngine_Transform_SetParentv
Wci:_AudioConfigurationChangeHandler_Invoke_m635374412
Rsf:_SslClientStream_get_HaveRemoteValidation2Callback_m3555576758
drb:__ZN14Texture2DArray17UploadToGfxDeviceEv
eLe:_ReadOnlyCollection_1_System_Collections_Generic_IListU3CTU3E_Insert_m4216310986_gshared
oHe:_ReadOnlyCollection_1_System_Collections_Generic_IListU3CTU3E_set_Item_m1532495847_gshared
UJ:__Z14FMODMemoryFreePvjPKc
Pwh:_InternalEnumerator_1_System_Collections_IEnumerator_Reset_m3731327620_AdjustorThunk
vdb:__ZN15dense_hashtableINSt3__24pairIKN4core12basic_stringIcNS2_20StringStorageDefaultIcEEEES6_EES6_20StringHash32FunctionIS6_EN14dense_hash_mapIS6_S6_SA_NS0_8equal_toIS6_EE13stl_allocatorIS8_L18MemLabelIdentifier54ELi16EEE9SelectKeyESD_SG_EC2ERKSJ_j
ogg:__ZL104PointerEventData_t1599784723_CustomAttributesCacheGenerator_PointerEventData_get_worldNormal_m1704987468P21CustomAttributesCache
hKi:_YieldInstruction_t3462875981_marshal_pinvoke_cleanup
nZd:_Image_AddQuad_m1600600902
ERc:_cf2_glyphpath_moveTo
SEi:_SharedBetweenAnimatorsAttribute__ctor_m1221241062
nQd:_AnimationTriggers_set_disabledTrigger_m609579531
PLf:__ZL47File_t1930543328_CustomAttributesCacheGeneratorP21CustomAttributesCache
LCd:_DateTimeOffset__ctor_m1796624924
iYg:_GUILayoutUtility_get_spaceStyle_m1918520192
ELd:_BaseRaycaster_OnDisable_m1716508791
z3d:_Array_InternalArray__ICollection_Remove_TisKeyValuePair_2_t3716250094_m2566517826_gshared
cjf:_ASN1Convert_ToInt32_m2121135414
QCh:_InternalEnumerator_1_MoveNext_m1741571735_gshared
tjc:__ZN5IMGUI14GUIWindowStateD2Ev
BHf:__ZL82Enum_t2459695545_CustomAttributesCacheGenerator_Enum_GetUnderlyingType_m3513899012P21CustomAttributesCache
IBj:_GC_is_heap_ptr
Nkj:__GLOBAL__sub_I_Assembly_cpp
Aqf:_TlsServerSettings_set_CertificateRequest_m3419519893
Vt:__ZN7mecanim5human10RetargetToEPKNS0_5HumanEPKNS0_9HumanPoseES6_RKN4math4trsXEPS4_PNS_8skeleton13SkeletonPoseTIS8_EESF_
Xx:__ZN7mecanim9animation8SeekClipERKNS0_12StreamedClipERNS0_18StreamedClipMemoryEf
nRg:_Type_get_IsGenericParameter_m161434704
LDg:_MethodBuilder_get_Attributes_m3678061338
km:_emscripten_glIsTexture
p2g:_Mathf_Clamp_m3542052159
nqd:_ArrayListWrapper_CopyTo_m793444109
mWf:__ZL79Convert_t2607082565_CustomAttributesCacheGenerator_Convert_ToUInt16_m3265369225P21CustomAttributesCache
Rk:_emscripten_glHint
SUc:_ft_var_readpackeddeltas
cCd:_DateTime_AddMilliseconds_m1813199744_AdjustorThunk
yug:_SByte_System_IConvertible_ToSByte_m108774324_AdjustorThunk
PDg:_MethodBuilder_GetParameterCount_m467267889
eFg:_TypeBuilder_IsValueTypeImpl_m1499671481
Uai:_AnimationEvent_set_intParameter_m1174062029
xCf:_X509ChainStatus_t4278378721_marshal_pinvoke
Qkf:_RSAManaged__ctor_m1680944437
nm:_SDL_UpperBlit
q$g:_GUIStyle_op_Implicit_m781448948
SZa:__Z35GetTextureDecodeValuesWithIntensity16TextureUsageMode17TextureColorSpace10ColorSpacef
qnd:_Byte_GetHashCode_m2885528842_AdjustorThunk
hhj:__ZN15dense_hashtableINSt3__24pairIK10KeyWrapperINS1_IPK9EventInfoP11Il2CppClassEEEjEES9_17ReflectionMapHashIS8_EN14dense_hash_mapIS9_jSD_NS9_14EqualsComparerINS0_8equal_toIS8_EEEENS0_9allocatorISB_EEE9SelectKeyESI_SK_E15set_deleted_keyERKSB_
Udh:_Dictionary_2_OnDeserialization_m2092139626_gshared
Wvc:__ZNK12b2MouseJoint10GetAnchorAEv
IBb:__ZN14SafeBinaryRead20OverrideRootTypeNameEPKc
sTi:__ZNK10KeyWrapperIPK22Il2CppGenericParameterE14EqualsComparerINSt3__28equal_toIS2_EEEclERKS3_SA_
k3:__ZN14FileCacherRead16UnlockCacheBlockEj
Qef:_X509Certificate_GetUnsignedBigInteger_m3491353542
xHc:__ZNSt3__26vectorIN4core12basic_stringIcNS1_20StringStorageDefaultIcEEEE13stl_allocatorIS5_L18MemLabelIdentifier34ELi16EEE6assignINS_11__wrap_iterIPS5_EEEENS_9enable_ifIXaasr21__is_forward_iteratorIT_EE5valuesr16is_constructibleIS5_NS_15iterator_traitsISF_E9referenceEEE5valueEvE4typeESF_SF_
_9f:__ZL90Event_t3028476042_CustomAttributesCacheGenerator_Event_Internal_GetMousePosition_m38523489P21CustomAttributesCache
AGb:__Z18Transfer_BlittableI17RemapPPtrTransferLb1E8Vector3fEvRK29SerializationCommandArgumentsR31RuntimeSerializationCommandInfo
t0a:__ZN6Camera6RenderER11CullResultsR17ShaderPassContextPK21CameraRenderingParamsNS_10RenderFlagE
LMf:__ZL57StackBehaviour_t1390406961_CustomAttributesCacheGeneratorP21CustomAttributesCache
Qc:_emscripten_glUniform1f
DJa:__ZNK12HandlerChain4SizeERK13FileEntryData
gKc:__Z20ParseImageParametersR11UTF16StringRiRN20TextRenderingPrivate16TextFormatChangeE
Atf:_SslStreamBase_get_HashStrength_m480059173
lBh:_InternalEnumerator_1_System_Collections_IEnumerator_Reset_m651165750_AdjustorThunk
zBb:__ZN13MonoBehaviour9CallAwakeEv
pYg:__Z14bankers_roundff
QOh:__Z66RuntimeInvoker_Void_t1841601450_Int32_t2071877448_SByte_t454417549PK10MethodInfoPvPS2_
YRb:__ZN9ShaderLab16SerializedTagMapaSERKS0_
dPh:__Z75RuntimeInvoker_Void_t1841601450_Il2CppObject_Int32_t2071877448_Il2CppObjectPK10MethodInfoPvPS2_
F4d:_SetPropertyUtility_SetStruct_TisFillMethod_t1640962579_m1867757822_gshared
DP:__ZN11UnityEngine15CloudWebService16SessionContainer20RestoreSessionHeaderERKN4core12basic_stringIcNS2_20StringStorageDefaultIcEEEES8_RNS0_13SessionHeaderE
zCd:_DateTime_ToString_m1117481977
M8b:__ZN8Material28ApplyMaterialPropertyDrawersEv
kDg:_GenericTypeParameterBuilder_GetGenericArguments_m277381309
YTi:__ZN24dense_hashtable_iteratorINSt3__24pairIK10KeyWrapperIPK22Il2CppGenericParameterEP11Il2CppClassEES6_N6il2cpp5utils11PointerHashIS4_EEN14dense_hash_mapIS6_S9_SE_NS6_14EqualsComparerINS0_8equal_toIS5_EEEENS0_9allocatorISA_EEE9SelectKeyESJ_SL_E30advance_past_empty_and_deletedEv
EA:__ZN11UnityEngine9Animation27CreateAvatarBindingConstantER9TransformPKN7mecanim9animation14AvatarConstantERNS3_6memory9AllocatorE
ryb:__ZN14SafeBinaryRead21TransferSTLStyleArrayINSt3__26vectorIN30RuntimeInitializeOnLoadManager9ClassInfoE13stl_allocatorIS4_L18MemLabelIdentifier12ELi16EEEEEEvRT_17TransferMetaFlags
XUg:_UnitySerializationHolder_GetObjectData_m2280028722
Evi:_PatternCompiler_EmitFalse_m1188949782
xTg:_UInt64_System_IConvertible_ToDateTime_m2412118561
z8b:__ZN9BlobWriteC2ER13dynamic_arrayIhLj16EE24TransferInstructionFlags19BuildTargetPlatform
F1:__ZN14MessageHandler3GetEv
JZg:_GUISkin_set_verticalScrollbarThumb_m2647835739
Wya:__ZN10DynamicVBO9DrawChunkERK21DynamicVBOChunkHandle17ShaderChannelMaskS3_P17VertexDeclarationPKNS_10DrawParamsEi
hd:_emscripten_glAttachShader
fWb:__Z16tesedgeIntersectP10TESSvertexS0_S0_S0_S0_
XJe:_ReadOnlyCollection_1__ctor_m1539890895_gshared
asa:__ZN9GfxDevice13SetActiveTierE12GraphicsTier
Uje:_Enumerator_System_Collections_IEnumerator_get_Current_m3079057684_AdjustorThunk
Tue:_List_1_System_Collections_ICollection_get_SyncRoot_m1804424478_gshared
kvb:__ZNSt3__26vectorIN4core12basic_stringIcNS1_20StringStorageDefaultIcEEEENS_9allocatorIS5_EEE6assignIPS5_EENS_9enable_ifIXaasr21__is_forward_iteratorIT_EE5valuesr16is_constructibleIS5_NS_15iterator_traitsISC_E9referenceEEE5valueEvE4typeESC_SC_
Gbf:_KeyPairPersistence_get_UserPath_m3433052783
OBe:_Collection_1_ClearItems_m1410275009_gshared
L0e:_StreamWriter__ctor_m2392877680
PGf:__ZL58Decimal_t724701077_CustomAttributesCacheGenerator_MinusOneP21CustomAttributesCache
I5d:_Array_InternalArray__IEnumerable_GetEnumerator_TisKeyframe_t1449471340_m3949799719_gshared
BDb:__Z18Transfer_BlittableI14SafeBinaryReadLb0E11QuaternionfEvRK29SerializationCommandArgumentsR31RuntimeSerializationCommandInfo
pyc:__ZN13BoxCollider2D16CheckConsistencyEv
bWh:__Z45RuntimeInvoker_X509RevocationMode_t2065307963PK10MethodInfoPvPS2_
aOb:__Z18Transfer_BlittableI18StreamedBinaryReadILb0EELb1E12PropertyNameEvRK29SerializationCommandArgumentsR31RuntimeSerializationCommandInfo
m3f:__ZL99MonoBehaviour_t1158329972_CustomAttributesCacheGenerator_MonoBehaviour_set_useGUILayout_m2666356651P21CustomAttributesCache
I_d:_InputField_get_inputType_m2187991661
QT:_tlsf_walk_heap
oef:_PKCS12_Decode_m731190390
ujj:__ZNK15dense_hashtableINSt3__24pairIK10KeyWrapperIP11Il2CppClassES4_EES5_N6il2cpp8metadata16SZArrayClassHashEN14dense_hash_mapIS5_S4_SA_NS5_14EqualsComparerINS9_19SZArrayClassCompareEEENS0_9allocatorIS7_EEE9SelectKeyESE_SG_E10test_emptyERK24dense_hashtable_iteratorIS7_S5_SA_SI_SE_SG_E
tCh:_InternalEnumerator_1_get_Current_m1550231132_gshared
uyi:_Reference_get_IgnoreCase_m2810892634
iVg:_Version_CheckedSet_m76493673
mb:invoke_vif
ddg:__ZL99SendMouseEvents_t3505065032_CustomAttributesCacheGenerator_SendMouseEvents_SetMouseMoved_m532965689P21CustomAttributesCache
nb:invoke_vid
aKj:__ZNSt3__212basic_stringIcNS_11char_traitsIcEENS_9allocatorIcEEE6insertEjPKc
qTf:__ZL67UnverifiableCodeAttribute_t765455733_CustomAttributesCacheGeneratorP21CustomAttributesCache
ob:invoke_vii
q0f:__ZL86Component_t3819376471_CustomAttributesCacheGenerator_Component_SendMessage_m3615678587P21CustomAttributesCache
lkg:__ZL82ScrollRect_t1199013257_CustomAttributesCacheGenerator_m_HorizontalScrollbarSpacingP21CustomAttributesCache
$Xd:_LayoutGroup_get_padding_m1653511445
LHi:_Transform_get_localRotation_m4001487205
A9a:__ZN12TLSAllocatorI14StackAllocatorE16ThreadInitializeEP13BaseAllocator
Lpd:_ArrayList_Sort_m2778059513
rdg:__ZL107StackTraceUtility_t1881293839_CustomAttributesCacheGenerator_StackTraceUtility_SetProjectFolder_m2154926761P21CustomAttributesCache
eYd:_LayoutGroup_SetChildAlongAxis_m2732017156
WZc:__Z41CanvasRenderer_CUSTOM_DisableRectClippingP12Il2CppObject
Hjf:_MD2_Create_m539024737
Rud:_SortedList_get_SyncRoot_m3299704254
kme:_List_1_System_Collections_ICollection_CopyTo_m2020941110_gshared
rvd:_Slot_t2267560602_marshal_pinvoke
ZTh:__Z51RuntimeInvoker_UInt16_t986882611_Single_t2076509932PK10MethodInfoPvPS2_
hog:_SoapAttribute_get_XmlNamespace_m1436066016
hJa:__ZN25SingleBlockMemoryFileDataD0Ev
Cbb:__ZNSt3__26vectorI14ConstantStringNS_9allocatorIS1_EEE6assignINS_11__wrap_iterIPS1_EEEENS_9enable_ifIXaasr21__is_forward_iteratorIT_EE5valuesr16is_constructibleIS1_NS_15iterator_traitsISA_E9referenceEEE5valueEvE4typeESA_SA_
yP:__ZN11UnityEngine15CloudWebService16SessionContainer21ConvertFromFolderTimeERKN4core12basic_stringIcNS2_20StringStorageDefaultIcEEEEPjPt
QEb:__ZNSt3__26vectorI8GUIStyle13stl_allocatorIS1_L18MemLabelIdentifier1ELi16EEE7reserveEj
Jkj:__ZN6il2cpp6icalls8mscorlib6System9Threading6Thread27GetSerializedCurrentCultureEP12Il2CppThread
P7d:_Array_InternalArray__IndexOf_TisUInt32_t2149682021_m3231515987_gshared
nRi:_ListPool_1__cctor_m709904475_gshared
MYh:__Z83RuntimeInvoker_Void_t1841601450_QuaternionU26_t4187826802_QuaternionU26_t4187826802PK10MethodInfoPvPS2_
k_b:__Z31CalculateHierarchyTransformType23TransformAccessReadOnly
A1i:__ZN15dense_hashtableINSt3__24pairIK10KeyWrapperI13dynamic_arrayIPK10Il2CppTypeLj4EEEPFvvEEES8_N6il2cpp8metadata19Il2CppSignatureHashEN14dense_hash_mapIS8_SB_SF_NS8_14EqualsComparerINSE_22Il2CppSignatureCompareEEENS0_9allocatorISC_EEE9SelectKeyESJ_SL_E12resize_deltaEjj
JYb:__Z13RegisterClassI11TimeManagerEvv
KJ:__ZN4FMOD8ChannelI11setPositionEjj
Yyc:__ZN10Collider2D12SetPolygon2DEP9Polygon2D
Bgi:_Component_SendMessage_m913946877
alg:__ZL75ToggleGroup_t1030026315_CustomAttributesCacheGenerator_U3CU3Ef__amU24cache1P21CustomAttributesCache
Tsi:_SynchronizedClientContextSink__ctor_m978504596
B7:__ZN17BaseObjectManager13StaticDestroyEPv
XFi:_TextGenerationSettings_CompareVector2_m592645251
X7f:__ZL137AnimatorControllerPlayable_t4078305555_CustomAttributesCacheGenerator_AnimatorControllerPlayable_INTERNAL_CALL_GetFloatString_m4205749063P21CustomAttributesCache
sdg:__ZL108StackTraceUtility_t1881293839_CustomAttributesCacheGenerator_StackTraceUtility_ExtractStackTrace_m1593581205P21CustomAttributesCache
mDd:_DBNull_System_IConvertible_ToChar_m3344298044
Bff:_X509Certificate_GetObjectData_m3888130484
Vxb:__ZNSt3__26vectorIN15ResourceManager10DependencyE13stl_allocatorIS2_L18MemLabelIdentifier51ELi16EEEC2INS_11__wrap_iterIPS2_EEEET_SB_RKS5_PNS_9enable_ifIXaasr21__is_forward_iteratorISB_EE5valuesr16is_constructibleIS2_NS_15iterator_traitsISB_E9referenceEEE5valueEvE4typeE
wYh:__Z45RuntimeInvoker_IMECompositionMode_t1898275508PK10MethodInfoPvPS2_
nhi:_CustomYieldInstruction_Reset_m3409422382
Tui:_LinkStack_Push_m2660199875
EI:__ZN4FMOD6Reverb13setPropertiesEPK22FMOD_REVERB_PROPERTIES
Bij:__ZN15dense_hashtableINSt3__24pairIK10KeyWrapperIP11Il2CppClassES4_EES5_N6il2cpp8metadata16SZArrayClassHashEN14dense_hash_mapIS5_S4_SA_NS5_14EqualsComparerINS9_19SZArrayClassCompareEEENS0_9allocatorIS7_EEE9SelectKeyESE_SG_E5clearEv
hUa:__ZN9DepthPass13PrepareSubsetEjRK10RenderNodeifRK17ShaderReplaceData
c1g:_Input_get_compositionString_m636835668
ZBi:_X509CertificateCollection_Add_m4008705157
wng:_MonoMethodMessage_set_Uri_m3218581120
b5b:__Z35SetMeshComponentFromArrayFromScriptR4Mesh30InternalScriptingShaderChannel34InternalScriptingVertexChannelTypei17ScriptingArrayPtri
D6b:__Z18ExtractTagThrowingR11ICallString
jga:__ZN4PPtrI6ShaderE8TransferI19StreamedBinaryWriteILb0EEEEvRT_
fCe:_Collection_1_IsFixedSize_m1816795498_gshared
XLa:__ZZ23InitPlayerLoopCallbacksvEN40EarlyUpdatePlayerCleanupCachedDatastruct7ForwardEv
wq:__ZN4core20StringStorageDefaultIcE6assignEPKcj
YYg:_GUIStyleState_GetBackgroundInternal_m439046630
aqj:__ZN15dense_hashtableINSt3__24pairIK10KeyWrapperIP12Il2CppObjectEN6il2cpp2gc9CachedCCWEEES5_NS7_5utils11PointerHashIS3_EEN14dense_hash_mapIS5_S9_SD_NS5_14EqualsComparerINS0_8equal_toIS4_EEEENS0_9allocatorISA_EEE9SelectKeyESI_SK_E3endEv
uyb:__Z14resize_trimmedINSt3__26vectorIi13stl_allocatorIiL18MemLabelIdentifier12ELi16EEEEEvRT_j
NOd:_MouseButtonEventData_ReleasedThisFrame_m482758300
$hj:__ZN15dense_hashtableINSt3__24pairIK10KeyWrapperINS1_IP11Il2CppClassjEEES4_EES6_N6il2cpp8metadata14ArrayClassHashEN14dense_hash_mapIS6_S4_SB_NS6_14EqualsComparerINSA_17ArrayClassCompareEEENS0_9allocatorIS8_EEE9SelectKeyESF_SH_E9copy_fromERKSK_j
Mqd:_ReadOnlyArrayListWrapper_set_Item_m2199017141
K1a:__ZN6Camera6SetFarEf
UBi:_DeriveBytes_DeriveIV_m3343375195
FLc:_UNITY_FT_Init_Class_ft_bitmap_glyph_class
D6c:_RNGCryptoServiceProvider_GetBytes_m167497991
lia:__ZN6prcoreL12RemapGenericI17TexFormatABGR888817TexFormatARGB8888EEvPKNS_9InnerInfoE
qfb:__ZN11GameManager17MainThreadCleanupEv
rki:_AnimatorControllerPlayable_INTERNAL_CALL_GetAnimatorControllerInternal_m239716681
M6i:__ZN6il2cpp6icalls8mscorlib6System18CollectTypeMethodsINS_5utils10functional6FilterINSt3__212basic_stringIcNS7_11char_traitsIcEENS7_9allocatorIcEEEENS4_11StringUtils23CaseInsensitiveComparerEEEEEvP11Il2CppClassPKSH_jRKT_RNS7_6vectorIPK10MethodInfoNSB_ISR_EEEERA65535_b
kBg:_TypeBuilder_get_Assembly_m492491492
$De:_Collection_1_InsertItem_m1225429801_gshared
Ayc:__ZN10Collider2D12AddToManagerEv
FTc:_UNITY_tt_slot_init
o4c:_HMACSHA512__cctor_m1167457383
nPb:__Z25scripting_array_class_get17ScriptingClassPtrj
tpc:__ZL22Transfer_ManagedObjectI9JSONWriteLb1EEvRK29SerializationCommandArgumentsR31RuntimeSerializationCommandInfo
wta:__ZN9GfxDevice20DestroyRenderSurfaceER12ObjectHandleI17RenderSurface_TagP17RenderSurfaceBaseE
L_b:__ZL24PrepareSpriteRenderNodesILb1EEvR35RenderNodeQueuePrepareThreadContext
XGa:__ZN9GfxDevice22UpdateComputeResourcesEjPK9TextureIDPK16TextureDimensionPKijPKjjPK15ComputeBufferIDS7_PK20ComputeBufferCounterjSC_S2_S5_S9_SF_
h2b:__ZN12_GLOBAL__N_15qAsinEff
Tee:_Dictionary_2_Do_ICollectionCopyTo_TisKeyValuePair_2_t3749587448_m2536766696_gshared
B9a:__ZN12TLSAllocatorI14StackAllocatorE13ThreadCleanupEv
TM:__Z18GetAudioManagerPtrv
Lme:_List_1_GetEnumerator_m2837081829_gshared
VWh:__Z67RuntimeInvoker_Void_t1841601450_Int16_t4041245914_Int16_t4041245914PK10MethodInfoPvPS2_
Hxj:__ZThn4_N6il2cpp2vm13ComObjectBase16MarshalInterfaceEP13Il2CppIStreamRK10Il2CppGuidPvjS7_j
_rb:__ZN4Mesh27SwizzleVertexColorsIfNeededEb
hab:__Z27FindActiveTransformWithPathPKc
cPh:__Z63RuntimeInvoker_DSAParameters_t1872138834_BooleanU26_t3168250738PK10MethodInfoPvPS2_
g7f:__ZL151AnimatorControllerPlayable_t4078305555_CustomAttributesCacheGenerator_AnimatorControllerPlayable_INTERNAL_CALL_CrossFadeInFixedTimeInternal_m3528719771P21CustomAttributesCache
Iei:_CanvasGroup_get_alpha_m1304564441
ugb:__ZN12BaseRendererD0Ev
t7a:__Z29StdTemplateConversionFunctionIbyEbPvR14SafeBinaryRead
Agh:_DefaultComparer__ctor_m899694595_gshared
wci:_AsyncOperation_Finalize_m67522446
yVh:__Z56RuntimeInvoker_TimeSpan_t3430258949_TimeSpan_t3430258949PK10MethodInfoPvPS2_
zNa:_UNITY_png_write_info
nWa:__ZNK6Camera7GetNearEv
dya:__ZN7ApiGLES11UnmapBufferEjN2gl12BufferTargetE
utj:__ZN6il2cpp5utilsL24Utf32CharToSurrogatePairEjRA2_Ds
nmb:__Z25GetNextAllowedTextureSizeib13TextureFormat
FV:__ZN20LocalFileSystemWebGL4CopyER13FileEntryDataS1_
$Lb:__Z18Transfer_BlittableI18StreamedBinaryReadILb1EELb1EdEvRK29SerializationCommandArgumentsR31RuntimeSerializationCommandInfo
yR:__ZN19CloudServiceHandler6RetainEv
xFj:__ZN6il2cpp2os9Semaphore4WaitEb
Avc:__ZN15b2FrictionJointD0Ev
qbd:_StrongName_Equals_m67226644
Cgb:__ZN12BaseRenderer20FlattenToRenderQueueER15RenderNodeQueueRK20DeprecatedSourceData
mCg:_FieldBuilder_get_Attributes_m2174064290
p2e:_UnmanagedMemoryStream_get_Length_m587008850
Ska:__Z34scripting_liveness_calculation_endPv
Qvj:__ZN6il2cpp2os6ThreadC2Ev
fcd:_SecurityFrame_InitFromRuntimeFrame_m45195821
iMf:__ZL53TextReader_t1561828458_CustomAttributesCacheGeneratorP21CustomAttributesCache
lBf:_X509Chain_IsSignedWith_m292245392
Ntj:__ZNK6il2cpp2os10SocketImpl12GetLastErrorEv
E3d:_Array_InternalArray__ICollection_Remove_TisDateTime_t693205669_m1275668216_gshared
deh:_Dictionary_2__ctor_m871840915_gshared
$Je:_ReadOnlyCollection_1_System_Collections_Generic_ICollectionU3CTU3E_Remove_m3751131234_gshared
Nqc:__Z18Transfer_BlittableI8JSONReadLb0E8Vector3fEvRK29SerializationCommandArgumentsR31RuntimeSerializationCommandInfo
qqi:_ChannelServices__cctor_m3534779830
Cjj:__ZN6il2cpp2vm6Thread6DetachEP12Il2CppThread
vPc:_Render_Single_Pass
Qyd:_Convert_ToInt16_m416789348
hhd:_EncoderExceptionFallback_Equals_m762170768
GWi:__ZL24UnresolvedVirtualCall_59P12Il2CppObjectS0_aPK10MethodInfo
Dlh:_EqualityComparer_1__cctor_m2666196678_gshared
UWg:_GUIStyle_Init_m3872198731
KA:__ZN7mecanim8skeleton30SkeletonBuildReverseIndexArrayEPiPKiPKNS0_8SkeletonES6_
vic:__Z19GetGUIBlendMaterialv
kuj:__ZN6il2cpp2os10ThreadImpl5SleepEjb
rEi:_X509ExtensionCollection_System_Collections_IEnumerable_GetEnumerator_m2600902401
MEe:_Collection_1_InsertItem_m1073626529_gshared
Kzb:__ZN15FileSystemEntry4MoveERS_23FileSystemCopyMoveFlags
dvf:_ListDictionary_FindEntry_m432748847
JRj:_glBindSampler__wrapper
QNi:_UnityAction_1_Invoke_m3523417209_gshared
Of:_emscripten_set_mouseup_callback
KGa:__ZN9GfxDevice27SetRandomWriteTargetTextureEi9TextureID
GTh:__Z48RuntimeInvoker_Int64_t909078037_SByte_t454417549PK10MethodInfoPvPS2_
N7f:__ZL123AnimatorControllerPlayable_t4078305555_CustomAttributesCacheGenerator_AnimatorControllerPlayable_Play_m2286317581____layer1P21CustomAttributesCache
$Ei:_SpaceAttribute__ctor_m1444406696
OU:__ZNK18ScreenManagerWebGL8GetWidthEv
pMj:dynCall_iiifii
c4i:__ZN6il2cpp2vm13MetadataCache33GetFieldDefaultValueDataFromIndexEi
NXd:_GridLayoutGroup_set_startAxis_m1635162426
OF:__ZN10SampleClipD2Ev
Ysi:_SynchronizationAttribute_EnterContext_m2984912761
MHf:__ZL73Enum_t2459695545_CustomAttributesCacheGenerator_Enum_ToObject_m2601523252P21CustomAttributesCache
nKd:_CultureInfo_construct_internal_locale_from_name_m971766383
juj:__ZN6il2cpp2os10ThreadImpl13SetWaitObjectEPNS0_5posix15PosixWaitObjectE
snd:_Byte_Equals_m368616327_AdjustorThunk
o9d:_Array_InternalArray__ICollection_Add_TisUIVertex_t1204258818_m3869382594_gshared
RD:__Z56AnimationOffsetPlayable_CUSTOM_INTERNAL_CALL_GetPositionR9HPlayableR8Vector3f
$Sc:_cff_cmap_unicode_init
cRa:__ZNSt3__224__buffered_inplace_mergeIRN10vector_mapIiN17InstancedPropInfo12PropertyTypeENS_4lessIiEE13stl_allocatorINS_4pairIiS3_EEL18MemLabelIdentifier1ELi16EEE13value_compareENS_11__wrap_iterIPS8_EEEEvT0_SH_SH_T_NS_15iterator_traitsISH_E15difference_typeESL_PNSK_10value_typeE
GHd:_Enum_ToObject_m2460371738
y9e:_PrimalityTests_Test_m1088386156
n3:__ZN14FileCacherRead13GetFileLengthEv
qkc:__Z36Event_CUSTOM_Internal_SetNativeEvent13Il2Cpp_IntPtr
BIj:_readlink
Lej:__ZN15dense_hashtableINSt3__24pairIK10KeyWrapperINS1_IPK9EventInfoP11Il2CppClassEEEjEES9_17ReflectionMapHashIS8_EN14dense_hash_mapIS9_jSD_NS9_14EqualsComparerINS0_8equal_toIS8_EEEENS0_9allocatorISB_EEE9SelectKeyESI_SK_E12resize_deltaEjj
rde:_Array_Resize_TisVector3_t2243707580_m893658391_gshared
Kyh:_InternalEnumerator_1_System_Collections_IEnumerator_get_Current_m4259662004_AdjustorThunk
Mge:_Array_InternalArray__get_Item_TisKeyframe_t1449471340_m1003508933_gshared
DDj:__ZN6il2cpp8metadata14Il2CppTypeHash4HashEPK10Il2CppType
ief:_StrongName_get_PublicKeyToken_m1968460885
_ub:__ZNK6Sprite9GetBoundsE8Vector2fbb
LPa:__ZNK19RenderEventsContext21CleanupCommandBuffersEv
Fwa:__ZN11ContextGLES6CreateEi
PXe:_BinaryReader_Dispose_m4249456877
Pzf:_X500DistinguishedName_Decode_m3070515374
hEi:_X509CrlEntry_get_Extensions_m1330698752
Vxd:_Double_ToString_m1085043609
OOb:__Z19TransferField_ArrayI18StreamedBinaryReadILb0EE27Converter_SimpleNativeClassI17AnimationCurveTplIfEEEvRK23StaticTransferFieldInfoR31RuntimeSerializationCommandInfoRT0_
jmf:_CipherSuite_createEncryptionCipher_m1926075645
m9a:__ZN14StackAllocator16FrameMaintenanceEb
Xze:_Collection_1_IsSynchronized_m2601980439_gshared
Xcb:__Z18ReadStringFromFilePN4core17string_with_labelILi1EEERKNS_12basic_stringIcNS_20StringStorageDefaultIcEEEE
Q_:__ZNK10GameObject20QueryComponentByTypeEPKN5Unity4TypeE
Zke:_Enumerator_MoveNext_m1367380970_AdjustorThunk
AEg:_OpCode_GetHashCode_m2974727122
kmf:_CipherSuite_createDecryptionCipher_m1118350455
Yvi:_PatternCompiler_EmitReference_m1381860071
UE:__Z78AnimatorControllerPlayable_CUSTOM_INTERNAL_CALL_IsParameterControlledByCurveIDR9HPlayablei
wGd:_Double_System_IConvertible_ToInt16_m4200640326
scc:__Z53Register_UnityEngine_GameObject_get_activeInHierarchyv
GYi:__ZL25UnresolvedVirtualCall_167P12Il2CppObject19Vector2_t2243707579PK10MethodInfo
oDg:_GenericTypeParameterBuilder_get_IsGenericType_m1883522222
WYh:__Z90RuntimeInvoker_Single_t2076509932_Single_t2076509932_Single_t2076509932_Single_t2076509932PK10MethodInfoPvPS2_
SY:__ZL30InitializeCoreScriptingClassesv
XEe:_Collection_1_CheckWritable_m3938993573_gshared
Jg:_glBlitFramebuffer
TKa:__ZN17ArchiveFileSystem5TouchER13FileEntryData
Kqf:_SecurityParameters_set_Cipher_m3888132335
G9e:_BigInteger_GeneratePseudoPrime_m2606361440
uRe:_DateTimeFormatInfo_get_ShortTimePattern_m20923983
oGb:__Z35Transfer_Blittable_SingleValueFieldI14SafeBinaryReadhEvRT_R17GeneralMonoObjectRK23StaticTransferFieldInfo
sjg:__ZL140U3CMouseDragOutsideRectU3Ec__Iterator1_t2599668326_CustomAttributesCacheGenerator_U3CMouseDragOutsideRectU3Ec__Iterator1_Dispose_m2134284531P21CustomAttributesCache
dag:__ZL90Event_t3028476042_CustomAttributesCacheGenerator_Event_Internal_SetNativeEvent_m1899228752P21CustomAttributesCache
f3c:__ZN22BaseUnityConnectClientC2ERN11UnityEngine7Connect20BasePersistentValuesE
GPh:__Z129RuntimeInvoker_Int32_t2071877448_Il2CppObject_Int32_t2071877448_Int32_t2071877448_Il2CppObject_Int32_t2071877448_SByte_t454417549PK10MethodInfoPvPS2_
Xcf:_EncryptedPrivateKeyInfo_get_Algorithm_m2779196942
cog:_RemotingServices_GetRealProxy_m620317996
JUa:__ZN13dynamic_arrayI11CulledLightLj4EE6insertEPS0_PKS0_S4_
rwh:_ArrayReadOnlyList_1_RemoveAt_m2270349795_gshared
T0i:__ZNK15dense_hashtableI10KeyWrapperIPK19Il2CppGenericMethodES4_N6il2cpp8metadata23Il2CppGenericMethodHashEN14dense_hash_setIS4_S7_NS4_14EqualsComparerINS6_26Il2CppGenericMethodCompareEEENSt3__29allocatorIS4_EEE8IdentityESB_SE_E3endEv
XLi:_Predicate_1_Invoke_m2060780095_gshared
_3i:__ZN6il2cpp2vm13MetadataCache23GetInterfaceOffsetIndexEi
Sn:FUNCTION_TABLE_vif
Tn:FUNCTION_TABLE_vid
Un:FUNCTION_TABLE_vii
cla:__Z40scripting_liveness_calculation_from_root18ScriptingObjectPtrPv
qNa:_UNITY_png_create_write_struct
EOh:__Z149RuntimeInvoker_Boolean_t3825574718_Int32_t2071877448_Il2CppObject_Int32_t2071877448_Int32_t2071877448_Il2CppObject_Int32_t2071877448_SByte_t454417549PK10MethodInfoPvPS2_
sda:__ZN7Texture23VirtualRedirectTransferER24GenerateTypeTreeTransfer
MIc:_UNITY_FT_Set_Transform
B0b:__ZNK32RendererMaterialAnimationBinding12SetPPtrValueERKN11UnityEngine9Animation10BoundCurveEi
Hvh:_ArrayReadOnlyList_1_Contains_m1266627404_gshared
M0e:_StreamWriter__ctor_m4268791735
oRj:_glDeleteFramebuffers__wrapper
FYd:_Image_get_overrideSprite_m706080347
Khf:_BigInteger_ModInverse_m1881894572
J5i:__ZN6il2cpp2vm7Runtime17GetDelegateInvokeEP11Il2CppClass
H_i:_Scroller_Start_m2955988917
Hkg:__ZL59Slider_t297367283_CustomAttributesCacheGenerator_m_FillRectP21CustomAttributesCache
spe:_List_1_AddEnumerable_m3541747636_gshared
Agj:__ZN30dense_hashtable_const_iteratorINSt3__24pairIK10KeyWrapperIPK22Il2CppGenericParameterEPK24MonoGenericParameterInfoEES6_N6il2cpp5utils11PointerHashIS4_EEN14dense_hash_mapIS6_SA_SF_NS6_14EqualsComparerINS0_8equal_toIS5_EEEENS0_9allocatorISB_EEE9SelectKeyESK_SM_E30advance_past_empty_and_deletedEv
xnb:__ZN28EnlightenRendererInformation8TransferI14SafeBinaryReadEEvRT_
nOf:__ZL69DefaultDependencyAttribute_t3858269114_CustomAttributesCacheGeneratorP21CustomAttributesCache
PHa:__ZNK15Lz4Decompressor16DecompressMemoryEPKvPjPvS2_
RNc:_UNITY_tt_face_build_cmaps
W5g:_Ray_ToString_m2019179238
BEc:__ZN11Rigidbody2D8TransferI24GenerateTypeTreeTransferEEvRT_
G8a:__ZNSt3__26__treeINS_12__value_typeIN4core12basic_stringIcNS2_20StringStorageDefaultIcEEEEPN16MemoryFileSystem4NodeEEENS_19__map_value_compareIS6_SA_NS_4lessIS6_EELb1EEE13stl_allocatorISA_L18MemLabelIdentifier54ELi16EEE4findIS6_EENS_15__tree_iteratorISA_PNS_11__tree_nodeISA_PvEEiEERKT_
NDd:_Decimal_System_IConvertible_ToType_m3828527724_AdjustorThunk
V_d:_InputField_get_caretPositionInternal_m3011712053
cNc:_UNITY_tt_face_load_os2
zjf:_HMAC_get_Key_m2528863640
JFe:_Collection_1_IsSynchronized_m1366278230_gshared
JTf:__ZL93StringBuilder_t1221177846_CustomAttributesCacheGenerator_StringBuilder_AppendLine_m1686706871P21CustomAttributesCache
RFb:__Z29Transfer_Blittable_ArrayFieldI14SafeBinaryRead8Vector4fEvRT_R9ArrayInfoRK23StaticTransferFieldInfo
b2d:_Array_get_swapper_TisInt32_t2071877448_m2837069166_gshared
Pcj:__ZN6il2cpp2gc19AppendOnlyGCHashMapINSt3__24pairIPK10MethodInfoP11Il2CppClassEEP22Il2CppReflectionMethod17ReflectionMapHashIS9_ENS2_8equal_toIS9_EEE3AddERKS9_SB_
q7g:_RectTransform_INTERNAL_get_rect_m1177342209
aBe:_Collection_1_Clear_m268154422_gshared
fOd:_PointerEventData_IsScrolling_m1971908975
V8f:__ZL53UILineInfo_t3621277874_CustomAttributesCacheGeneratorP21CustomAttributesCache
ZDd:_Decimal_System_IConvertible_ToInt16_m3159038792
wx:__ZN7mecanim9animation12EvaluateClipEPKNS0_4ClipEPKNS0_9ClipInputEPNS0_10ClipMemoryEPNS0_10ClipOutputE
Jnb:__ZN4PPtrI11LightProbesE8TransferI18StreamedBinaryReadILb0EEEEvRT_
Toi:_ComVisibleAttribute__ctor_m1789587486
OHg:_MonoMethodInfo_GetReturnType_m2864247130
y_a:__ZN13RenderManager29SetCurrentCameraAndStackStateEP6CameraP25CameraStackRenderingState
ojj:__ZN15dense_hashtableINSt3__24pairIK10KeyWrapperINS1_IP11Il2CppClassjEEES4_EES6_N6il2cpp8metadata14ArrayClassHashEN14dense_hash_mapIS6_S4_SB_NS6_14EqualsComparerINSA_17ArrayClassCompareEEENS0_9allocatorIS8_EEE9SelectKeyESF_SH_E12resize_deltaEjj
Yh:_JS_WebRequest_Release
aZe:_DirectoryNotFoundException__ctor_m2242202556
YP:__ZN11UnityEngine15CloudWebService14DataErrorEventD0Ev
Sfd:_String_CreateString_m2448464375
SCf:_X509SubjectKeyIdentifierExtension__ctor_m2959112706
DFg:_FieldInfo_get_IsNotSerialized_m2322769148
yXf:__ZL68Math_t2022911894_CustomAttributesCacheGenerator_Math_Max_m2671311541P21CustomAttributesCache
kpj:__ZN6il2cpp8metadata15GenericMetadata7InflateEPK19Il2CppGenericMethodPK20Il2CppGenericContext
yQa:__ZN19ShaderPropertySheet16SetArrayPropertyEN9ShaderLab16FastPropertyNameENS_12PropertyTypeEPKvj
HHg:_MonoGenericCMethod_get_ReflectedType_m2689239043
xjf:_CryptoConvert_ToHex_m3804747475
KFe:_Collection_1_IsFixedSize_m499196375_gshared
YSd:_ColorTween_set_startColor_m3546206870_AdjustorThunk
Ipj:__ZN15dense_hashtableINSt3__24pairIK10KeyWrapperIP12Il2CppObjectEN6il2cpp2gc9CachedCCWEEES5_NS7_5utils11PointerHashIS3_EEN14dense_hash_mapIS5_S9_SD_NS5_14EqualsComparerINS0_8equal_toIS4_EEEENS0_9allocatorISA_EEE9SelectKeyESI_SK_E16reset_thresholdsEv
Z4f:__ZL96Transform_t3275118058_CustomAttributesCacheGenerator_Transform_INTERNAL_set_rotation_m3703763817P21CustomAttributesCache
wGf:__ZL63String_t_CustomAttributesCacheGenerator_String_Split_m394273024P21CustomAttributesCache
VWc:__ZN2UI11CanvasGroup23VirtualRedirectTransferER19StreamedBinaryWriteILb0EE
xBh:_InternalEnumerator_1_get_Current_m4083613828_gshared
Bjc:__ZN8GUIState8EndOnGUIEv
_Kg:_UnicodeEncoding_GetString_m542738941
Qmj:__ZN6il2cpp6icalls8mscorlib6System2IO6MonoIO16get_ConsoleErrorEv
MTc:_UNITY_TT_Get_VMetrics
BYe:_Path_InsecureGetFullPath_m2635272425
Jvd:_Enumerator_Clone_m1124749523
Otg:_RuntimeMethodHandle__ctor_m1162528746
dve:_List_1_AsReadOnly_m4108578222_gshared
gwg:_DSA__ctor_m613430209
A4d:_SetPropertyUtility_SetStruct_TisSingle_t2076509932_m3849235084_gshared
qza:__ZN7Texture21GetMasterTextureLimitEv
_2a:__Z12CanAddScriptR10GameObject17ScriptingClassPtrPS1_S2_
Khj:__ZN6il2cpp2vm10Reflection12HasAttributeEP12Il2CppObjectP11Il2CppClass
OOa:_UNITY_png_write_sRGB
Ssc:__ZN8JSONRead21TransferSTLStyleArrayI13dynamic_arrayI4AABBLj4EEEEvRT_18MemLabelIdentifier17TransferMetaFlags
pNi:_InvokableCall_1__ctor_m121193486_gshared
__:__ZN9ShaderLabL25StaticInitializeShaderLabEPv
Ffh:_Dictionary_2_ContainsKeyValuePair_m3818021458_gshared
U:Math_max
TFe:_Collection_1_System_Collections_IList_Insert_m1511106741_gshared
lXi:__ZL24UnresolvedVirtualCall_92P12Il2CppObjectPK10MethodInfo
T7i:_il2cpp_class_get_methods
EYe:_Path_CanonicalizePath_m383914732
DIh:_Enumerator_System_Collections_IEnumerator_get_Current_m1631145297_gshared
Qpd:_ArrayList_Synchronized_m2395071980
Wvj:__ZN6il2cpp2os6Thread16GetCurrentThreadEv
C2b:__ZN10GameObject13ComponentPair15SetComponentPtrEPN5Unity9ComponentE
j2e:_UnexceptionalStreamWriter_Write_m3206913035
uYb:__Z13RegisterClassI10MeshFilterEvv
$C:__ZNK26AnimatorControllerPlayable24GetAnimatorClipInfoCountEib
ogb:__ZN10TagManager8TransferI19StreamedBinaryWriteILb0EEEEvRT_
KCb:__ZN11PreloadData23VirtualRedirectTransferER18StreamedBinaryReadILb0EE
oxj:__ZN6il2cpp6icalls8mscorlib6System10ReflectionL40il2cpp_class_get_generic_type_definitionEP11Il2CppClass
ewg:_DESTransform_ProcessBlock_m2826669227
CWh:__Z115RuntimeInvoker_Void_t1841601450_Il2CppObject_Int32_t2071877448_Int32_t2071877448_SByte_t454417549_Int32_t2071877448PK10MethodInfoPvPS2_
wUe:_Int16_CompareTo_m3493496879
t2h:__Z36RuntimeInvoker_Direction_t1525323322PK10MethodInfoPvPS2_
T3f:__ZL56RenderTexture_t2666733923_CustomAttributesCacheGeneratorP21CustomAttributesCache
cdg:__ZL56ColorWriteMask_t926634530_CustomAttributesCacheGeneratorP21CustomAttributesCache
Vpb:__ZN6Sprite17MainThreadCleanupEv
tZf:__ZL56OidCollection_t3790243618_CustomAttributesCacheGeneratorP21CustomAttributesCache
FSf:__ZL61SignatureDescription_t89145500_CustomAttributesCacheGeneratorP21CustomAttributesCache
ZAh:_InternalEnumerator_1_MoveNext_m3389738333_AdjustorThunk
aL:__ZN10AudioMixer14UpdateMuteSoloEv
xPa:__Z17GetMonoManagerPtrv
qgi:_Component_GetComponents_m637589504
Jxe:_Stack_1_System_Collections_ICollection_get_SyncRoot_m3151629354_gshared
Smh:_MaskableGraphic_UnityEngine_UI_IClippable_get_gameObject_m954171032
eea:__ZN9ShaderLab10SubProgram7CompileEv
tya:__ZN7ApiGLES16SetPatchVerticesEi
A$e:_MonoIOStat_t1621921065_marshal_pinvoke
xIa:__ZN10MemoryFileC2E18MemLabelIdentifierP14MemoryFileData14FilePermission
kpg:_TrackingServices_NotifyUnmarshaledObject_m1794048369
OTi:__ZN6il2cpp2vm5Class20FromGenericParameterEPK22Il2CppGenericParameter
NQf:__ZL59RemotingServices_t2399536837_CustomAttributesCacheGeneratorP21CustomAttributesCache
_R:__ZN19CloudServiceHandler11FlushEventsEv
Uli:_AnimatorControllerPlayable_INTERNAL_CALL_GetAnimatorClipInfoInternal_m3180917212
$6:__ZN15GlobalCallbacksC2Ev
mbb:__ZN11AssetBundle8TransferI14SafeBinaryReadEEvRT_
mKh:__Z76RuntimeInvoker_Int32_t2071877448_Il2CppObject_Int32_t2071877448_Il2CppObjectPK10MethodInfoPvPS2_
Tbe:_Array_InternalArray__set_Item_TisLabelFixup_t4090909514_m565370771_gshared
WBc:__ZN7b2World10CreateBodyEPK9b2BodyDef
lKc:_UNITY_FT_New_Memory_Face
h_f:__ZL74X509Crl_t1699034837_CustomAttributesCacheGenerator_U3CU3Ef__switchU24map13P21CustomAttributesCache
ctg:_SerializationEntry__ctor_m1619256036_AdjustorThunk
oE:__Z81AnimatorControllerPlayable_CUSTOM_INTERNAL_CALL_GetAnimatorTransitionInfoInternalR9HPlayablei
iMa:__ZZ23InitPlayerLoopCallbacksvEN43PostLateUpdatePlayerSendFrameCompletestruct7ForwardEv
Ara:__ZN26VertexDeclarationCacheGLES24DestroyVertexDeclarationEP17VertexDeclaration
ibd:__Z15CastclassSealedP12Il2CppObjectP11Il2CppClass
mXe:_IntPtr_System_Runtime_Serialization_ISerializable_GetObjectData_m21554269_AdjustorThunk
X1g:_Material_HasProperty_m3175512802
uGb:__Z18Transfer_BlittableI17RemapPPtrTransferLb1EhEvRK29SerializationCommandArgumentsR31RuntimeSerializationCommandInfo
nwj:__ZNSt3__26vectorIjNS_9allocatorIjEEE26__swap_out_circular_bufferERNS_14__split_bufferIjRS2_EE
f1a:__ZN16ReflectionProbes40UpdateRealtimeReflectionProbesTimeslicedEv
$Qi:_ListPool_1_Get_m529219189_gshared
Vrj:__ZNSt3__26__treeINS_12__value_typeIP24Il2CppReflectionAssemblyPvEENS_19__map_value_compareIS3_S5_NS_4lessIS3_EELb1EEENS_9allocatorIS5_EEE16__insert_node_atEPNS_16__tree_node_baseIS4_EERSF_SF_
NDg:_MethodBuilder_GetBaseDefinition_m774166361
lrg:_FormatterConverter__ctor_m3958982477
h0b:__ZN16ReflectionProbes15InitializeClassEv
XCj:__ZN6il2cpp5utils5MatchENSt3__212basic_stringIcNS1_11char_traitsIcEENS1_9allocatorIcEEEEjRKS7_j
dLc:_UNITY_FT_Destroy_Class_psnames_module_class
dxc:__ZNK12b2WheelJoint17GetReactionTorqueEf
P2i:__ZNK15dense_hashtableINSt3__24pairIK10KeyWrapperIPK11Il2CppClassEPKcEES6_N6il2cpp5utils11PointerHashIS3_EEN14dense_hash_mapIS6_S9_SE_NS6_14EqualsComparerINS0_8equal_toIS5_EEEENS0_9allocatorISA_EEE9SelectKeyESJ_SL_E12test_deletedEj
Avi:_MRUList_Evict_m2430323183
DKe:_ReadOnlyCollection_1_System_Collections_Generic_ICollectionU3CTU3E_Remove_m1060547576_gshared
Vqj:__ZN6il2cpp2vm5Image9GetCorlibEv
Y1e:_NullTextWriter_Write_m2306984725
wA:__ZN8Animator13BatchedFKPassERK13dynamic_arrayIP14PlayableOutputLj4EE
srf:_RecordProtocol_ProcessChangeCipherSpec_m3233959862
ggi:_Component_GetComponent_m4225719715
oWd:_Graphic_set_raycastTarget_m1229173591
nee:_Array_Sort_TisVector4_t2243707581_m474199742_gshared
Fpe:_List_1_CheckIndex_m2247532995_gshared
ecg:__ZL93GUIUtility_t3275770671_CustomAttributesCacheGenerator_GUIUtility_set_guiIsExiting_m2362636745P21CustomAttributesCache
T1e:_TextWriter_Write_m576684782
rJi:_Vector3_Max_m2105825185
Vj:_glIsVertexArray
yF:__Z100Register_UnityEngine_Experimental_Director_AnimatorControllerPlayable_INTERNAL_CALL_SetIntegerStringv
Nyb:__ZNSt3__26vectorIN4core12basic_stringIcNS1_20StringStorageDefaultIcEEEE13stl_allocatorIS5_L18MemLabelIdentifier12ELi16EEEC2INS_11__wrap_iterIPS5_EEEET_SE_RKS8_PNS_9enable_ifIXaasr21__is_forward_iteratorISE_EE5valuesr16is_constructibleIS5_NS_15iterator_traitsISE_E9referenceEEE5valueEvE4typeE
wIa:__ZN25SingleBlockMemoryFileDataC2E18MemLabelIdentifierPvjb
Cab:__ZN5Unity9Component8TransferI18StreamedBinaryReadILb0EEEEvRT_
fa:invoke_fff
Kth:_Text_get_fontSize_m3105730761
uOj:b14
Jqf:_TlsServerHello_Update_m1740270635
eWc:__ZN2UI6Canvas17MainThreadCleanupEv
qqh:_ScrollRect_Rebuild_m3423824761
hve:_List_1_Find_m3862454845_gshared
Czc:__ZTv0_n12_N10ClipperLib7ClipperD1Ev
zYf:__ZL85Locale_t4255929015_CustomAttributesCacheGenerator_Locale_GetText_m1445803604____args1P21CustomAttributesCache
pvi:_MatchCollection_get_Item_m2609281578
kFa:__ZN7ApiGLES13CreateProgramEv
fib:__ZN11HaloManager7AddHaloEv
YLg:_UTF8Encoding__ctor_m100325490
Dza:__ZN4crnd12crn_unpackerD2Ev
nth:_StencilMaterial_ClearAll_m1372779118
fk:_emscripten_glTexImage2D
Cng:_ObjRefSurrogate_SetObjectData_m1873902916
xTc:_tt_driver_class_pic_init
KY:__ZN18ScriptingArguments9AddStringEPKc
MAj:_setup_header
eIe:_ReadOnlyCollection_1_System_Collections_IList_get_IsReadOnly_m1367736517_gshared
e0f:__ZL116Component_t3819376471_CustomAttributesCacheGenerator_Component_GetComponentsInParent_m1920178904____includeInactive1P21CustomAttributesCache
bLj:runPostSets
yfg:__ZL93AxisEventData_t1524870173_CustomAttributesCacheGenerator_AxisEventData_set_moveDir_m254243794P21CustomAttributesCache
Ena:__ZL23stbir__resize_arbitraryPvPKviiiS_iiiffffPfiij14stbir_datatype12stbir_filterS4_10stbir_edgeS5_16stbir_colorspace
$qe:_List_1_System_Collections_IList_Insert_m848656350_gshared
kIb:__Z18Transfer_BlittableI24GenerateTypeTreeTransferLb1E8Vector4fEvRK29SerializationCommandArgumentsR31RuntimeSerializationCommandInfo
WUe:_Int16_ToString_m3971652088_AdjustorThunk
qk:_pthread_detach
F4i:__ZN6il2cpp2vm19SocketPollingThread7RunLoopEv
rie:_KeyValuePair_2__ctor_m1640124561_AdjustorThunk
Gui:_MethodDictionary_AllocInternalProperties_m3261295876
Wec:__ZN15DirectorManager20ScheduleGraphDestroyERK14HPlayableGraph
oqa:__ZNSt3__213__stable_sortIRN10vector_mapI17ScriptingClassPtrPKN5Unity4TypeENS_4lessIS2_EENS_9allocatorINS_4pairIS2_S6_EEEEE13value_compareENS_11__wrap_iterIPSB_EEEEvT0_SJ_T_NS_15iterator_traitsISJ_E15difference_typeEPNSM_10value_typeEi
u_f:__ZL77U3CPrivateImplementationDetailsU3E_t1486305139_CustomAttributesCacheGeneratorP21CustomAttributesCache
JSb:__ZN9ShaderLab25SerializedTextureProperty8TransferI24GenerateTypeTreeTransferEEvRT_
mcb:__ZN15dense_hashtableINSt3__24pairIKN4core12basic_stringIcNS2_20StringStorageDefaultIcEEEEP11AssetBundleEES6_20StringHash32FunctionIS6_EN14dense_hash_mapIS6_S9_SC_NS0_8equal_toIS6_EENS0_9allocatorISA_EEE9SelectKeyESF_SH_E12resize_deltaEjj
aWj:_emscripten_glIsShader__wrapper
Cfj:__ZN6il2cpp2gc19AppendOnlyGCHashMapINSt3__24pairIPK14Il2CppAssemblyP11Il2CppClassEEP24Il2CppReflectionAssembly17ReflectionMapHashIS9_ENS2_8equal_toIS9_EEEC2Ev
NOc:_tt_cmap14_char_next
lNf:__ZL69AssemblyTrademarkAttribute_t3740556705_CustomAttributesCacheGeneratorP21CustomAttributesCache
iva:__ZN13GfxDeviceGLES28GetNativeVertexBufferPointerEP9GfxBuffer
vca:__ZN11NamedObject8TransferI18StreamedBinaryReadILb0EEEEvRT_
iEa:__ZNK17GPUSkinPoseBuffer12GetBoneCountEv
xlc:__Z32GUIStyle_Get_Custom_PropFontSizeP12Il2CppObject
Vsg:_DelegatePInvokeWrapper_CallbackHandler_t362827733
UXf:__ZL59ResolveEventArgs_t1859808873_CustomAttributesCacheGeneratorP21CustomAttributesCache
ZNi:_UnityAction_1_BeginInvoke_m3462722079_gshared
Xnj:__ZNK15dense_hashtableINSt3__24pairIK10KeyWrapperIP14Il2CppIUnknownEjEES5_N6il2cpp5utils11PointerHashIS3_EEN14dense_hash_mapIS5_jSB_NS5_14EqualsComparerINS0_8equal_toIS4_EEEENS0_9allocatorIS7_EEE9SelectKeyESG_SI_E12test_deletedEj
vFg:_EventInfo_get_MemberType_m3337516651
yrc:__Z18Transfer_BlittableI8JSONReadLb1EyEvRK29SerializationCommandArgumentsR31RuntimeSerializationCommandInfo
Nk:_emscripten_glMatrixMode
iMj:dynCall_vfii
Sr:__ZN8Animator23VirtualRedirectTransferER18StreamedBinaryReadILb0EE
QMf:__ZL93TypeBuilder_t3308873219_CustomAttributesCacheGenerator_TypeBuilder_GetConstructors_m774120094P21CustomAttributesCache
QZe:_NotSupportedException__ctor_m836173213
mng:_MethodReturnDictionary__ctor_m756139344
sP:__ZN11UnityEngine15CloudWebService14DataDispatcher16PrepareDataBlockERNS0_16SessionContainerE
BFa:__ZN18GfxFramebufferGLES5ClearE13GfxClearFlagsRK10ColorRGBAffib
gwe:_List_1_GetIndex_m2513359832_gshared
Txh:_InternalEnumerator_1__ctor_m967618647_gshared
T7h:__Z62RuntimeInvoker_ParameterModifier_t1820634920_Int32_t2071877448PK10MethodInfoPvPS2_
fOb:__ZL26Transfer_SimpleNativeClassI18StreamedBinaryReadILb0EE10RectOffsetLb0EEvRK29SerializationCommandArgumentsR31RuntimeSerializationCommandInfo
aLc:_UNITY_ft_destroy_default_module_classes
Gne:_List_1_CheckMatch_m1772343151_gshared
TTa:__ZL12DepthPassJobPN21GfxDeviceAsyncCommand10ArgScratchEPKNS_3ArgE
mRb:__ZNSt3__26vectorIN9ShaderLab20SerializedSubProgram16TextureParameterENS_9allocatorIS3_EEE6assignINS_11__wrap_iterIPS3_EEEENS_9enable_ifIXaasr21__is_forward_iteratorIT_EE5valuesr16is_constructibleIS3_NS_15iterator_traitsISC_E9referenceEEE5valueEvE4typeESC_SC_
oXe:_IntPtr_Equals_m1214967011_AdjustorThunk
$te:_List_1_Add_m3591975577_gshared
SZc:__Z55Register_UnityEngine_CanvasGroup_get_ignoreParentGroupsv
WYb:__Z13RegisterClassI19LowerResBlitTextureEvv
Efg:__ZL100PointerEventData_t1599784723_CustomAttributesCacheGenerator_U3CpointerPressRaycastU3Ek__BackingFieldP21CustomAttributesCache
Rm:FUNCTION_TABLE_iiiiiiiiiiii
Ihb:__ZN16GraphicsSettingsD0Ev
_6a:__Z29StdTemplateConversionFunctionIshEbPvR14SafeBinaryRead
iTj:_pthread_mutex_init__wrapper
Y$a:__ZN15LODGroupManager21CalculateLODDataArrayERK13LODParametersPK6Cameraf
n:cttz_i8
qRc:_UNITY_FT_GlyphLoader_Add
Yxh:_InternalEnumerator_1_System_Collections_IEnumerator_get_Current_m1004764375_AdjustorThunk
S5f:__ZL108Physics2D_t2540166467_CustomAttributesCacheGenerator_Physics2D_GetRayIntersectionAll_m253330691____distance1P21CustomAttributesCache
yRe:_DateTimeFormatInfo_get_FullDateTimePattern_m2607507656
hrf:_HttpsClientStream_RaiseServerCertificateValidation_m3356770426
VIf:__ZL73Il2CppArray_CustomAttributesCacheGenerator_Array_BinarySearch_m3052238307P21CustomAttributesCache
AFd:_DelegateSerializationHolder__ctor_m3915060553
Qyb:__ZN15SerializeTraitsINSt3__26vectorIN30RuntimeInitializeOnLoadManager9ClassInfoE13stl_allocatorIS3_L18MemLabelIdentifier12ELi16EEEEE8TransferI24GenerateTypeTreeTransferEEvRS7_RT_
Hee:_Array_swap_TisUIVertex_t1204258818_TisUIVertex_t1204258818_m1163375424_gshared
Jl:_emscripten_glViewport
zXb:__Z21GenerateTilingAreaJobP22GenerateTilingAreaInfoj
uxj:__ZN6il2cpp6icalls8mscorlib6System15MonoCustomAttrs17IsDefinedInternalEP12Il2CppObjectP20Il2CppReflectionType
Krb:__ZN4Mesh21UnswizzleVertexColorsEb
g8:__ZN30dense_hashtable_const_iteratorINSt3__24pairIKN4core12basic_stringIcNS2_20StringStorageDefaultIcEEEEP11AssetBundleEES6_20StringHash32FunctionIS6_EN14dense_hash_mapIS6_S9_SC_NS0_8equal_toIS6_EENS0_9allocatorISA_EEE9SelectKeyESF_SH_EppEv
yqf:_TlsServerSettings_set_CertificateTypes_m264196087
hzh:_InternalEnumerator_1__ctor_m4150855019_gshared
CCd:_DateTime_ToString_m2276663647_AdjustorThunk
uTc:_cff_parse_font_bbox
t9b:__Z35Application_Get_Custom_PropIsEditorv
vB:__GLOBAL__sub_I_runtime_animation2_lump_cpp
Owb:__ZN14PlayerSettings23VirtualRedirectTransferER18StreamedBinaryReadILb0EE
Phe:_KeyValuePair_2__ctor_m3201181706_AdjustorThunk
QFj:__ZN6il2cpp2os5Event5ResetEv
wHe:_ReadOnlyCollection_1_System_Collections_IList_Insert_m1130110335_gshared
Zli:_AnimatorControllerPlayable_GetCurrentAnimatorClipInfoCount_m335090574
Yoj:__ZN6il2cpp8metadata15GenericMetadata17InflateParametersEPK13ParameterInfohPK20Il2CppGenericContextb
zWe:_Int64_System_IConvertible_ToUInt32_m850395426_AdjustorThunk
p0:__ZN18AwakeFromLoadQueue28InvokePersistentManagerAwakeEPNS_4ItemEj17AwakeFromLoadMode
b3f:__ZL93MonoBehaviour_t1158329972_CustomAttributesCacheGenerator_MonoBehaviour_IsInvoking_m1469271462P21CustomAttributesCache
Kci:_PCMReaderCallback_Invoke_m3610389815
l4c:_HMACSHA512__ctor_m2390736870
Su:__ZNK17AnimationPlayable27GetNextCompatibleDescendantEi
qs:__ZN8Animator20ProcessAnimationsJobEPNS_11AnimatorJobEj
Lub:__ZN4PPtrI6SpriteE8TransferI18StreamedBinaryReadILb0EEEEvRT_
WBg:_TypeBuilder_GetInterfaces_m1818658502
GQe:_NumberFormatter_AppendIntegerString_m868842252
yhf:_BigInteger_op_Equality_m2683055762
c9:__Z25SetNeedToPerformRenderingb
aIg:_MonoMethod_GetPseudoCustomAttributes_m466965107
Uxi:__ZN21InterfaceFuncInvoker0IP19LinkRef_t2090853131E6InvokeEjP11Il2CppClassP12Il2CppObject
KXa:__ZNSt3__227__insertion_sort_incompleteIR23CompareReflectionProbesP31RuntimeReflectionProbeBlendInfoEEbT0_S5_T_
gUa:__ZN14qsort_internal30FindAndMovePivotToLastPositionIP15RODataDepthPassi17ROSorterDepthPassEEvT_S4_T0_T1_
x8g:_ResourceRequest_t2560315377_marshal_pinvoke
m9g:_Enumerator_System_Collections_IDictionaryEnumerator_get_Value_m3005608231_gshared
$Vi:__ZL24UnresolvedVirtualCall_26P12Il2CppObjectS0_iiPK10MethodInfo
hmh:_MaskUtilities_NotifyStencilStateChanged_m1527407683
d0a:__ZN12CullingGroup10SendEventsEPK17CullingGroupEventj
gbf:_DSAManaged_GenerateKeyPair_m2711647034
K5a:__ZN13sorted_vectorINSt3__24pairIN4core12basic_stringIcNS2_20StringStorageDefaultIcEEEES6_EEN10vector_mapIS6_S6_27compare_tstring_insensitiveIS6_E13stl_allocatorIS7_L18MemLabelIdentifier37ELi16EEE13value_compareESD_E9erase_oneIS6_EEjRKT_
pob:__ZThn32_NK8Renderer8GetLayerEv
T8d:_Array_InternalArray__ICollection_Add_TisResourceCacheItem_t333236149_m1151081240_gshared
jLe:_ReadOnlyCollection_1_System_Collections_Generic_ICollectionU3CTU3E_get_IsReadOnly_m2197226755_gshared
ezd:_Convert_ToInt32_m2209788057
yrj:__ZN30dense_hashtable_const_iteratorINSt3__24pairIK10KeyWrapperINS1_IPKcS4_EEEiEES6_24NamespaceAndNamePairHashN14dense_hash_mapIS6_iS9_NS6_14EqualsComparerI26NamespaceAndNamePairEqualsEENS0_9allocatorIS8_EEE9SelectKeyESD_SF_E30advance_past_empty_and_deletedEv
Hqg:_SoapServices_GetXmlTypeForInteropType_m3821579913
Flh:_EqualityComparer_1_System_Collections_IEqualityComparer_Equals_m3601790950_gshared
Vbg:__ZL117GUIStyle_t1799908754_CustomAttributesCacheGenerator_GUIStyle_INTERNAL_CALL_Internal_GetCursorPixelPosition_m562482816P21CustomAttributesCache
$Tj:_emscripten_glTexParameterfv__wrapper
Gyi:_CaptureAssertion_IsComplex_m1433259302
Y4g:_Physics2D_INTERNAL_CALL_Internal_Raycast_m489831109
DYi:__ZL25UnresolvedVirtualCall_164P12Il2CppObject20UIVertex_t1204258818S1_PK10MethodInfo
K8i:_il2cpp_method_get_param_count
lXb:__ZN10systeminfo19ISOToSystemLanguageERN4core12basic_stringIcNS0_20StringStorageDefaultIcEEEE
vej:__ZNK15dense_hashtableINSt3__24pairIK10KeyWrapperINS1_IPK12PropertyInfoP11Il2CppClassEEEjEES9_17ReflectionMapHashIS8_EN14dense_hash_mapIS9_jSD_NS9_14EqualsComparerINS0_8equal_toIS8_EEEENS0_9allocatorISB_EEE9SelectKeyESI_SK_E3endEv
DEc:__ZN11Rigidbody2D8TransferI19StreamedBinaryWriteILb0EEEEvRT_
hGj:__ZN6il2cpp8metadata26Il2CppGenericMethodCompare6EqualsEPK19Il2CppGenericMethodS4_
$aa:__ZNSt3__26vectorIP10MemoryPool13stl_allocatorIS2_L18MemLabelIdentifier72ELi16EEE21__push_back_slow_pathIKS2_EEvRT_
kHi:_TouchScreenKeyboard_get_active_m1442597648
DZf:__ZL68Uri_t19570940_CustomAttributesCacheGenerator_U3CU3Ef__switchU24map15P21CustomAttributesCache
MPc:_ps_dimension_done
AQd:_LayoutRebuilder_MarkLayoutForRebuild_m640589351
WVc:__Z46Register_UnityEngine_TextGenerator_Dispose_cppv
hOd:_PointerEventData_get_pressEventCamera_m724559964
xad:_String_IndexOfUnchecked_m3356721554
cnb:__ZN16LightmapSettings8TransferI14SafeBinaryReadEEvRT_
PAa:__ZN17BufferManagerGLES13ReleaseBufferEP14DataBufferGLES
wNh:__Z94RuntimeInvoker_Int32_t2071877448_Il2CppObject_Int32_t2071877448_Int32_t2071877448_Il2CppObjectPK10MethodInfoPvPS2_
wrc:__Z18Transfer_BlittableI8JSONReadLb1EjEvRK29SerializationCommandArgumentsR31RuntimeSerializationCommandInfo
dkg:__ZL63ScrollRect_t1199013257_CustomAttributesCacheGenerator_m_InertiaP21CustomAttributesCache
OBi:_PKCS12_Decrypt_m1557069392
auh:_VertexHelper_AddUIVertexQuad_m280792808
nyf:_WebHeaderCollection_ToString_m1246460752
wzh:_InternalEnumerator_1_System_Collections_IEnumerator_get_Current_m2842514953_AdjustorThunk
Jni:_Font_get_fontSize_m1732593415
dZi:__ZL25UnresolvedVirtualCall_192P12Il2CppObject19DateTime_t693205669S1_PK10MethodInfo
jp:stackSave
gQc:_ps_dimension_end
Wdc:__Z41Register_UnityEngine_Mesh_Internal_Createv
C8a:__ZN16MemoryFileSystem5TouchER13FileEntryData
iub:__ZN14SpriteRenderer23VirtualRedirectTransferER24GenerateTypeTreeTransfer
Woj:__ZNK15dense_hashtableI10KeyWrapperIP18Il2CppGenericClassES3_N6il2cpp8metadata22Il2CppGenericClassHashEN14dense_hash_setIS3_S6_NS3_14EqualsComparerINS5_25Il2CppGenericClassCompareEEENSt3__29allocatorIS3_EEE8IdentityESA_SD_E12test_deletedERK30dense_hashtable_const_iteratorIS3_S3_S6_SF_SA_SD_E
ayf:_ServicePointManager_get_SecurityProtocol_m1445189298
O4c:_MACTripleDES_Initialize_m1318099802
lkf:_MD5SHA1_VerifySignature_m507888141
Fmd:_Byte_System_IConvertible_ToChar_m4188836679
gRe:_NumberFormatter_InitDecHexDigits_m2036076025
R9g:_Enumerator_get_CurrentKey_m3839846791_AdjustorThunk
hsc:__ZN8JSONRead21TransferSTLStyleArrayI13dynamic_arrayIaLj1EEEEvRT_18MemLabelIdentifier17TransferMetaFlags
Q1a:__ZN6Camera9SetAspectEf
fTd:_ColorTween_get_ignoreTimeScale_m641454126_AdjustorThunk
xa:invoke_viiffiii
FHe:_ReadOnlyCollection_1_Contains_m1800950533_gshared
Sgg:__ZL79TouchInputModule_t2561058385_CustomAttributesCacheGenerator_m_ForceModuleActiveP21CustomAttributesCache
rVj:_emscripten_glBindVertexArray__wrapper
Pjf:_MD4__ctor_m2366413460
Fhi:_Display__ctor_m563295973
$bg:__ZL97GUIStyle_t1799908754_CustomAttributesCacheGenerator_GUIStyle_Internal_CalcMinMaxWidth_m3660306863P21CustomAttributesCache
ofh:_Dictionary_2_InitArrays_m435313205_gshared
LF:__ZN10ObjectPoolIN4FMOD3DSPENS0_4DSPIEE7GetFreeEi
M2a:__ZN9Transform37InitializeTransformHierarchyRecursiveER18TransformHierarchyRii
j_b:__Z34DefaultPrepareDispatchBoundsUpdateR13RendererScene18MemLabelIdentifier
pWd:_Graphic_get_useLegacyMeshGeneration_m1366444625
$xf:_ServicePointManager_get_CheckCertificateRevocationList_m4009410230
Oig:__ZL65InputField_t1631627530_CustomAttributesCacheGenerator_m_InputTypeP21CustomAttributesCache
ZWi:__ZL24UnresolvedVirtualCall_78P12Il2CppObjectPK10MethodInfo
v9e:_ModulusRing_Pow_m1137250399
PFh:_InternalEnumerator_1_MoveNext_m2410670600_AdjustorThunk
jtf:_SslStreamBase_resetBuffer_m3028042362
aQa:__ZN17MeshRenderingData4InitEP4MeshS1_iP15SharedGfxBufferS3_
INi:_InvokableCall_2_Find_m1763382885_gshared
oKe:_ReadOnlyCollection_1_System_Collections_ICollection_get_SyncRoot_m2779904122_gshared
Sjh:_EqualityComparer_1_System_Collections_IEqualityComparer_Equals_m1682986002_gshared
mtd:_Hashtable__cctor_m2952659675
ACf:_X509ChainStatus__ctor_m3628359961_AdjustorThunk
pce:_Array_InternalArray__set_Item_TisUICharInfo_t3056636800_m1953167516_gshared
Nad:_Evidence_get_HostEvidenceList_m2095478124
dhc:__Z57Register_UnityEngine_Transform_INTERNAL_set_localPositionv
qnf:_Context_Clear_m4000337070
vva:__ZN13GfxDeviceGLES26SetRandomWriteTargetBufferEi15ComputeBufferID
kFf:_IntervalCollection_Normalize_m538796191
Ovd:_Console_SetEncodings_m342145566
uHi:_TrackedReference_op_Equality_m3491334086
gWd:_FontUpdateTracker_UntrackText_m3827316510
jcb:__ZN18AssetBundleManager19RegisterAssetBundleEP11AssetBundle
xdj:__ZN6il2cpp2gc19AppendOnlyGCHashMapINSt3__24pairIPK11Il2CppImageP11Il2CppClassEEP22Il2CppReflectionModule17ReflectionMapHashIS9_ENS2_8equal_toIS9_EEE10CopyValuesEPv
Bge:_Array_InternalArray__get_Item_TisSingle_t2076509932_m1495809753_gshared
gce:_Array_InternalArray__set_Item_TisAnimatorClipInfo_t3905751349_m978873279_gshared
F6b:__ZNK11ICallString6ToUTF8Ev
Eyi:_CaptureAssertion_get_Alternate_m2729005740
Ryj:_GC_number_stack_black_listed
ioj:__ZN24dense_hashtable_iteratorINSt3__24pairIK10KeyWrapperIP14Il2CppIUnknownEjEES5_N6il2cpp5utils11PointerHashIS3_EEN14dense_hash_mapIS5_jSB_NS5_14EqualsComparerINS0_8equal_toIS4_EEEENS0_9allocatorIS7_EEE9SelectKeyESG_SI_E30advance_past_empty_and_deletedEv
Jyg:_Default_SelectMethod_m3081239996
Bfa:__ZN18UnityPropertySheet11UnityTexEnvC2Ev
D8b:__ZNSt3__214__split_bufferIPN9BlobWrite11TypeContextENS_9allocatorIS3_EEE10push_frontERKS3_
Cs:__ZN8Animator17ApplyOnAnimatorIKEiRNS_11AnimatorJobE
u3:__ZN12FileAccessor4ReadEyyPvPy
bea:__ZN13dynamic_arrayI16ShaderKeywordSetLj4EE6insertEPS0_PKS0_S4_
fPb:__Z29Transfer_Blittable_ArrayFieldI18StreamedBinaryReadILb0EE11QuaternionfEvRT_R9ArrayInfoRK23StaticTransferFieldInfo
Hui:_MethodDictionary_IsOverridenKey_m3922224650
Bud:_SyncHashtable_Contains_m3042906549
Rwe:_List_1_System_Collections_IList_set_Item_m4016273526_gshared
RCf:_X509KeyUsageExtension_CopyFrom_m931530012
p1a:__ZN13RenderTexture9SetHeightEi
yjb:__ZN16LevelGameManager8TransferI24GenerateTypeTreeTransferEEvRT_
bgi:_Color32__ctor_m1932627809_AdjustorThunk
Xtf:_SslStreamBase_Read_m1036897444
Xnh:_RectMask2D_PerformClipping_m1232012832
Xmj:__ZN6il2cpp6icalls8mscorlib6System2IO6MonoIO17GetFileAttributesEP12Il2CppStringPi
yah:_Transform_1_Invoke_m4020530914_gshared
sOc:_tt_cmap8_char_index
iWb:__Z14tessMeshDeleteP8TESSmeshP12TESShalfEdge
eZ:__Z24scripting_class_get_name17ScriptingClassPtr
n5:__ZN13RuntimeStaticI15GUIEventManagerLb0EE13StaticDestroyEPv
FCa:__ZN7ApiGLES14TextureSamplerEjj17TextureFilterMode15TextureWrapModeifb18ShadowSamplingModeN2gl17TextureSrgbDecodeE
n3b:__ZN15DirectorManager18ScheduleGraphStartERK14HPlayableGraph
$Eb:__Z29Transfer_Blittable_ArrayFieldI14SafeBinaryReadjEvRT_R9ArrayInfoRK23StaticTransferFieldInfo
_di:_Camera_FireOnPostRender_m94860165
uzb:__ZN23PreloadManagerOperationD0Ev
le:_emscripten_set_keydown_callback
Ytd:_Enumerator_get_Value_m3684748062
pgb:__ZN19StreamedBinaryWriteILb0EE21TransferSTLStyleArrayINSt3__26vectorI17SortingLayerEntryNS2_9allocatorIS4_EEEEEEvRT_17TransferMetaFlags
lSg:_UInt32_Parse_m3371984903
C3:__ZN12FileAccessorC2Ev
C$h:__Z52RuntimeInvoker_Void_t1841601450_ColorU26_t3402129837PK10MethodInfoPvPS2_
rDi:_X509CertificateCollection_Compare_m1014334435
E2a:__ZN9Transform35SetLocalPositionWithoutNotificationERKN4math7_float3E
swi:_PatternLinkStack_GetCurrent_m2994645935
ehb:__ZN6Camera8TransferI19StreamedBinaryWriteILb0EEEEvRT_
xOe:_Comparison_1__ctor_m2929820459_gshared
Pmi:_AnimatorControllerPlayable_PlayInFixedTime_m2629510873
kti:_AsyncResult__ctor_m1183194429
sB:__ZN4PPtrI13MonoBehaviourE8TransferI18StreamedBinaryReadILb0EEEEvRT_
Jui:_MethodDictionary_set_Item_m3475146889
j6h:__Z54RuntimeInvoker_Void_t1841601450_LabelFixup_t4090909514PK10MethodInfoPvPS2_
TQf:__ZL62WellKnownObjectMode_t2630225581_CustomAttributesCacheGeneratorP21CustomAttributesCache
quh:_Toggle_PlayEffect_m3950629415
D4d:_SetPropertyUtility_SetStruct_TisColorBlock_t2652774230_m2085520896_gshared
g4h:__Z69RuntimeInvoker_Void_t1841601450_Int32_t2071877448_Vector3_t2243707580PK10MethodInfoPvPS2_
sCb:__Z39WriteQueueForTransferSignatureIntoCacheRK31TransferFunctionScriptingTraitsRK24TransferRequestSignature17ScriptingClassPtrR23CachedSerializationDataRb
ama:__ZN13RenderManager18UpdateAllRenderersEv
m_i:_U3CSpawnObsU3Ec__Iterator0_MoveNext_m3744748990
H$c:__ZN22BaseUnityConnectClient30OnEnteringStatePausedOrStoppedEv
$zc:__ZN10ClipperLib7Clipper18SwapPositionsInAELEPNS_5TEdgeES2_
yEe:_Collection_1_System_Collections_ICollection_get_SyncRoot_m2157752542_gshared
b2i:__ZN13dynamic_arrayIPK10Il2CppTypeLj4EE6assignEPKS2_S5_
eej:__ZN15dense_hashtableINSt3__24pairIK10KeyWrapperINS1_IPK12PropertyInfoP11Il2CppClassEEEjEES9_17ReflectionMapHashIS8_EN14dense_hash_mapIS9_jSD_NS9_14EqualsComparerINS0_8equal_toIS8_EEEENS0_9allocatorISB_EEE9SelectKeyESI_SK_E12resize_deltaEjj
Rx:__ZN7mecanim5human12HumanPoseAddERNS0_9HumanPoseERKS1_S4_
E6h:__Z76RuntimeInvoker_Void_t1841601450_Int32_t2071877448_KeyValuePair_2_t3716250094PK10MethodInfoPvPS2_
XNi:_UnityAction_1__ctor_m2836997866_gshared
lbi:_Animator_ResetTrigger_m865269317
dVf:__ZL64AssemblyLoadEventArgs_t4233815743_CustomAttributesCacheGeneratorP21CustomAttributesCache
CDe:_Collection_1_IsFixedSize_m218241296_gshared
t2a:__Z24MergeTransformComponentsR9TransformS0_b
Xci:_DelegatePInvokeWrapper_AudioConfigurationChangeHandler_t3743753033
z$e:_MonoIO_get_PathSeparator_m2635828107
Sqg:_TypeInfo_get_TypeName_m1722081275
Wuc:__ZN15b2CircleContactD0Ev
P4e:_MonoType_get_Name_m865859211
QJd:_CultureInfo__cctor_m2290268677
Qvh:_ArrayReadOnlyList_1_System_Collections_IEnumerable_GetEnumerator_m3039869667_gshared
ied:_String_Trim_m3982520224
Ppg:_RemotingConfiguration__cctor_m2129988840
TBe:_Collection_1_Insert_m44548038_gshared
hGh:_InternalEnumerator_1_MoveNext_m4175772187_AdjustorThunk
PHf:__ZL42Il2CppArray_CustomAttributesCacheGeneratorP21CustomAttributesCache
wxj:__ZN6il2cpp2vm13ComObjectBase19GetRuntimeClassNameEPP15Il2CppHString__
Tj:_emscripten_glVertexAttribPointer
gka:__ZN14PreloadManager26UpdatePreloadingSingleStepENS_21UpdatePreloadingFlagsEi
Q1g:_Material__ctor_m1440882780
s8c:_SHA512Managed_Initialize_m891287980
X_h:__Z82RuntimeInvoker_Boolean_t3825574718_Il2CppObject_TextGenerationSettings_t2543476768PK10MethodInfoPvPS2_
$ad:_SecurityException__ctor_m1484114982
Qqi:_SinkProviderData_get_Children_m100594762
YDi:_X509Crl_GetHashName_m183504634
sjd:_Array_GetValue_m1507415734
kfc:__Z57Register_UnityEngine_RectTransform_INTERNAL_set_anchorMinv
WPe:_Object_MemberwiseClone_m2655589444
JIe:_ReadOnlyCollection_1_System_Collections_IList_get_Item_m375043207_gshared
Fha:__ZN6prcoreL25inner_stretch_i8_bilinearEPKNS_9InnerInfoE
QQ:__ZN11UnityEngine15CloudWebService13WWWRestClient17GetResponseStatusEv
$Ye:_DirectoryInfo_ToString_m4208086799
jIg:_MonoMethod_get_IsGenericMethod_m4276550811
Lah:_Transform_1_BeginInvoke_m3826027984_gshared
_ai:_AnimationEvent_set_time_m2162176572
OP:__ZN11UnityEngine15CloudWebService16SessionContainer24GetSessionHeaderJsonDataERKN4core12basic_stringIcNS2_20StringStorageDefaultIcEEEERNS2_13StringBuilderE
gyd:_Decimal_op_Implicit_m2149927308
a5:__ZN13RuntimeStaticI21AssetReferenceStorageLb0EE13StaticDestroyEPv
_Rg:_UInt16_System_IConvertible_ToUInt32_m1864968312
Itj:__ZN6il2cpp6icalls8mscorlib6System9AppDomain22InternalGetProcessGuidEP12Il2CppString
bRc:_cf2_builder_moveTo
Ebf:_KeyPairPersistence_get_UseMachineKeyStore_m560802076
kye:_Collection_1_CopyTo_m1840908033_gshared
LIh:_Enumerator_System_Collections_IDictionaryEnumerator_get_Entry_m345330700_AdjustorThunk
kRj:_glBindRenderbuffer__wrapper
A6i:__ZNSt3__214__split_bufferIP9FieldInfoRNS_9allocatorIS2_EEEC2EjjS5_
qKd:_AbstractEventData__ctor_m3586111519
EIb:__Z18Transfer_BlittableI24GenerateTypeTreeTransferLb1EjEvRK29SerializationCommandArgumentsR31RuntimeSerializationCommandInfo
Kjf:_MD2Managed_Padding_m410163267
Tdj:__ZNK15dense_hashtableINSt3__24pairIK10KeyWrapperINS1_IPK11Il2CppImageP11Il2CppClassEEEjEES9_17ReflectionMapHashIS8_EN14dense_hash_mapIS9_jSD_NS9_14EqualsComparerINS0_8equal_toIS8_EEEENS0_9allocatorISB_EEE9SelectKeyESI_SK_E10test_emptyERK30dense_hashtable_const_iteratorISB_S9_SD_SM_SI_SK_E
Luh:_Toggle_UnityEngine_UI_ICanvasElement_get_transform_m4177274032
Uib:__ZN11ColorRGBA328TransferI14SafeBinaryReadEEvRT_
iAb:__ZN24RingBufferMemoryFileData4LockEPPv
x9g:_Enumerator_Dispose_m401572848_AdjustorThunk
fdi:_Bounds__ctor_m1202659404_AdjustorThunk
F8g:_Rigidbody2D_INTERNAL_get_velocity_m3018296454
Qf:_emscripten_glClearDepth
pkb:__ZN8Playable12SetPlayStateE9PlayState
i9h:__Z70RuntimeInvoker_Boolean_t3825574718_Il2CppObject_BooleanU26_t3168250738PK10MethodInfoPvPS2_
xpb:__ZN14SafeBinaryRead21TransferSTLStyleArrayINSt3__26vectorIN15QualitySettings14QualitySettingENS1_9allocatorIS4_EEEEEEvRT_17TransferMetaFlags
Kee:_Array_swap_TisVector2_t2243707579_m3359959735_gshared
oZe:_File_OpenText_m4058508963
mxa:__ZN7ApiGLES13CreateTextureEjN2gl9TexFormatEiiiii
IWh:__Z54RuntimeInvoker_Double_t4078015681_Interval_t2354235237PK10MethodInfoPvPS2_
zwb:__ZNSt3__26vectorINS_4pairIPKN5Unity4TypeE7Hash128EENS_9allocatorIS7_EEE8__appendEj
Tqg:_WellKnownClientTypeEntry__ctor_m670594074
$hg:__ZL61FontData_t2614388407_CustomAttributesCacheGenerator_m_MinSizeP21CustomAttributesCache
xij:__ZN15dense_hashtableINSt3__24pairIK10KeyWrapperIP11Il2CppClassES4_EES5_N6il2cpp8metadata16SZArrayClassHashEN14dense_hash_mapIS5_S4_SA_NS5_14EqualsComparerINS9_19SZArrayClassCompareEEENS0_9allocatorIS7_EEE9SelectKeyESE_SG_EC2ERKSJ_j
yBd:_DateTime_System_IConvertible_ToSingle_m3927769066_AdjustorThunk
GSc:_cff_font_load
lIi:_Enumerator_Reset_m950879083
prf:_RecordProtocol_SendRecord_m2977889250
j9b:__Z13IsPathCreatedRKN4core12basic_stringIcNS_20StringStorageDefaultIcEEEE
Kna:__ZL22stbir__encode_scanlineP11stbir__infoiPvPfiii
UGc:__ZN20QuadTreeNodeRenderer13StaticDestroyEPv
XZb:__ZN9Transform12CleanupClassEv
qCj:__ZN6il2cpp6icalls8mscorlib6System9Threading16NativeEventCalls19CloseEvent_internalE12Il2CppIntPtr
Ot:__ZN11UnityEngine9Animation33SetGenericTransformPropertyValuesERKNS0_30AnimatorGenericBindingConstantERKN7mecanim10ValueArrayEP9Transformb
onf:_ClientContext_set_ClientHelloProtocol_m2246603449
pKc:_UNITY_FT_Set_Pixel_Sizes
E0d:_U3CMouseDragOutsideRectU3Ec__Iterator1_MoveNext_m2845491958
_Rb:__ZNSt3__26vectorIN9ShaderLab19SerializedSubShaderENS_9allocatorIS2_EEE26__swap_out_circular_bufferERNS_14__split_bufferIS2_RS4_EE
P_h:__Z87RuntimeInvoker_Void_t1841601450_PlayableHandleU26_t3483893774_QuaternionU26_t4187826802PK10MethodInfoPvPS2_
wee:_Array_swap_TisAnimatorClipInfo_t3905751349_TisAnimatorClipInfo_t3905751349_m1375833338_gshared
rPd:_StandaloneInputModule_IsModuleSupported_m623598506
Bjj:__ZN6il2cpp2vmL24thread_cleanup_on_cancelEPv
iPh:__Z31RuntimeInvoker_Byte_t3683104436PK10MethodInfoPvPS2_
_Jg:_ResourceReader_Close_m3256966401
Xug:_SByte_ToString_m4105923225_AdjustorThunk
Seb:_LZ4_compress_generic
Xsg:_StreamingContext_t1417235061_marshal_pinvoke_cleanup
UJd:_CultureInfo_ConstructCurrentUICulture_m3363349599
kqb:__ZN13dynamic_arrayI7SubMeshLj4EE18resize_initializedEjRKS0_12ResizePolicy
olg:__ZL75CanvasScaler_t2574720772_CustomAttributesCacheGenerator_m_FallbackScreenDPIP21CustomAttributesCache
m4e:_MonoType_GetEvent_m4160342003
Hnh:_RawImage_set_texture_m2400157626
OSi:_PrimeHelper_ToPrime_m1606935350_gshared
fjb:__Z30ProcessDynamicBatchGeometryJobP25DynamicVBOGeometryJobDataj
Pjh:_EqualityComparer_1__ctor_m81618677_gshared
QUa:__ZNSt3__27__sort4IRNS_6__lessI11CulledLightS2_EEPS2_EEjT0_S6_S6_S6_T_
G9i:__ZN6il2cpp2vm14TypeNameParser26ParseArrayModifierOptionalEv
R6e:_MSCompatUnicodeTable_Level3_m260824928
e1d:_LayoutElement_OnEnable_m3478706401
vY:__Z26scripting_object_get_class18ScriptingObjectPtr
$8h:__Z72RuntimeInvoker_DictionaryEntry_t3048875398_Il2CppObject_SByte_t454417549PK10MethodInfoPvPS2_
zZb:__ZNK28MonoBehaviourPropertyBinding15GenerateBindingERKN4core12basic_stringIcNS0_20StringStorageDefaultIcEEEEbRN11UnityEngine9Animation14GenericBindingE
K$g:_GUIStyle_CalcMinMaxWidth_m2027503105
QUe:_Int32_FindExponent_m3187554672
Qbf:_KeyPairPersistence_Load_m1355205585
cqh:_ScrollRect_get_horizontalScrollbarVisibility_m4152068235
SVe:_Int32_ToString_m2960866144_AdjustorThunk
lMi:_Predicate_1_Invoke_m3539717340_gshared
fTi:_HashSet_1_Contains_m3626542335_gshared
edd:_Single_CompareTo_m2081476257_AdjustorThunk
R5h:__Z57RuntimeInvoker_Int32_t2071877448_RaycastHit2D_t4063908774PK10MethodInfoPvPS2_
yvj:__ZN6il2cpp6icalls8mscorlib6System11Environment15internalGetHomeEv
rCi:_PKCS12_get_Keys_m288413492
pab:__ZNK5Unity9Component7GetNameEv
N7h:__Z49RuntimeInvoker_Slot_t2267560602_Int32_t2071877448PK10MethodInfoPvPS2_
d7i:__ZNSt3__214__split_bufferIN6il2cpp6icalls8mscorlib6System12PropertyPairERNS_9allocatorIS5_EEEC2EjjS8_
Gy:__ZN34AnimationStateMachineMixerPlayable7GetTypeEv
Esg:__ZN21InterfaceFuncInvoker4IP12Il2CppObjectS1_P28SerializationInfo_t22898743028StreamingContext_t1417235061S1_E6InvokeEjP11Il2CppClassS1_S1_S3_S4_S1_
pXf:__ZL58IFormatProvider_t2849799027_CustomAttributesCacheGeneratorP21CustomAttributesCache
CRi:_ObjectPool_1_Get_m3724675538_gshared
e5a:__ZN13ScreenManagerD0Ev
bPa:_UNITY_png_set_error_fn
Kwc:__ZNK11b2RopeJoint16GetReactionForceEf
zt:__ZN7mecanim8skeleton26SkeletonPoseComputeGlobalQEPKNS0_8SkeletonEPKNS0_13SkeletonPoseTIN4math4trsXEEEPS7_ii
gtc:__ZN8JSONRead21TransferSTLStyleArrayI13dynamic_arrayIfLj4EEEEvRT_18MemLabelIdentifier17TransferMetaFlags
q0e:_StreamReader_Close_m1172878186
wre:_List_1_GetEnumerator_m2672519407_gshared
_s:__ZN9BlobWrite8TransferI22OffsetPtrArrayTransferIiEEEvRT_PKc17TransferMetaFlags
C6e:_ContractionComparer_Compare_m314873025
iHb:__Z18Transfer_BlittableI17RemapPPtrTransferLb1EjEvRK29SerializationCommandArgumentsR31RuntimeSerializationCommandInfo
w0g:_GUIUtility_EndGUIFromException_m2091524531
iWe:_Int64_System_IConvertible_ToDouble_m638786774
iK:__ZN4FMOD6System7releaseEv
aud:_HashKeys_get_IsSynchronized_m4207641174
dKb:__Z18Transfer_BlittableI19StreamedBinaryWriteILb0EELb1E8BitFieldEvRK29SerializationCommandArgumentsR31RuntimeSerializationCommandInfo
e3:__Z18PathToAbsolutePathRKN4core12basic_stringIcNS_20StringStorageDefaultIcEEEE
Kie:_Enumerator_MoveNext_m3078170540_AdjustorThunk
W8c:_SymmetricAlgorithm_get_Padding_m718051685
yob:__ZNK8Renderer26GetTypeInfoVirtualInternalEv
Xfi:_Color_Lerp_m3323752807
Qdc:__Z22Mesh_CUSTOM_HasChannelP12Il2CppObject30InternalScriptingShaderChannel
y3b:__ZN15DirectorManager17AcquireOutputNodeEv
BAb:__ZN10MonoScript23VirtualRedirectTransferER17RemapPPtrTransfer
Tw:__ZN8Playable11SetDurationEd
qVf:__ZL76Convert_t2607082565_CustomAttributesCacheGenerator_Convert_ToChar_m541258017P21CustomAttributesCache
EEa:__ZN16GeometryJobTasks20ScheduleGeometryJobsER9GfxDevicePFvP15GeometryJobDataEPK22GeometryJobInstructionjb
o$g:_GUIUtility_Internal_GetHotControl_m2510727642
jI:__ZN12AudioManager29ShutdownReinitializeAndReloadEv
yBi:_NetscapeCertTypeExtension_Decode_m2210025005
P7g:_RectTransform_GetLocalCorners_m1836626405
arg:_BaseFixupRecord_DoFixup_m1821597450
RTi:__ZN15dense_hashtableINSt3__24pairIK10KeyWrapperIPK22Il2CppGenericParameterEP11Il2CppClassEES6_N6il2cpp5utils11PointerHashIS4_EEN14dense_hash_mapIS6_S9_SE_NS6_14EqualsComparerINS0_8equal_toIS5_EEEENS0_9allocatorISA_EEE9SelectKeyESJ_SL_E6insertERKSA_
sZe:_FileLoadException__ctor_m1356374414
tmf:_TlsStream_Reset_m1504601050
Fle:__ZN23InterfaceActionInvoker2IP23Int32U5BU5D_t3030399641iE6InvokeEjP11Il2CppClassP12Il2CppObjectS1_i
Xxa:__ZN14DataBufferGLES16RecreateWithDataEjPKv
I8b:__Z29GetGlobalAllowNameConversionsv
z4a:__ZN8Material8SetColorEN9ShaderLab16FastPropertyNameERK10ColorRGBAf
tGg:_Module_GetCustomAttributes_m3581287913
iJf:__ZL67Type_t_CustomAttributesCacheGenerator_Type_IsSubclassOf_m2450899481P21CustomAttributesCache
vd:___syscall91
f5:__ZN21AssetReferenceStorageC2Ev
GKb:__ZN10RectOffset8TransferI19StreamedBinaryWriteILb0EEEEvRT_
zHc:__ZNSt3__26vectorIN4core12basic_stringIcNS1_20StringStorageDefaultIcEEEE13stl_allocatorIS5_L18MemLabelIdentifier34ELi16EEEC2INS_11__wrap_iterIPS5_EEEET_SE_RKS8_PNS_9enable_ifIXaasr21__is_forward_iteratorISE_EE5valuesr16is_constructibleIS5_NS_15iterator_traitsISE_E9referenceEEE5valueEvE4typeE
iZ:__ZL41AssemblyNameMatchesWithOrWithoutExtensionPKcS0_
hci:_AssemblyIsEditorAssembly__ctor_m2639706522
mCa:__ZN14GfxContextGLES43AddRenderSurfaceToDeferredFBOInvalidateListEPK17RenderSurfaceGLES
zkj:__ZN6il2cpp6icalls8mscorlib6System9Threading6Thread15Thread_internalEP12Il2CppThreadP14Il2CppDelegate
lda:__ZN11NamedObject23VirtualRedirectTransferER14SafeBinaryRead
dKc:__ZNSt3__26vectorIN20TextRenderingPrivate8FontImpl13CharacterInfoE13stl_allocatorIS3_L18MemLabelIdentifier1ELi16EEE6insertENS_11__wrap_iterIPKS3_EERS9_
ska:__ZN23PreloadManagerOperation6IsDoneEv
J3f:__ZL102DataUtility_t4181890362_CustomAttributesCacheGenerator_DataUtility_INTERNAL_CALL_GetOuterUV_m121019172P21CustomAttributesCache
P5i:__ZN6il2cpp2vm7Runtime15InvokeWithThrowEPK10MethodInfoPvPS5_
vff:_X509Certificate_get_RawData_m3000055075
vUi:__ZNSt3__26vectorIPK10Il2CppTypeNS_9allocatorIS3_EEE21__push_back_slow_pathIRKS3_EEvOT_
f4b:__Z33GetHasChangedDeprecatedSystemMaskv
_sj:__ZN6il2cpp5utils11StringUtils11Utf16ToUtf8ERKNSt3__212basic_stringIDsNS2_11char_traitsIDsEENS2_9allocatorIDsEEEE
HYe:_MonoIO_GetException_m2577367044
zJh:_Enumerator_VerifyState_m1165543189_AdjustorThunk
eCd:_DateTime_AddSeconds_m722082155_AdjustorThunk
nrd:_SynchronizedArrayListWrapper_CopyTo_m956887031
H2i:__ZNSt3__213__lower_boundIRN6il2cpp5utils11collections13ArrayValueMapIPK10Il2CppType17Il2CppInteropData26InteropDataToTypeConverterNS1_8metadata14Il2CppTypeLessENSA_26Il2CppTypeEqualityComparerEE22LowerBoundFindComparerEPKS8_S7_EET0_SI_SI_RKT1_T_
nHh:_Comparer_1__ctor_m1202126643_gshared
c5f:__ZL92Transform_t3275118058_CustomAttributesCacheGenerator_Transform_get_parentInternal_m927919099P21CustomAttributesCache
Goa:__ZN21LightProbeProxyVolume18HasHardwareSupportEv
sCc:__ZNK20b2SeparationFunction17FindMinSeparationEPiS0_f
Aha:__ZN6prcoreL31inner_stretch_argb8888_bilinearEPKNS_9InnerInfoE
LLb:__Z18Transfer_BlittableI18StreamedBinaryReadILb1EELb1E8BitFieldEvRK29SerializationCommandArgumentsR31RuntimeSerializationCommandInfo
IMc:_UNITY_FT_Outline_Decompose
Apf:_TlsClientCertificate_get_ClientCertificate_m3062440489
Dad:_StrongNamePublicKeyBlob_ToString_m3721281223
Sdg:__ZL80UnityEvent_t408735097_CustomAttributesCacheGenerator_UnityEvent__ctor_m588741179P21CustomAttributesCache
Oyh:_InternalEnumerator_1_get_Current_m198513457_AdjustorThunk
KCh:_InternalEnumerator_1__ctor_m1240086835_AdjustorThunk
BSa:__Z20scripting_object_new17ScriptingClassPtr
EQ:__ZN11UnityEngine15CloudWebService10RestClientINS0_16WWWRestHeaderMapEED2Ev
qbc:__Z31Display_CUSTOM_GetSystemExtImpl13Il2Cpp_IntPtrPiS0_
Ohc:__Z58Register_UnityEngine_Object_Internal_CloneSingleWithParentv
ecj:__ZN24dense_hashtable_iteratorINSt3__24pairIK10KeyWrapperINS1_IPK9FieldInfoP11Il2CppClassEEEjEES9_17ReflectionMapHashIS8_EN14dense_hash_mapIS9_jSD_NS9_14EqualsComparerINS0_8equal_toIS8_EEEENS0_9allocatorISB_EEE9SelectKeyESI_SK_E30advance_past_empty_and_deletedEv
qE:__Z75AnimatorControllerPlayable_CUSTOM_INTERNAL_CALL_GetAnimatorClipInfoInternalP12Il2CppObjectR9HPlayableihS0_
cqc:__ZN9JSONWrite8TransferI13dynamic_arrayI8BitFieldLj4EEEEvRT_PKc17TransferMetaFlags
Aka:__ZN23PreloadManagerOperation21MustCompleteNextFrameEv
vWd:_Graphic_OnRectTransformDimensionsChange_m1610753363
F0d:_U3CMouseDragOutsideRectU3Ec__Iterator1_System_Collections_Generic_IEnumeratorU3CobjectU3E_get_Current_m2602955272
P:Math_exp
T3e:_MonoEnumInfo_get_Cache_m3551569711
Mo:FUNCTION_TABLE_iiifi
Tsj:__ZN6il2cpp2os5posix13PosixAutoLockD2Ev
o3d:_Array_InternalArray__ICollection_Contains_TisVector3_t2243707580_m3625701788_gshared
TEc:__ZN13BoxCollider2D15InitializeClassEv
Fsi:__ZN21InterfaceFuncInvoker0IP6Type_tE6InvokeEjP11Il2CppClassP12Il2CppObject
QQc:_cff_get_advances
Q2a:__ZN13MonoBehaviour9SetScriptERK4PPtrI10MonoScriptE18ScriptingObjectPtr
SEc:__ZN13ProduceHelperI13BoxCollider2DLb0EE7ProduceE18MemLabelIdentifier18ObjectCreationMode
oMc:_UNITY_FT_Create_Class_sfnt_module_class
buh:_Text_CalculateLayoutInputHorizontal_m1578553982
v4f:__ZL87Object_t1021602117_CustomAttributesCacheGenerator_Object_DestroyObject_m282495858____t1P21CustomAttributesCache
Pnj:__ZNSt3__218uninitialized_copyIPNS_4pairIK10KeyWrapperIP14Il2CppIUnknownEjEES8_EET0_T_SA_S9_
Aki:_AnimatorControllerPlayable_SetFloatString_m3937146789
yEd:_Decimal_IsZero_m3557909184_AdjustorThunk
Tod:_Char_ToString_m1401375624
X4c:_MD5CryptoServiceProvider__cctor_m3309191799
jW:__ZNK10FileSystem16LastErrorMessageEv
Byj:__ZNK6il2cpp8metadata14Il2CppTypeLessclEPK10Il2CppTypeS4_
bUh:__Z51RuntimeInvoker_UInt32_t2149682021_Int16_t4041245914PK10MethodInfoPvPS2_
IEf:_InterpreterFactory_get_NamesMapping_m3186583301
fri:_ConfigHandler_ReadCustomProviderData_m784203316
j2f:__ZL87Input_t1785128008_CustomAttributesCacheGenerator_Input_get_compositionString_m636835668P21CustomAttributesCache
vke:_Enumerator_System_Collections_IEnumerator_Reset_m3052395060_gshared
C3c:__ZN22UnityWebRequestManager10InitializeEv
VAe:_Collection_1_System_Collections_ICollection_get_SyncRoot_m1997144145_gshared
Thf:_Kernel_DwordDivMod_m3728402123
aBb:__ZN13MonoBehaviour13AwakeFromLoadE17AwakeFromLoadMode
wZc:__ZZN2UI14CanvasRenderer15InitializeClassEvEN38FunctorImpl_810kCanvasHierarchyChanged4CallEPviR11MessageData
cHb:__ZL26Transfer_SimpleNativeClassI17RemapPPtrTransfer8GradientLb1EEvRK29SerializationCommandArgumentsR31RuntimeSerializationCommandInfo
t4b:__ZN12CachedWriter9InitWriteER15CacheWriterBase
Y2b:__Z21UnsignedInt64ToStringy
RLg:_UTF7Decoder__ctor_m549434986
J5g:_Quaternion_ToString_m2638853272
cFh:_InternalEnumerator_1_get_Current_m1025321669_AdjustorThunk
i4g:_Object_t1021602117_marshal_pinvoke
mec:__Z36MonoBehaviour_CUSTOM_InvokeRepeatingP12Il2CppObjectP12Il2CppStringff
phc:__Z66Register_UnityEngine_Transform_INTERNAL_CALL_InverseTransformPointv
kAh:_InternalEnumerator_1_MoveNext_m2720582493_gshared
mDj:__ZN6il2cpp2os9MutexImpl7TryLockEjb
CDf:_Group__ctor_m4103922028
rPa:__ZN6Camera26ClearIntermediateRenderersEj
i5i:__ZNSt3__214__split_bufferI6pollfdRNS_9allocatorIS1_EEEC2EjjS4_
EOa:_UNITY_png_write_pCAL
aVj:_glLinkProgram__wrapper
fia:__ZN6prcoreL12RemapGenericI17TexFormatARGB888815TexFormatBGR888EEvPKNS_9InnerInfoE
b5c:_MD5CryptoServiceProvider_ProcessFinalBlock_m1052610785
sE:__Z79AnimatorControllerPlayable_CUSTOM_INTERNAL_CALL_GetNextAnimatorClipInfoInternalR9HPlayablei
Drd:_BitArray_Set_m2878881714
mZi:__ZL25UnresolvedVirtualCall_201P12Il2CppObjectPK10MethodInfo
SEe:_Collection_1_get_Item_m4215988522_gshared
trh:_Selectable_get_colors_m3501193396
woj:__ZN6il2cpp6icalls8mscorlib6System13Globalization11CultureInfo35construct_internal_locale_from_nameEP17Il2CppCultureInfoP12Il2CppString
KLh:__Z58RuntimeInvoker_Il2CppObject_Int32_t2071877448_Il2CppObjectPK10MethodInfoPvPS2_
QIb:__ZL22Transfer_ManagedObjectI24GenerateTypeTreeTransferLb1EEvRK29SerializationCommandArgumentsR31RuntimeSerializationCommandInfo
Q4f:__ZL72SceneManager_t90660965_CustomAttributesCacheGenerator_activeSceneChangedP21CustomAttributesCache
_Ec:__ZZN10Collider2D15InitializeClassEvEN27FunctorImpl_95kLayerChanged4CallEPviR11MessageData
vOf:__ZL55COMException_t1790481504_CustomAttributesCacheGeneratorP21CustomAttributesCache
laf:_ASN1_get_Count_m404940548
Asi:_ContextAttribute_Equals_m53324298
Dei:_Canvas_ForceUpdateCanvases_m2446828475
ak:_emscripten_set_main_loop_timing
rbc:__Z34Display_CUSTOM_GetRenderingExtImpl13Il2Cpp_IntPtrPiS0_
EVg:_WeakReference_AllocateHandle_m1783929473
Sxa:__ZN14DataBufferGLES12RecordRenderEv
T3a:__ZN14ImageReference10FlipImageYEv
Bhi:_DebugLogHandler_LogFormat_m177245518
_gb:__Z32TransferEnumWithNameForceIntSizeI14SafeBinaryRead13TargetEyeMaskEvRT_RT0_PKc17TransferMetaFlags
Tjc:__Z14GetDefaultSkini
WJd:_CultureInfo_get_Name_m3316229893
WBd:_DateTime_get_Ticks_m310281298_AdjustorThunk
IF:__ZN4FMOD3DSP9setBypassEb
ZFe:_Collection_1_System_Collections_IList_get_Item_m287847793_gshared
S8a:__Z19NormalizeWheelInputf
oDf:_CaptureCollection_CopyTo_m1982767892
$6a:__Z29StdTemplateConversionFunctionIsaEbPvR14SafeBinaryRead
w3d:_Array_InternalArray__ICollection_Remove_TisLink_t865133271_m1984184141_gshared
htc:__Z29Transfer_Blittable_ArrayFieldI8JSONReadhEvRT_R9ArrayInfoRK23StaticTransferFieldInfo
N1d:_LayoutRebuilder_IsDestroyed_m3442208294
I6b:__ZN11MonoManager25GetImageFromAssemblyIndexEi
AFj:__ZN6il2cpp2os20ThreadLocalValueImpl8SetValueEPv
QPa:__ZN22RenderingCommandBuffer20CleanupCommandBufferEv
mMa:__ZZ23InitPlayerLoopCallbacksvEN43PostLateUpdateClearImmediateRenderersstruct7ForwardEv
Noc:__Z18Transfer_BlittableI9JSONWriteLb1EtEvRK29SerializationCommandArgumentsR31RuntimeSerializationCommandInfo
tZe:_FileLoadException__ctor_m918124939
sk:___syscall85
HRa:__ZNSt3__26__sortIRPFbP10GUIElementS2_EPS2_EEvT0_S7_T_
Aif:_SequentialSearchPrimeGeneratorBase_GenerateSearchBase_m2930465198
J1b:__ZN16GraphicsSettings12CleanupClassEv
fwj:__ZN6il2cpp2os6Thread19DetachCurrentThreadEv
kUi:__ZN6il2cpp2vmL21SetupInterfacesLockedEP11Il2CppClassRKNS_2os12FastAutoLockE
WCb:__ZN11MonoManager23VirtualRedirectTransferER24GenerateTypeTreeTransfer
rA:__ZN23AnimationPlayableOutput17SetSourcePlayableEP8Playable
cDf:_Capture__ctor_m885749277
N_g:_GUIStyle_set_clipOffset_m3871613343
FZd:_SubmitEvent__ctor_m222860306
Zi:_emscripten_glUniformMatrix4fv
KP:__ZN11UnityEngine15CloudWebService14DataDispatcher15SetupWebRequestEv
zSh:__Z94RuntimeInvoker_Int32_t2071877448_Il2CppObject_Int32_t2071877448_Il2CppObject_Int32_t2071877448PK10MethodInfoPvPS2_
K1e:_TextWriter__cctor_m4047845042
Mrf:_ReceiveRecordAsyncResult_get_Record_m1336421357
F0c:__ZN11UnityEngine15PlatformWrapper13GetShaderCapsEv
i_a:__ZNSt3__211__sift_downIR26RenderDeferredObjectSorterP16RenderObjectDataEEvT0_S5_T_NS_15iterator_traitsIS5_E15difference_typeES5_
nVf:__ZL76Convert_t2607082565_CustomAttributesCacheGenerator_Convert_ToByte_m509311047P21CustomAttributesCache
ZZd:_InputField_CaretBlink_m3960486606
ck:_emscripten_glGetProgramiv
ocf:_SmallXmlParser_ReadCharacters_m1966365555
vtf:_InternalAsyncResult_get_CompletedWithError_m3993955322
s2b:__ZN21FixedBehaviourManager6UpdateEv
X8b:__ZN9Transform9SetParentEPS_NS_15SetParentOptionE
aJe:_ReadOnlyCollection_1_System_Collections_IList_Add_m527174473_gshared
A_:__ZN19ShaderPropertySheet8SetFloatEN9ShaderLab16FastPropertyNameEfNS_8SetFlagsE
Pig:__ZL68InputField_t1631627530_CustomAttributesCacheGenerator_m_AsteriskCharP21CustomAttributesCache
Ela:__ZN19RuntimeSceneManager24BeginIntegrateMainThreadEP10UnityScene
QXh:__Z42RuntimeInvoker_RuntimePlatform_t1869584967PK10MethodInfoPvPS2_
rXh:__Z80RuntimeInvoker_Void_t1841601450_Il2CppObject_Int32_t2071877448_Int16_t4041245914PK10MethodInfoPvPS2_
Tuj:__ZNSt3__2plIcNS_11char_traitsIcEENS_9allocatorIcEEEENS_12basic_stringIT_T0_T1_EERKS9_S6_
TQh:__Z53RuntimeInvoker_MonoEventInfo_t2190036573_Il2CppObjectPK10MethodInfoPvPS2_
B2e:_LocalDataStoreSlot__cctor_m1192669356
GRb:__ZN9ShaderLab20SerializedSubProgramaSERKS0_
wLj:_roundf
Ufd:_String_CreateString_m2556700934
ngb:__ZN18StreamedBinaryReadILb0EE21TransferSTLStyleArrayINSt3__26vectorI17SortingLayerEntryNS2_9allocatorIS4_EEEEEEvRT_17TransferMetaFlags
zrh:_Selectable_get_targetGraphic_m137842753
$r:__ZN8Animator15SetPrepareStageEv
Osh:_Slider_get_axis_m162140813
iHg:_MonoEventInfo_t2190036573_marshal_pinvoke
lUi:__ZN6il2cpp2vmL24SetupTypeHierarchyLockedEP11Il2CppClassRKNS_2os12FastAutoLockE
Z8a:__ZL11TextHandleriPK23EmscriptenKeyboardEventPv
X1d:_LayoutRebuilder_U3Cs_RebuildersU3Em__0_m3768099182
krh:_ScrollRect_SetLayoutHorizontal_m3486408020
DJc:_destroy_face
wSi:_GenericEqualityComparer_1_GetHashCode_m116190842_gshared
dki:_AnimationOffsetPlayable_INTERNAL_CALL_GetPosition_m602003518
gMf:__ZL55StreamWriter_t3858580635_CustomAttributesCacheGeneratorP21CustomAttributesCache
qGc:__ZN5physx19PxAllocatorCallbackD2Ev
uLa:__ZN24dense_hashtable_iteratorINSt3__24pairIKN4core12basic_stringIcNS2_20StringStorageDefaultIcEEEEP20ArchiveStorageReaderEES6_20StringHash32FunctionIS6_EN14dense_hash_mapIS6_S9_SC_NS0_8equal_toIS6_EE13stl_allocatorISA_L18MemLabelIdentifier54ELi16EEE9SelectKeyESF_SI_EC2EPK15dense_hashtableISA_S6_SC_SK_SF_SI_EPSA_SQ_b
JCj:__ZN6il2cpp6icalls8mscorlib6System8Security12Cryptography24RNGCryptoServiceProvider13RngInitializeEP11Il2CppArray
Sue:_List_1_System_Collections_ICollection_get_IsSynchronized_m227393674_gshared
exf:_IPAddress__cctor_m3624830012
bkb:__ZN4PPtrI5LightE8TransferI19StreamedBinaryWriteILb0EEEEvRT_
s6f:__ZL115AnimatorStateInfo_t2577870592_CustomAttributesCacheGenerator_AnimatorStateInfo_t2577870592____nameHash_PropertyInfoP21CustomAttributesCache
Yyf:_AsnEncodedData_EnhancedKeyUsageExtension_m1452131166
GMb:__Z19TransferField_ArrayI18StreamedBinaryReadILb1EE27Converter_SimpleNativeClassI17AnimationCurveTplIfEEEvRK23StaticTransferFieldInfoR31RuntimeSerializationCommandInfoRT0_
QEc:__ZN7b2World18SetContactListenerEP17b2ContactListener
JDf:_GroupCollection_get_IsSynchronized_m1100663675
Aya:__ZN18GfxFramebufferGLES22MakeCurrentFramebufferENS_7BuiltinE
BCj:__ZN6il2cpp2vm12MarshalAlloc4FreeEPv
iEf:_Interpreter_Close_m1500459069
wk:_JS_SystemInfo_GetWidth
coa:__ZN12CachedReader4ReadEPvj
H7f:__ZL113AnimatorControllerPlayable_t4078305555_CustomAttributesCacheGenerator_AnimatorControllerPlayable_Play_m3114724599P21CustomAttributesCache
kRc:_cf2_blues_init
Syh:_InternalEnumerator_1_System_Collections_IEnumerator_get_Current_m3600601141_gshared
I7c:_SHA1Internal_HashFinal_m3188468925
BJi:_Vector3_op_Inequality_m799191452
yod:_Char_GetHashCode_m2343577184
MWa:__Z24CalculateLightShadowFadeRK6CamerafffR8Vector4f
U$:__ZN19RuntimeSceneManagerD2Ev
oYf:__ZL55HeaderHandler_t324204131_CustomAttributesCacheGeneratorP21CustomAttributesCache
lqi:_ChannelData_get_CustomProperties_m1470957369
zha:__ZN6prcore17GetIntegerBlitterE13TextureFormatS0_N14ImageReference8BlitModeE
Tdi:_Camera_INTERNAL_CALL_ScreenPointToRay_m2752248646
nyc:__ZN13BoxCollider2DD0Ev
tdj:__ZN6il2cpp2gc19AppendOnlyGCHashMapINSt3__24pairIPK11Il2CppImageP11Il2CppClassEEP22Il2CppReflectionModule17ReflectionMapHashIS9_ENS2_8equal_toIS9_EEE11TryGetValueERKS9_PSB_
v9g:_Enumerator_VerifyState_m3173176371_AdjustorThunk
LZi:__ZL25UnresolvedVirtualCall_226P12Il2CppObjecti22UILineInfo_t3621277874PK10MethodInfo
iwf:_TypeConverterAttribute__cctor_m506796812
Ihd:_Encoding_get_IsReadOnly_m3729101432
H8b:__ZN9BlobWrite14ReduceCopyImplERK14ReduceCopyDataj
_Ug:_ValueType_t3507792607_marshal_pinvoke_back
tHh:_Comparer_1_System_Collections_IComparer_Compare_m1790257529_gshared
K9h:__Z37RuntimeInvoker_Enumerator_t3220004478PK10MethodInfoPvPS2_
mGg:_MethodInfo_get_ContainsGenericParameters_m572340060
axc:__ZNK12b2WheelJoint10GetAnchorAEv
cQj:_glShaderSource__wrapper
UIa:__ZN25MultiBlocksMemoryFileData17AdjustBlocksCountEj
dlj:__ZNSt3__214__split_bufferIN6il2cpp2vm22EmbeddedResourceRecordERNS_9allocatorIS3_EEED2Ev
vnf:_TlsClientHello__ctor_m1699671541
$0b:__ZZN12MeshRenderer15InitializeClassEvEN29FunctorImpl_134kDidModifyMesh4CallEPviR11MessageData
IHc:__ZN13TextRendering4Font8TransferI24GenerateTypeTreeTransferEEvRT_
Vri:_Context_NotifyGlobalDynamicSinks_m2916447645
BLa:__ZN23ManagedAttributeManager15InitializeClassEv
gbc:__Z27CullingGroup_CUSTOM_DisposeP12Il2CppObject
L5g:_Random_Range_m2884721203
skj:__ZN6il2cpp6icalls8mscorlib6SystemL23CheckWideningConversionEjjj
kQa:__ZN13ComputeShader15SetTextureParamEjRKN9ShaderLab16FastPropertyNameE9TextureID16TextureDimension
dsh:_Shadow_set_effectDistance_m1951993364
IXg:_GUILayoutEntry_ApplyStyleSettings_m371609721
wfh:_Dictionary_2_ContainsKey_m416495915_gshared
rDe:_Collection_1_Remove_m1798559666_gshared
Cm:_glStencilMask
muj:__ZN6il2cpp2os10ThreadImpl16GetCurrentThreadEv
itd:_Hashtable__ctor_m2337481811
a9g:_Enumerator_System_Collections_IEnumerator_get_Current_m2010873149_gshared
qUd:_Resources_t2975512894_marshal_pinvoke_cleanup
$ai:_AnimationEvent_get_messageOptions_m3547411650
nJf:__ZL88Type_t_CustomAttributesCacheGenerator_Type_MakeGenericType_m2765875033____typeArguments0P21CustomAttributesCache
Pkg:__ZL74SpriteState_t1353336012_CustomAttributesCacheGenerator_m_HighlightedSpriteP21CustomAttributesCache
wpg:_RealProxy__ctor_m2505535530
cAj:_GC_push_conditional_with_exclusions
XSg:_UInt32_System_IConvertible_ToUInt16_m2798641702_AdjustorThunk
xrg:_BinaryFormatter_get_DefaultSurrogateSelector_m219714691
Zx:__ZN21AnimationPosePlayableD0Ev
X3f:__ZL76Time_t31991979_CustomAttributesCacheGenerator_Time_get_deltaTime_m2233168104P21CustomAttributesCache
V5:__ZN15dense_hashtableINSt3__24pairIKiiEEi21InstanceIDHashFunctorN14dense_hash_mapIiiS4_NS0_8equal_toIiEE13stl_allocatorIS3_L18MemLabelIdentifier65ELi16EEE9SelectKeyES7_SA_E9copy_fromERKSD_j
XFe:_Collection_1_System_Collections_IList_get_IsFixedSize_m3252091801_gshared
y4h:__Z57RuntimeInvoker_Boolean_t3825574718_LabelFixup_t4090909514PK10MethodInfoPvPS2_
BTd:_FloatTween_get_ignoreTimeScale_m4161298485_AdjustorThunk
OIg:_MonoProperty_GetOptionalCustomModifiers_m3827844355
yIj:_strrchr
kri:__ZN21InterfaceFuncInvoker1IP8String_tS1_E6InvokeEjP11Il2CppClassP12Il2CppObjectS1_
x7e:_SimpleCollator_GetSortKey_m2188419329
Hlg:__ZL56LayoutElement_t2808691390_CustomAttributesCacheGeneratorP21CustomAttributesCache
Doh:_Scrollbar_Set_m244028386
Yec:__Z33Register_UnityEngine_Random_Rangev
Ihc:__Z27Object_CUSTOM_DestroyObjectP12Il2CppObjectf
gkb:__ZN14RenderSettings27UpdateIndirectSpecularColorEv
ixb:__ZN14PlayerSettings8TransferI18StreamedBinaryReadILb0EEEEvRT_
L6i:__ZN6il2cpp6icalls8mscorlib6System8MonoType16GetMethodsByNameEP20Il2CppReflectionTypeP12Il2CppStringibS5_
Yoi:_GCHandle__ctor_m2952050298
Pfe:_LayoutGroup_SetProperty_TisAxis_t1431825778_m2174054513_gshared
Job:__ZN4PPtrI10GameObjectE8TransferI14SafeBinaryReadEEvRT_
lmh:_Mask_IsRaycastLocationValid_m62488857
ZZ:__ZN17DirectorFrameTime10SampleTimeEfff
Zqa:__ZNSt3__27__sort3IRNS_4lessIN22BuiltinResourceManager8ResourceEEEPS3_EEjT0_S7_S7_T_
HGh:_DefaultComparer_Compare_m3472472212_gshared
TZe:_MonoIO_GetLength_m2812344043
UPc:_ps_hints_t2mask
Ieg:__ZL68UsedByNativeCodeAttribute_t3212052468_CustomAttributesCacheGeneratorP21CustomAttributesCache
jF:__Z110Register_UnityEngine_Experimental_Director_AnimatorControllerPlayable_INTERNAL_CALL_GetParametersArrayInternalv
Xsb:__ZN10BlendShape8TransferI19StreamedBinaryWriteILb0EEEEvRT_
gni:_PlayableHandle_INTERNAL_CALL_IsValidInternal_m2792360706
fIi:_Transform_IsChildOf_m10844547
mG:__Z32TransferEnumWithNameForceIntSizeI14SafeBinaryReadN10SampleClip8LoadTypeEEvRT_RT0_PKc17TransferMetaFlags
lXe:__Z21il2cpp_codegen_sizeofP11Il2CppClass
B9:__Z19GetTimeSinceStartupv
mcd:_SecurityFrame_get_Assembly_m2816566490
cuj:__ZN6il2cpp2os10ThreadImpl11SetPriorityENS0_14ThreadPriorityE
jVc:_TT_Load_Composite_Glyph
kKi:_NetFxCoreExtensions_CreateDelegate_m2492743074
vKh:__Z51RuntimeInvoker_Boolean_t3825574718_Int64_t909078037PK10MethodInfoPvPS2_
Tjd:_Array_Sort_m2994254654
Bwe:_List_1__ctor_m593058937_gshared
F5d:_Array_InternalArray__IEnumerable_GetEnumerator_TisColor32_t874517518_m2198639025_gshared
gVa:__ZN29RenderNodeQueuePrepareContextC2Ev
EM:__ZN10SampleClipC2E18MemLabelIdentifier18ObjectCreationMode
ESb:__ZN9ShaderLab20SerializedSubProgram16TextureParameter8TransferI24GenerateTypeTreeTransferEEvRT_
LNg:_Thread_set_Name_m1343706609
mEj:__ZN6il2cpp2os11MutexHandle4WaitEj
C7b:__ZL34GetComponentsImplementationRecurseILb1ELi1ELi1EEbR10GameObjectbRK17CompareParametersRK39GetComponentsImplementation_ReturnValue
lEj:__ZN6il2cpp2os11MutexHandle4WaitEv
npd:_ArrayList_set_Capacity_m592558035
oja:__ZN6prcoreL17RemapGenericFloatI15TexFormatRGHalf18TexFormatARGBFloatEEvPKNS_9InnerInfoE
L3e:_MonoEnumInfo_t2335995564_marshal_pinvoke_cleanup
xba:__ZNK13RenderTexture13GetDataHeightEv
hPa:__ZN13RenderManager23AddRemoveCamerasDelayedEv
GOa:_UNITY_png_write_pHYs
uka:__ZN23PreloadManagerOperation11GetPriorityEv
uId:_Exception_get_InnerException_m3722561235
Q3d:_Array_InternalArray__ICollection_Remove_TisILTokenInfo_t149559338_m1523907845_gshared
Lgi:_ContactFilter2D_CheckConsistency_m1391185667
A1f:__ZL84RectOffset_t3387826427_CustomAttributesCacheGenerator_RectOffset_get_left_m439065308P21CustomAttributesCache
qte:_List_1_GetEnumerator_m4053501645_gshared
O4i:__ZN6il2cpp2gc9AllocatorIP17Il2CppAsyncResultE10deallocateEPvj
Btd:_Hashtable_Rehash_m2877670513
o1a:__ZN13RenderTexture8SetWidthEi
X$d:_InputField_Insert_m1593238693
LZb:__ZNK28RectTransformPropertyBinding12SetPPtrValueERKN11UnityEngine9Animation10BoundCurveEi
xNb:__Z18Transfer_BlittableI18StreamedBinaryReadILb0EELb0EfEvRK29SerializationCommandArgumentsR31RuntimeSerializationCommandInfo
jtb:__ZN10MeshFilterD0Ev
lVc:_UNITY_FT_GlyphLoader_CheckSubGlyphs
JSh:__Z132RuntimeInvoker_Int32_t2071877448_Il2CppObject_Int32_t2071877448_Int32_t2071877448_Il2CppObject_Int32_t2071877448_Int32U26_t455636984PK10MethodInfoPvPS2_
Q4i:__ZN6il2cpp2vm21ThreadPoolCompartment20SpawnNewWorkerThreadEv
O8d:_Array_InternalArray__ICollection_Add_TisCustomAttributeTypedArgument_t1498197914_m3260005285_gshared
oXa:__Z25SetupObjectBakedOcclusionbRK15SharedLightDataRK26SharedLightmapSettingsDataRK15LightmapIndicesR17ShaderPassContext
qud:_SyncHashtable_GetObjectData_m3774367030
hvi:__ZN21InterfaceFuncInvoker4IP17Match_t3164245899P17Regex_t1803876613P8String_tiiE6InvokeEjP11Il2CppClassP12Il2CppObjectS3_S5_ii
BTe:_Guid_GetHashCode_m1401300871
oRi:_ListPool_1_U3Cs_ListPoolU3Em__0_m1243609651_gshared
Dmc:__Z42Register_UnityEngine_GUIStyle_set_fontSizev
EVd:_FontData__ctor_m3822008992
aci:_LogCallback__ctor_m898185969
GVi:__ZL23UnresolvedVirtualCall_5P12Il2CppObjectsPK10MethodInfo
bB:__ZN4PPtrI6AvatarE8TransferI19StreamedBinaryWriteILb0EEEEvRT_
ls:__ZN8Animator9BuildJobsERK13dynamic_arrayIP14PlayableOutputLj4EERS0_INS_11AnimatorJobELj4EEPS7_bb
b_:__ZN9ShaderLab16FastPropertyName4InitEPKc
Jvc:__ZN11b2GearJointD0Ev
SYb:__Z13RegisterClassIN2UI13RectTransformEEvv
V6e:_MSCompatUnicodeTable_ToWidthCompat_m2299599532
mTi:__ZN13Il2CppHashMapIPK22Il2CppGenericParameterP11Il2CppClassN6il2cpp5utils11PointerHashIS1_EENSt3__28equal_toIS2_EENS9_9allocatorINS9_4pairIK10KeyWrapperIS2_ES4_EEEEEC2EjRKS8_RKSB_
D5e:_NumberFormatter_get_IsFloatingSource_m2830957202
tqb:__ZN10VertexData8TransferI17RemapPPtrTransferEEvRT_
bba:__ZN13RenderTexture9SetMipMapEb
m$i:__ZN15dense_hashtableINSt3__24pairIK10KeyWrapperIPK11Il2CppClassEPKcEES6_N6il2cpp5utils11PointerHashIS3_EEN14dense_hash_mapIS6_S9_SE_NS6_14EqualsComparerINS0_8equal_toIS5_EEEENS0_9allocatorISA_EEE9SelectKeyESJ_SL_E13set_empty_keyERKSA_
kqh:_ScrollRect_set_verticalScrollbarSpacing_m2356851539
mY:__Z18GetDirectorManagerv
k6e:_OperatingSystem_GetObjectData_m2276196875
Mfb:__ZNK10TagManager26GetTypeInfoVirtualInternalEv
y8g:_ResourceRequest_t2560315377_marshal_pinvoke_back
Rzb:__ZN21ArchiveStorageCreator13AppendRawNodeERKN4core12basic_stringIcNS0_20StringStorageDefaultIcEEEEN20ArchiveStorageHeader9NodeFlagsEyy
Mgc:__Z38Transform_CUSTOM_INTERNAL_get_rotationP12Il2CppObjectP11Quaternionf
oaj:__ZNSt3__26vectorIN6il2cpp2vm17TypeNameParseInfoENS_9allocatorIS3_EEE8allocateEj
vmi:_AnimatorControllerPlayable_CrossFadeInFixedTime_m1082259778
qOf:__ZL66CriticalFinalizerObject_t1920899984_CustomAttributesCacheGeneratorP21CustomAttributesCache
idj:__ZNK15dense_hashtableINSt3__24pairIK10KeyWrapperINS1_IPK10MethodInfoP11Il2CppClassEEEjEES9_17ReflectionMapHashIS8_EN14dense_hash_mapIS9_jSD_NS9_14EqualsComparerINS0_8equal_toIS8_EEEENS0_9allocatorISB_EEE9SelectKeyESI_SK_E5beginEv
OAa:__ZN7ApiGLES19UploadBufferSubDataEjN2gl12BufferTargetEllPKv
Idd:_String_System_IConvertible_ToInt32_m1927223638
k4d:_Array_InternalArray__ICollection_Remove_TisContentType_t1028629049_m3085152315_gshared
h_h:__Z62RuntimeInvoker_AnimatorStateInfo_t2577870592_Int32_t2071877448PK10MethodInfoPvPS2_
sei:_Canvas_set_sortingOrder_m2922819993
Z8h:__Z72RuntimeInvoker_KeyValuePair_2_t3749587448_Int32_t2071877448_Il2CppObjectPK10MethodInfoPvPS2_
z3i:__ZNSt3__26__treeINS_12__value_typeIP11Il2CppClassS3_EENS_19__map_value_compareIS3_S4_NS_4lessIS3_EELb1EEENS_9allocatorIS4_EEE25__emplace_unique_key_argsIS3_JNS_4pairIS3_S3_EEEEENSD_INS_15__tree_iteratorIS4_PNS_11__tree_nodeIS4_PvEEiEEbEERKT_DpOT0_
Ofd:_ASCIIEncoding__ctor_m4127831672
f_i:_PlayerController_SaveHighscore_m3619122561
i7f:__ZL117AnimatorControllerPlayable_t4078305555_CustomAttributesCacheGenerator_AnimatorControllerPlayable_CrossFade_m437921439P21CustomAttributesCache
HEb:__Z19TransferField_ArrayI14SafeBinaryRead27Converter_SimpleNativeClassI8GUIStyleEEvRK23StaticTransferFieldInfoR31RuntimeSerializationCommandInfoRT0_
_Lg:_UTF8Encoding__ctor_m3336862259
unj:__ZN15dense_hashtableINSt3__24pairIK10KeyWrapperIP14Il2CppIUnknownEjEES5_N6il2cpp5utils11PointerHashIS3_EEN14dense_hash_mapIS5_jSB_NS5_14EqualsComparerINS0_8equal_toIS4_EEEENS0_9allocatorIS7_EEE9SelectKeyESG_SI_ED2Ev
UCj:__ZN6il2cpp5utils10MemoryPoolC2Ej
v0h:__Z54RuntimeInvoker_Boolean_t3825574718_HitInfo_t1761367055PK10MethodInfoPvPS2_
rBf:_X509Chain_GetAuthorityKeyIdentifier_m2607407678
QCj:__ZN6il2cpp5utils10MemoryPoolC2Ev
Ijb:__ZN14RenderSettings5ResetEv
zlj:__ZNSt3__212basic_stringIDsNS_11char_traitsIDsEENS_9allocatorIDsEEE6appendEPKDsj
VOd:_RaycastResult_set_gameObject_m1138581891_AdjustorThunk
sdi:_Bounds_get_extents_m4077324178_AdjustorThunk
xOh:__Z117RuntimeInvoker_Int32_t2071877448_Il2CppObject_Il2CppObject_Int32_t2071877448_Int32_t2071877448_BooleanU26_t3168250738PK10MethodInfoPvPS2_
YDh:_InternalEnumerator_1_get_Current_m3724267862_AdjustorThunk
ffe:_Dictionary_2_Do_ICollectionCopyTo_TisKeyValuePair_2_t3716250094_m1740410536_gshared
BWg:_GUI_CallWindowDelegate_m2039577415
Ytj:__ZN6il2cpp2os10ThreadImplD2Ev
udf:_RSAManaged_Dispose_m3018788098
bwc:__ZN12b2MouseJoint23InitVelocityConstraintsERK12b2SolverData
Dnc:__ZN8Gradient8TransferI9JSONWriteEEvRT_
eNg:_Monitor_Monitor_pulse_m2135582245
uxd:_DateTime_ToUniversalTime_m1815024752
hCi:_X509CertificateEnumerator_MoveNext_m1422952050
Gvf:_NameObjectCollectionBase_get_Count_m2353593692
x9a:__ZNK12TLSAllocatorI14StackAllocatorE22GetAllocatedMemorySizeEv
hNf:__ZL54AssemblyName_t894705941_CustomAttributesCacheGeneratorP21CustomAttributesCache
qAd:_Convert_ToUInt32_m3394039268
F3a:__ZN17RemapPPtrTransfer12PushMetaFlagE17TransferMetaFlags
JJa:__ZN12HandlerChain4NameEv
Kvb:__ZNSt3__26vectorI9InputAxisNS_9allocatorIS1_EEE10deallocateEv
W1i:__ZNK15dense_hashtableINSt3__24pairIK10KeyWrapperI13dynamic_arrayIPK10Il2CppTypeLj4EEEPFvvEEES8_N6il2cpp8metadata19Il2CppSignatureHashEN14dense_hash_mapIS8_SB_SF_NS8_14EqualsComparerINSE_22Il2CppSignatureCompareEEENS0_9allocatorISC_EEE9SelectKeyESJ_SL_E10test_emptyERK30dense_hashtable_const_iteratorISC_S8_SF_SN_SJ_SL_E
zUe:_Int16_Equals_m3925135434_AdjustorThunk
D_c:__Z44Register_UnityEngine_CanvasRenderer_get_cullv
Vbh:_Enumerator_Dispose_m2532362830_AdjustorThunk
ZKf:__ZL60IHashCodeProvider_t1980576455_CustomAttributesCacheGeneratorP21CustomAttributesCache
mZb:__ZN13ProduceHelperI13MonoBehaviourLb0EE7ProduceE18MemLabelIdentifier18ObjectCreationMode
Lje:_Enumerator_VerifyState_m1677639504_AdjustorThunk
B7a:__Z29StdTemplateConversionFunctionIbbEbPvR14SafeBinaryRead
Wwj:__ZNK15dense_hashtableINSt3__24pairIK10KeyWrapperIPK19Il2CppGenericMethodEP10MethodInfoEES6_N6il2cpp8metadata23Il2CppGenericMethodHashEN14dense_hash_mapIS6_S9_SD_NS6_14EqualsComparerINSC_26Il2CppGenericMethodCompareEEENS0_9allocatorISA_EEE9SelectKeyESH_SJ_E12test_deletedEj
Fmf:_CipherSuiteCollection_get_Item_m280627160
nDb:__Z44InitializeTransferFunctionScriptingTraitsForI17RemapPPtrTransferEvR31TransferFunctionScriptingTraits
Pog:_SerializationInfoEnumerator_MoveNext_m1876990879
qPg:_TimeSpan_Duration_m4205681645
S4a:__ZN14UnityWebStream24UpdateAllUnityWebStreamsEv
kAe:_Collection_1_System_Collections_IList_get_IsReadOnly_m2329986891_gshared
BJf:__ZL60ObsoleteAttribute_t3878847927_CustomAttributesCacheGeneratorP21CustomAttributesCache
XP:__ZN11UnityEngine15CloudWebService14DataErrorEventD2Ev
kae:_Array_InternalArray__ICollection_CopyTo_TisRaycastHit2D_t4063908774_m3837098618_gshared
Cla:__ZN18LoadSceneOperation21MustCompleteNextFrameEv
NK:__ZNK12AudioManager16GetAudioListenerEv
pHg:_MonoField_get_FieldType_m598011426
jAe:_Collection_1_System_Collections_IList_get_IsFixedSize_m1624702704_gshared
x$f:__ZL48Camera_t189460977_CustomAttributesCacheGeneratorP21CustomAttributesCache
K0a:__ZNSt3__26vectorI11CameraStackNS_9allocatorIS1_EEE8__appendEj
Zkj:__ZNSt3__212basic_stringIcNS_11char_traitsIcEENS_9allocatorIcEEE6__initINS_11__wrap_iterIPcEEEENS_9enable_ifIXsr21__is_forward_iteratorIT_EE5valueEvE4typeESB_SB_
dyc:__ZNK11Rigidbody2D20GetAttachedCollidersER13dynamic_arrayIP10Collider2DLj4EE
e$d:_InputField_OnDisable_m1865339380
USg:_UInt32_System_IConvertible_ToType_m747769316
Cx:__ZN7mecanim9animation12GetHumanPoseERKNS0_18ClipMuscleConstantEPKNS0_10ValueDeltaERNS_5human9HumanPoseE
Zdj:__ZN6il2cpp2vm10Reflection17GetPropertyObjectEP11Il2CppClassPK12PropertyInfo
BRj:_glDeleteVertexArrays__wrapper
LKb:__Z29Transfer_Blittable_ArrayFieldI19StreamedBinaryWriteILb0EEjEvRT_R9ArrayInfoRK23StaticTransferFieldInfo
ZV:__Z13GetFileSystemv
t4:__ZNK5Unity4Type21FindAllDerivedClassesER13dynamic_arrayIPKS0_Lj4EENS0_17TypeFilterOptionsE
m5:__ZN13RuntimeStaticI15GUIEventManagerLb0EE16StaticInitializeEPv
Gub:__ZN14SafeBinaryRead8TransferIfEEvRT_PKc17TransferMetaFlags
rOb:__ZL12InvokeMethodI18StreamedBinaryReadILb0EEEvRK29SerializationCommandArgumentsR31RuntimeSerializationCommandInfo
RRe:_DaylightTime_get_Delta_m2316831491
RCc:__ZNSt3__27__sort5IR24RayHitsByDepthComparitorP12RaycastHit2DEEjT0_S5_S5_S5_S5_T_
l3d:_Array_InternalArray__ICollection_Contains_TisUILineInfo_t3621277874_m1175659630_gshared
GOg:_WaitHandle_WaitOne_m370363697
$fg:__ZL114PointerEventData_t1599784723_CustomAttributesCacheGenerator_PointerEventData_set_pointerCurrentRaycast_m2431897513P21CustomAttributesCache
xDf:_FactoryCache_Lookup_m1681894361
yCd:_DateTime_Subtract_m698282245_AdjustorThunk
nub:__ZThn32_N14SpriteRenderer15AddAsRenderNodeER15RenderNodeQueueRK20DeprecatedSourceData
bHh:_DefaultComparer__ctor_m2470932885_gshared
GLf:__ZL55BinaryReader_t2491843768_CustomAttributesCacheGeneratorP21CustomAttributesCache
VGe:_Collection_1_InsertItem_m724820684_gshared
XWf:__ZL79Convert_t2607082565_CustomAttributesCacheGenerator_Convert_ToUInt64_m1896191125P21CustomAttributesCache
xQa:__ZN19ShaderPropertySheet9SetMatrixEN9ShaderLab16FastPropertyNameERK10Matrix4x4fNS_8SetFlagsE
$5c:_RIPEMD160Managed_Initialize_m3365407578
smb:__Z29GetTextureSizeAllowedMultiple13TextureFormat
dxf:_IPAddress_HostToNetworkOrder_m1092199707
I8g:_Rigidbody2D_AddForce_m3200488178
P4d:_SetPropertyUtility_SetStruct_TisSpriteState_t1353336012_m2898060836_gshared
qad:_SecurityAttribute__ctor_m3425755778
R2b:__ZN21IntermediateRenderers3AddEP20IntermediateRenderer
H7i:_il2cpp_array_element_size
G_h:__Z80RuntimeInvoker_Int32_t2071877448_PlayableHandleU26_t3483893774_Int32_t2071877448PK10MethodInfoPvPS2_
t7f:__ZL139AnimatorControllerPlayable_t4078305555_CustomAttributesCacheGenerator_AnimatorControllerPlayable_INTERNAL_CALL_CrossFadeInternal_m698817831P21CustomAttributesCache
bg:_glCheckFramebufferStatus
C8f:__ZL55TextGenerator_t647235000_CustomAttributesCacheGeneratorP21CustomAttributesCache
b6d:_Array_compare_TisInt32_t2071877448_m840310202_gshared
URh:__Z57RuntimeInvoker_Il2CppObject_Il2CppObject_Byte_t3683104436PK10MethodInfoPvPS2_
eGh:_InternalEnumerator_1_System_Collections_IEnumerator_get_Current_m442726479_AdjustorThunk
fwg:_DESTransform_ECB_m2629024873
GEh:_InternalEnumerator_1_System_Collections_IEnumerator_get_Current_m790514740_AdjustorThunk
mvc:__ZNK15b2DistanceJoint17GetReactionTorqueEf
Hfd:__Z37il2cpp_codegen_get_executing_assemblyPK10MethodInfo
ZVb:__ZN9Transform23VirtualRedirectTransferER17RemapPPtrTransfer
VJf:__ZL57TypedReference_t1025199857_CustomAttributesCacheGeneratorP21CustomAttributesCache
h7d:_Array_InternalArray__IndexOf_TisByte_t3683104436_m3605266236_gshared
c0g:_GUIStyle_set_richText_m1853532836
EGe:_Collection_1_System_Collections_IList_Insert_m435904526_gshared
ooh:_RaycastAllCallback_Invoke_m981876639
NKg:_UnicodeEncoding__ctor_m72484327
YHf:__ZL74Il2CppArray_CustomAttributesCacheGenerator_Array_GetUpperBound_m1352329707P21CustomAttributesCache
xnj:__ZN14dense_hash_mapI10KeyWrapperIP14Il2CppIUnknownEjN6il2cpp5utils11PointerHashIS1_EENS3_14EqualsComparerINSt3__28equal_toIS2_EEEENS9_9allocatorINS9_4pairIKS3_jEEEEE15set_deleted_keyERSF_
Y4:__ZN22BuiltinResourceManager16StaticInitializeEPv
UQe:_NumberFormatter_ScaleOrder_m1915154678
Gjj:__ZN6il2cpp2gc9AllocatorIP12Il2CppThreadE10deallocateEPvj
nPi:_UnityEvent_1_GetDelegate_m2720691419_gshared
ZXi:__ZL25UnresolvedVirtualCall_132P12Il2CppObjectiPK10MethodInfo
Aof:_ClientSessionInfo_SetContext_m2649357891
qVe:_Int32_System_IConvertible_ToInt64_m3790029067_AdjustorThunk
Gyc:__ZN13BoxCollider2D13PrepareShapesER13dynamic_arrayIP7b2ShapeLj4EERK10Matrix4x4f
aMh:__Z69RuntimeInvoker_Boolean_t3825574718_Il2CppObject_DoubleU26_t1208767207PK10MethodInfoPvPS2_
VLd:_RaycasterManager_GetRaycasters_m1154876874
Ntf:_SslStreamBase_InternalReadCallback_m2524917586
W3:__ZN8Remapper6RemoveEi
Koe:_List_1_CheckCollection_m2608305187_gshared
_Ia:__ZN10MemoryFile4ReadEyPvPy
fRg:_Type_get_ContainsGenericParameters_m505913180
kKc:__ZL36CleanupTextRenderingScriptingClassesv
s3f:__ZL82Material_t193706927_CustomAttributesCacheGenerator_Material_SetIntImpl_m4157631275P21CustomAttributesCache
zKe:_ReadOnlyCollection_1__ctor_m3532148437_gshared
zjd:_Array_BinarySearch_m3270245097
Odc:__Z34Mesh_CUSTOM_SetArrayForChannelImplP12Il2CppObject30InternalScriptingShaderChannel34InternalScriptingVertexChannelTypeiP11Il2CppArrayi
fZe:_MonoIO_DeleteFile_m3273821223
F8e:_BigInteger_GenerateRandom_m2507308768
oBd:_DateTime_System_IConvertible_ToDouble_m1431748426_AdjustorThunk
_6h:__Z76RuntimeInvoker_Void_t1841601450_Int32_t2071877448_ContactPoint2D_t3659330976PK10MethodInfoPvPS2_
Z2d:_Array_InternalArray__ICollection_Contains_TisUInt16_t986882611_m510319131_gshared
lbe:_Array_InternalArray__Insert_TisRaycastHit2D_t4063908774_m3174907903_gshared
OEd:_Decimal_ToString_m541380585
kEf:_RepeatContext_get_Previous_m808449037
oTh:__Z60RuntimeInvoker_DateTime_t693205669_Il2CppObject_Il2CppObjectPK10MethodInfoPvPS2_
LFg:_MemberFilter__ctor_m1775909550
Z7i:_il2cpp_class_is_valuetype
l3c:__ZZN18UnityConnectClient23RegisterGlobalCallbacksEvEN41EarlyUpdateUnityConnectClientUpdatestruct7ForwardEv
NB:__ZN11UnityEngine9Animation28GenericAnimationBindingCache25RegisterIAnimationBindingEPKN5Unity4TypeEiP17IAnimationBinding
ZE:__Z106Register_UnityEngine_Experimental_Director_AnimatorControllerPlayable_INTERNAL_CALL_GetLayerWeightInternalv
H_c:__Z70RectTransformUtility_CUSTOM_INTERNAL_CALL_RectangleContainsScreenPointP12Il2CppObjectRK13Vector2fIcallS0_
SHd:_Enum_ToObject_m2601523252
_Lj:dynCall_viiffiii
mtf:_InternalAsyncResult_get_FromWrite_m2893408424
cUi:__ZN6il2cpp2vm5Class15GetElementClassEP11Il2CppClass
E1d:_U3CDelayedSetDirtyU3Ec__Iterator0_System_Collections_IEnumerator_get_Current_m851854792
PTa:__Z20RenderSceneDepthPassRK19SharedRendererSceneRK17ShaderReplaceDatabR17ShaderPassContext
E$a:__Z40ProcessCameraIndexListIsNodeVisibleInOutRK22SceneCullingParametersPK9SceneNodePK4AABBR9IndexList
Iib:__ZN16GraphicsSettings8TransferI17RemapPPtrTransferEEvRT_
tif:_BigInteger_op_LessThanOrEqual_m3528380540
m0e:_StreamReader__ctor_m2654332332
fYc:__ZN2UI6Canvas13UpdateBatchesEb
qzc:__ZN17PolygonCollider2D15TransformPointsERK13dynamic_arrayI8Vector2fLj4EERK10Matrix4x4fRKS1_fP6b2Vec2
Clb:__ZN7Texture19SupportsAsyncUploadI19StreamedBinaryWriteILb0EEEEbRT_
Qme:_List_1_CheckCollection_m3968030679_gshared
QLi:_Predicate_1_BeginInvoke_m3556950370_gshared
rKg:_StringBuilder_ToString_m617673931
vsa:__ZNK13GfxDeviceGLES12GetWireframeEv
tLe:_ReadOnlyCollection_1_System_Collections_ICollection_get_IsSynchronized_m3127987432_gshared
c1c:__ZN11UnityEngine7Connect13ConfigHandler12GetListenersERKN4core12basic_stringIcNS2_20StringStorageDefaultIcEEEE
Nta:__ZN9GfxDevice18AllocRenderSurfaceEb
vXb:__ZN10TagManager32GetSortingLayerUniqueIDFromValueEi
dyi:_AnchorInfo_get_IsComplete_m1247624133
YUd:_Dropdown_Show_m324374589
TY:__ZL27CleanupCoreScriptingClassesv
p0f:__ZL85Component_t3819376471_CustomAttributesCacheGenerator_Component_SendMessage_m913946877P21CustomAttributesCache
cIe:_ReadOnlyCollection_1_System_Collections_ICollection_get_SyncRoot_m769863805_gshared
mOd:_RaycastResult_get_isValid_m2482925612
Cdc:__Z26AnimationCurve_CUSTOM_InitP12Il2CppObjectP11Il2CppArray
HTj:_glUniform1uiv__wrapper
ruc:__ZNK14b2PolygonShape5CloneEP16b2BlockAllocator
wfj:__ZN6il2cpp2vm10Reflection7IsEventEP12Il2CppObject
j3i:__ZNSt3__26__treeINS_12__value_typeIPFvvEPK10MethodInfoEENS_19__map_value_compareIS3_S7_NS_4lessIS3_EELb1EEENS_9allocatorIS7_EEE16__insert_node_atEPNS_16__tree_node_baseIPvEERSI_SI_
D0:__ZN17PersistentManager26GetStreamNameSpaceInternalEi
uG:__ZN4FMOD6System11createSoundEPKcjP22FMOD_CREATESOUNDEXINFOPPNS_5SoundE
kfi:_CanvasRenderer_get_cull_m3577089379
qDe:__ZN23InterfaceActionInvoker2Ii22UICharInfo_t3056636800E6InvokeEjP11Il2CppClassP12Il2CppObjectiS0_
eo:FUNCTION_TABLE_iiifiiii
A$h:__Z66RuntimeInvoker_Void_t1841601450_Int32_t2071877448_Rect_t3681755626PK10MethodInfoPvPS2_
u4g:_Object_Destroy_m4145850038
k_h:__Z109RuntimeInvoker_Void_t1841601450_PlayableHandleU26_t3483893774_Int32_t2071877448_SByte_t454417549_Il2CppObjectPK10MethodInfoPvPS2_
Paj:__ZN6il2cpp2vm4Type14IsSystemDBNullEPK10Il2CppType
X_:__ZN9ShaderLab19CommonPropertyNames13StaticCleanupEPv
L1:__Z31scripting_method_get_returntype18ScriptingMethodPtr
sqh:_ScrollRect_UpdateBounds_m3266596336
Bnb:__ZN15SerializeTraitsI12LightmapDataE8TransferI24GenerateTypeTreeTransferEEvRS0_RT_
mOa:_unity_z_zcfree
FSd:_ColorBlock_GetHashCode_m649325222
eQj:_glStencilOpSeparate__wrapper
f5b:__ZN4Mesh5SetUvEiPKfjj
dma:__ZN7Texture13SetAnisoLimitENS_20AnisotropicFilteringE
uma:__ZN28LightProbeProxyVolumeManager25UpdateSHCoeffsTextureDataER21LightProbeProxyVolume
LHa:__Z18CreateDecompressor15CompressionType18MemLabelIdentifier
Xia:__ZN6prcoreL17RemapGenericFloatI18TexFormatRGBAFloat17TexFormatRGBAHalfEEvPKNS_9InnerInfoE
Vh:_emscripten_glCompressedTexSubImage2D
cCa:__ZN13GfxDeviceGLES22MemoryBarrierImmediateEyN2gl17MemoryBarrierTypeE
pAd:_Convert_ToUInt32_m1336475941
_7f:__ZL132AnimatorControllerPlayable_t4078305555_CustomAttributesCacheGenerator_AnimatorControllerPlayable_INTERNAL_CALL_SetBoolID_m2987425503P21CustomAttributesCache
kmj:__ZN6il2cpp6icalls8mscorlib6System4Type18internal_from_nameEP12Il2CppStringbb
Dja:__ZN6prcoreL26RemapGenericFloatToIntegerI18TexFormatARGBFloat17TexFormatARGB8888EEvPKNS_9InnerInfoE
_Xb:__ZN6Object27GetOffsetOfInstanceIdMemberEv
sTc:_cff_ps_has_glyph_names
ANi:_InvokableCall_1__ctor_m2837611051_gshared
Eih:_EqualityComparer_1__ctor_m1389939323_gshared
abh:_Transform_1_EndInvoke_m1025924012_gshared
WHf:__ZL81Il2CppArray_CustomAttributesCacheGenerator_Array_GetValue_m3550694941____indices0P21CustomAttributesCache
pMe:_ReadOnlyCollection_1_System_Collections_Generic_ICollectionU3CTU3E_get_IsReadOnly_m2873538493_gshared
Rvi:_PatternCompiler_EmitPosition_m3013268572
VCf:_X509SubjectKeyIdentifierExtension__ctor_m1109455121
PWb:__Z13tessTesselateP14TESStesselatoriiiiPKf
sWi:__ZL24UnresolvedVirtualCall_45P12Il2CppObject19DateTime_t693205669PK10MethodInfo
iXd:_Graphic_CreateColorFromAlpha_m2614574534
fLg:_UnicodeEncoding_GetHashCode_m2443440683
Pmc:__Z44Register_UnityEngine_GUIStyle_SetDefaultFontv
NCg:_GenericTypeParameterBuilder_GetPropertyImpl_m3566422383
fLb:__Z18Transfer_BlittableI18StreamedBinaryReadILb1EELb1EiEvRK29SerializationCommandArgumentsR31RuntimeSerializationCommandInfo
Ys:__ZN9BlobWrite8TransferI22OffsetPtrArrayTransferIKN4math7_float3EEEEvRT_PKc17TransferMetaFlags
l9c:_TripleDES_IsWeakKey_m483013953
$bh:_Enumerator__ctor_m3819430617_AdjustorThunk
lej:__ZN15dense_hashtableINSt3__24pairIK10KeyWrapperINS1_IPK12PropertyInfoP11Il2CppClassEEEjEES9_17ReflectionMapHashIS8_EN14dense_hash_mapIS9_jSD_NS9_14EqualsComparerINS0_8equal_toIS8_EEEENS0_9allocatorISB_EEE9SelectKeyESI_SK_E12maybe_shrinkEv
xLb:__Z18Transfer_BlittableI18StreamedBinaryReadILb1EELb1EsEvRK29SerializationCommandArgumentsR31RuntimeSerializationCommandInfo
pz:__ZN26AnimatorControllerPlayable17IsMultithreadableEv
Qcd:_Single_System_IConvertible_ToSByte_m3757385387
t4h:__Z51RuntimeInvoker_Boolean_t3825574718_Slot_t2022531261PK10MethodInfoPvPS2_
f_e:_StreamAsyncResult_SetComplete_m2141125667
ima:__ZL21SetAnisoLimitEnumImplN7Texture20AnisotropicFilteringEb
E$c:__ZN22BaseUnityConnectClient17OnEnterStateReadyEv
WW:__GLOBAL__sub_I_platformdependent_webgl_source_lump_cpp
lZ:__Z21GetManagerFromContexti
Spe:_List_1_get_Count_m634584594_gshared
qib:__ZN14GrowableBufferD2Ev
x1g:_Keyframe_get_tangentMode_m1869200796_AdjustorThunk
Scc:__Z29Input_CUSTOM_GetMouseButtonUpi
j7i:__ZN6il2cpp6icalls8mscorlib6System8MonoType16InternalGetEventEP20Il2CppReflectionTypeP12Il2CppStringi
YSg:_UInt32_System_IConvertible_ToUInt32_m1257480358_AdjustorThunk
TLf:__ZL50FileMode_t236403845_CustomAttributesCacheGeneratorP21CustomAttributesCache
bNc:_UNITY_tt_face_load_maxp
cdc:__Z46Input_CUSTOM_INTERNAL_set_compositionCursorPosRK13Vector2fIcall
ru:__ZN7mecanim5human12FullBodyMaskEv
PUf:__ZL98Activator_t1850728717_CustomAttributesCacheGenerator_Activator_CreateInstance_m1465989661____args1P21CustomAttributesCache
w_:__ZN19ShaderPropertySheet11ComputeHashEv
X9h:__Z111RuntimeInvoker_Il2CppObject_AnimatorClipInfo_t3905751349_AnimatorClipInfo_t3905751349_Il2CppObject_Il2CppObjectPK10MethodInfoPvPS2_
Uuc:__ZN12b2EPCollider24ComputePolygonSeparationEv
kMb:__ZN4PPtrI6ObjectE8TransferI18StreamedBinaryReadILb1EEEEvRT_
$Sd:_ColorTween_get_tweenMode_m2919867230_AdjustorThunk
Qi:_llvm_fabs_f32
JRd:_CanvasScaler_HandleScaleWithScreenSize_m80056230
mQ:__ZN11UnityEngine15CloudWebService16SessionContainer16GetJsonDataBlockEjRKN4core12basic_stringIcNS2_20StringStorageDefaultIcEEEERS6_PjSA_
i1f:__ZL89GameObject_t1756533147_CustomAttributesCacheGenerator_GameObject_AddComponent_m3757565614P21CustomAttributesCache
s6i:__ZNK6il2cpp5utils10functional6FilterINSt3__212basic_stringIcNS3_11char_traitsIcEENS3_9allocatorIcEEEENS0_11StringUtils21CaseSensitiveComparerEEclIPKcEEbRKT_
_Cg:_GenericTypeParameterBuilder_get_AssemblyQualifiedName_m902593295
ILg:_UTF7Encoding_InternalGetBytes_m2772055844
hkh:_EqualityComparer_1__ctor_m831468288_gshared
f7e:_SimpleCollator__cctor_m2693747668
HEd:_Decimal_CompareTo_m2454501434_AdjustorThunk
S0:__ZN14SafeBinaryReadD2Ev
FRg:_UInt16_System_IConvertible_ToChar_m4055364664
LYb:__Z13RegisterClassI7TextureEvv
hzi:_ExpressionCollection_OnValidate_m1703610065
EMb:__ZN8Gradient8TransferI18StreamedBinaryReadILb1EEEEvRT_
ybh:_Enumerator_Dispose_m2369319718_AdjustorThunk
rWf:__ZL79Convert_t2607082565_CustomAttributesCacheGenerator_Convert_ToUInt16_m3991499696P21CustomAttributesCache
zmc:__Z45Register_UnityEngine_GUIStyle_SetFontInternalv
ABc:__ZN19CollisionListener2DD0Ev
Dxe:_Enumerator_Dispose_m1520016780_AdjustorThunk
nmj:__ZN6il2cpp6icalls8mscorlib6System4Type15MakeGenericTypeEP20Il2CppReflectionTypeP11Il2CppArray
pj:_SDL_PauseAudio
c8i:_il2cpp_class_from_type
fkd:_Array_Sort_m2323017822
Rzj:_GC_clear_mark_bit
Woh:_Scrollbar_UpdateDrag_m3839695926
AYg:_GUILayoutUtility__cctor_m2957755459
_ci:_AudioConfigurationChangeHandler_EndInvoke_m2237100787
W_:__ZN9ShaderLab19CommonPropertyNames16StaticInitializeEPv
_2e:_MissingMemberException__ctor_m3710131950
Oka:__ZN13MemoryManager31DisallowAllocationsOnThisThreadEv
DA:__ZN7mecanim9animation18CreateAvatarOutputEPKNS0_14AvatarConstantEbbRNS_6memory9AllocatorE
Zmc:__Z45GUIUtility_CUSTOM_Internal_GetKeyboardControlv
Hvg:_CspParameters__ctor_m2546931874
Wqb:__ZN14Texture2DArray23VirtualRedirectTransferER14SafeBinaryRead
HWa:__ZNK6Camera21CalculateCanDoShadowsEv
fgh:_Dictionary_2_make_pair_m2631942124_gshared
qXd:_Graphic__cctor_m1643894470
_vj:__ZN6il2cpp2os6Thread12SetStackSizeEj
EAf:_X509ChainElementEnumerator_get_Current_m2232618221
ozb:__ZNK20ArchiveStorageReader15HasStreamBlocksEv
A5b:__ZNK8Renderer16IsVisibleInSceneEv
_Zh:__Z44RuntimeInvoker_AnimatorStateInfo_t2577870592PK10MethodInfoPvPS2_
mqh:_ScrollRect_set_onValueChanged_m3957749575
xW:__Z13VFormatBufferPciPKcz
wNb:__Z18Transfer_BlittableI18StreamedBinaryReadILb0EELb1EhEvRK29SerializationCommandArgumentsR31RuntimeSerializationCommandInfo
tLi:_U3CCreateWhereIteratorU3Ec__Iterator1D_1_Dispose_m1879652802_gshared
UOf:__ZL90SafeHandle_t2733794115_CustomAttributesCacheGenerator_SafeHandle_get_IsInvalid_m3910183075P21CustomAttributesCache
AXb:__ZL24GenerateTilingJobCombineP22GenerateTilingAreaInfo
iZd:_Image_GenerateSimpleSprite_m4275440988
Lhi:_Display_get_systemHeight_m3377672024
uSg:_UInt16_ToString_m3280699191
gPi:_UnityEvent_1_GetDelegate_m2566156550_gshared
Hja:__ZN6prcoreL27StretchGenericFloatBilinearI15TexFormatRFloatEEvPKNS_9InnerInfoE
PPf:__ZL62IDynamicMessageSink_t3056162262_CustomAttributesCacheGeneratorP21CustomAttributesCache
VMh:__Z33RuntimeInvoker_UInt32_t2149682021PK10MethodInfoPvPS2_
zLh:__Z130RuntimeInvoker_Int32_t2071877448_Il2CppObject_Int32_t2071877448_Int32_t2071877448_Il2CppObject_Int32_t2071877448_Int32_t2071877448PK10MethodInfoPvPS2_
U4d:_Array_InternalArray__IEnumerable_GetEnumerator_TisBoolean_t3825574718_m798244337_gshared
jue:_List_1_CopyTo_m158925060_gshared
BQh:__Z102RuntimeInvoker_Il2CppObject_Int32_t2071877448_Int32_t2071877448_Il2CppObject_Il2CppObject_Il2CppObjectPK10MethodInfoPvPS2_
T6d:_Array_IndexOf_TisCustomAttributeNamedArgument_t94157543_m745056346_gshared
nAa:__Z14PadImageBorderR14ImageReferenceii
Qcj:__ZN15dense_hashtableINSt3__24pairIK10KeyWrapperINS1_IPK10MethodInfoP11Il2CppClassEEEjEES9_17ReflectionMapHashIS8_EN14dense_hash_mapIS9_jSD_NS9_14EqualsComparerINS0_8equal_toIS8_EEEENS0_9allocatorISB_EEE9SelectKeyESI_SK_E4findERSA_
d4i:__ZN6il2cpp2vm13MetadataCache28GetFieldDefaultValueForFieldEPK9FieldInfo
Ovh:_ArrayReadOnlyList_1_ReadOnlyError_m2289309720_gshared
Iy:__ZN27AnimationLayerMixerPlayableD2Ev
v5i:__ZN6il2cpp2vm8basepathEPKc
Thh:_DefaultComparer_GetHashCode_m320514092_gshared
wkf:_PKCS1_Verify_v15_m478274703
tI:__ZN12AudioManager39HandlePendingAudioConfigurationCallbackEv
lk:_emscripten_glIsFramebuffer
bDa:__ZNK13TranslateGLES9GetFormatE13TextureFormat17TextureColorSpace
g2b:__ZN12_GLOBAL__N_16qAtan2Eff
Azd:_Convert_ToInt64_m954367741
pk:_JS_Sound_SetLoopPoints
fpd:_ArrayList__ctor_m1467563650
kM:__ZN12AudioManager17ShouldSourcePauseEb
jDj:__ZN6il2cpp2vm26MetadataAllocGenericMethodEv
FEa:__ZN19ConstantBuffersGLES12RecordRenderEv
KHi:_Transform_INTERNAL_set_rotation_m3703763817
uoa:__ZN18AsyncUploadManager22UploadStreamingTextureEP28FileTextureUploadInstruction
Fpc:__ZN9JSONWrite8TransferI10RectOffsetEEvRT_PKc17TransferMetaFlags
Vza:__ZN4crnd12symbol_codec11decode_bitsEj
Vuc:__ZN15b2CircleContact8EvaluateEP10b2ManifoldRK11b2TransformS4_
Tde:_Array_Sort_TisRaycastResult_t21186376_TisRaycastResult_t21186376_m38820193_gshared
mbi:_Animator_ResetTriggerString_m1445965342
r2b:__ZN21FixedBehaviourManagerD0Ev
D5f:__ZL55RaycastHit2D_t4063908774_CustomAttributesCacheGeneratorP21CustomAttributesCache
F_i:_U3CDeathTimerU3Ec__Iterator0_Reset_m1922553478
pZe:_StreamReader__ctor_m3454466728
yI:__ZN4FMOD6System12createReverbEPPNS_6ReverbE
Xvd:_Convert__cctor_m926133987
WTg:_UInt64_Equals_m1243465002
wIi:_Vector2_get_Item_m2792130561
Qka:__Z16MarkDependenciesR27GarbageCollectorThreadStatej
wCf:_X509ChainElementEnumerator_Reset_m3832280427
Weg:__ZL75EventSystem_t3466835263_CustomAttributesCacheGenerator_U3CU3Ef__mgU24cache0P21CustomAttributesCache
g5e:_MulticastDelegate_RemoveImpl_m2024746777
TRd:_CanvasUpdateRegistry_ParentCount_m2367607495
a5e:_MulticastDelegate_Equals_m3064081489
m2h:__Z54RuntimeInvoker_Void_t1841601450_ColorBlock_t2652774230PK10MethodInfoPvPS2_
qgf:_Activator_CreateInstance_m1465989661
R_:__ZNK9Transform11GetPositionEv
Ezi:_PositionAssertion_GetWidth_m2294218483
veg:__ZL111PlayerConnection_t3517219175_CustomAttributesCacheGenerator_PlayerConnection_MessageCallbackInternal_m267902474P21CustomAttributesCache
lRa:__ZN23SharedMeshRenderingData18UnloadVertexStreamEi
HJi:_Vector4_set_Item_m3077071044
Q2b:__ZN31CanvasBatchIntermediateRenderer11AddSubBatchERK16DrawBuffersRangePK19ShaderPropertySheet
q1b:__ZN19RenderEventsContextC2Ei
AO:__Z6simd4fRKf
fae:_Array_InternalArray__ICollection_CopyTo_TisColor32_t874517518_m379086718_gshared
Msh:_Slider_ClampValue_m2851810895
Sk:_emscripten_glEnable
aZg:_GUISkin_set_font_m4009958323
fPi:_UnityEvent_1_FindMethod_Impl_m3813546_gshared
_pj:__ZN6il2cpp2gc16GarbageCollector29RegisterFinalizerForNewObjectEP12Il2CppObject
Sfb:__ZN10TagManager23VirtualRedirectTransferER14SafeBinaryRead
tpi:_MarshalAsAttribute__ctor_m1892084128
xMc:_UNITY_FT_Init_Class_ft_grays_raster
sYh:__Z53RuntimeInvoker_Void_t1841601450_Vector3U26_t425862308PK10MethodInfoPvPS2_
xZa:__Z15InitLightMeshesv
KUf:__ZL97WaitHandle_t677569169_CustomAttributesCacheGenerator_WaitHandle_t677569169____Handle_PropertyInfoP21CustomAttributesCache
Xhe:_KeyValuePair_2_ToString_m1391611625_AdjustorThunk
Dn:FUNCTION_TABLE_iifiii
esi:__ZN23InterfaceActionInvoker1IP18Context_t502196753E6InvokeEjP11Il2CppClassP12Il2CppObjectS1_
w4e:_MonoType_HasElementTypeImpl_m1040892148
XPa:__ZN22RenderingCommandBuffer36AcquireAndRegisterSharedMaterialDataEP8Material
coe:_List_1_System_Collections_Generic_IEnumerableU3CTU3E_GetEnumerator_m1503548298_gshared
JJb:__Z18Transfer_BlittableI19StreamedBinaryWriteILb0EELb1E8Vector2fEvRK29SerializationCommandArgumentsR31RuntimeSerializationCommandInfo
sRc:_cf2_arrstack_init
yOf:__ZL65ClassInterfaceAttribute_t910653559_CustomAttributesCacheGeneratorP21CustomAttributesCache
cbj:__ZN15dense_hashtableINSt3__24pairIK10KeyWrapperINS1_IPK14Il2CppAssemblyP11Il2CppClassEEEjEES9_17ReflectionMapHashIS8_EN14dense_hash_mapIS9_jSD_NS9_14EqualsComparerINS0_8equal_toIS8_EEEENS0_9allocatorISB_EEE9SelectKeyESI_SK_E15insert_noresizeERKSB_
hU:__Z15CleanLogHandler7LogTypePKcz
fTb:__ZN9ShaderLab19SerializedSubShader8TransferI19StreamedBinaryWriteILb0EEEEvRT_
apd:_CharEnumerator_Reset_m2412204068
lLg:_UTF32Encoding_GetBytes_m2290150495
wBb:__ZN6Camera17RemoveImageFilterERK11ImageFilter
EBa:__ZNSt3__218__insertion_sort_3IR25ValueParameterArraySorterPN20GpuProgramParameters14ValueParameterEEEvT0_S6_T_
Jzc:__ZN10ClipperLib7Clipper27ProcessEdgesAtTopOfScanbeamEx
jcg:__ZL102GUIUtility_t3275770671_CustomAttributesCacheGenerator_GUIUtility_EndContainerGUIFromException_m8097082P21CustomAttributesCache
_Yc:__ZZN2UI11CanvasGroup15InitializeClassEvEN38FunctorImpl_117kTransformParentChanged4CallEPviR11MessageData
Klh:_LayoutUtility_GetLayoutProperty_m4052007472
ENi:_InvokableCall_1_Invoke_m3239892614_gshared
wPc:_Horizontal_Sweep_Init
UQa:__ZNSt3__214__split_bufferI20ComputeShaderVariantRNS_9allocatorIS1_EEED2Ev
wHc:__ZNSt3__26vectorIN4core12basic_stringIcNS1_20StringStorageDefaultIcEEEE13stl_allocatorIS5_L18MemLabelIdentifier34ELi16EEE7reserveEj
Qej:__ZNK10KeyWrapperINSt3__24pairIPK9EventInfoP11Il2CppClassEEE14EqualsComparerINS0_8equal_toIS7_EEEclERKS8_SE_
Yof:_Context_set_WriteSequenceNumber_m3356252710
zTe:_Guid_Equals_m2389236871
k$:__Z27LogRepeatingStringWithFlagsRKN4core12basic_stringIcNS_20StringStorageDefaultIcEEEE15LogMessageFlagsi
Uw:__ZNK8Playable11GetDurationEv
mx:__ZN17AnimationPlayable28ComputeNeedsBindingRebuildedEv
MGh:_DefaultComparer__ctor_m2859550749_gshared
Xai:_AnimationEvent_get_functionName_m4178006856
Sle:_List_1_CheckIndex_m3609163576_gshared
E1i:__ZNK15dense_hashtableINSt3__24pairIK10KeyWrapperI13dynamic_arrayIPK10Il2CppTypeLj4EEEPFvvEEES8_N6il2cpp8metadata19Il2CppSignatureHashEN14dense_hash_mapIS8_SB_SF_NS8_14EqualsComparerINSE_22Il2CppSignatureCompareEEENS0_9allocatorISC_EEE9SelectKeyESJ_SL_E12test_deletedERK30dense_hashtable_const_iteratorISC_S8_SF_SN_SJ_SL_E
uxb:__ZN15ResourceManagerD0Ev
eAf:_X509ExtensionCollection__ctor_m1324282194
M1c:__ZN18UnityConnectClient33OnPlayerSessionStateChangedStaticEPS_jyy
DKf:__ZL74CaseInsensitiveHashCodeProvider_t2307530285_CustomAttributesCacheGeneratorP21CustomAttributesCache
oUg:_UIntPtr__ctor_m3900568171_AdjustorThunk
exa:__ZN7ApiGLES4LoadE16GfxDeviceLevelGL
Onb:__ZN18StreamedBinaryReadILb0EE21TransferSTLStyleArrayI13dynamic_arrayI31EnlightenSystemAtlasInformationLj8EEEEvRT_17TransferMetaFlags
Oza:__ZN4crnd12crn_unpacker22decode_color_endpointsEv
fpj:__ZN15dense_hashtableI10KeyWrapperIP18Il2CppGenericClassES3_N6il2cpp8metadata22Il2CppGenericClassHashEN14dense_hash_setIS3_S6_NS3_14EqualsComparerINS5_25Il2CppGenericClassCompareEEENSt3__29allocatorIS3_EEE8IdentityESA_SD_E15insert_noresizeERKS3_
bJe:_ReadOnlyCollection_1_System_Collections_IList_Clear_m3006875897_gshared
x0b:__ZZL31RegisterOtherRendererPropertiesR22GenericPropertyBindingEN30Wrapper_RendererReceiveShadows13GetFloatValueEPv
dle:_Enumerator_System_Collections_IEnumerator_get_Current_m3866069145_gshared
s8e:_PreviousInfo_t581002487_marshal_pinvoke_cleanup
X9:__ZN8Material11SetPassFastEPN9ShaderLab4PassER17ShaderPassContextP6Shaderib
j5a:__ZNK13ScreenManager13GetLockCursorEv
K1c:__ZN11UnityEngine7Connect20BasePersistentValues10SaveValuesER9JSONWrite
G6g:_Rect_get_max_m96665935_AdjustorThunk
wbg:__ZL87GUIStyle_t1799908754_CustomAttributesCacheGenerator_GUIStyle_set_fixedWidth_m2562018757P21CustomAttributesCache
VMd:_ExecuteEvents_get_pointerDownHandler_m1172742772
kBe:_Collection_1_RemoveAt_m560005219_gshared
QCc:__ZNSt3__27__sort4IR24RayHitsByDepthComparitorP12RaycastHit2DEEjT0_S5_S5_S5_T_
TBf:_X509CertificateEnumerator_System_Collections_IEnumerator_MoveNext_m3708362145
tTa:__Z12SetupLODFadeR9GfxDeviceR17ShaderPassContextf
Sxc:__ZN26b2PolygonAndCapsuleContact6CreateEP9b2FixtureiS1_iP16b2BlockAllocator
kZa:__ZL24CollectForwardObjectsJobP27CollectForwardObjectsHeader
f3b:__ZN8Playable13SetGameObjectEP10GameObject
x3i:__ZNK15dense_hashtableINSt3__24pairIK10KeyWrapperIPK11Il2CppClassEPKcEES6_N6il2cpp5utils11PointerHashIS3_EEN14dense_hash_mapIS6_S9_SE_NS6_14EqualsComparerINS0_8equal_toIS5_EEEENS0_9allocatorISA_EEE9SelectKeyESJ_SL_E12test_deletedERK24dense_hashtable_iteratorISA_S6_SE_SN_SJ_SL_E
ZRf:__ZL53HMACSHA256_t2622794722_CustomAttributesCacheGeneratorP21CustomAttributesCache
D0a:__ZNK25CameraStackRenderingState24ResolveTempToEyeTexturesEv
c$a:__Z13IsNodeVisibleRK9SceneNodeRK4AABBRK22SceneCullingParameters
sFg:_EventInfo__ctor_m1190141300
Gxh:_InternalEnumerator_1_MoveNext_m3585886944_gshared
J_c:__Z57RectTransformUtility_CUSTOM_INTERNAL_CALL_PixelAdjustRectP12Il2CppObjectS0_R5RectTIfE
erg:_DelayedFixupRecord_FixupImpl_m4249966635
EVj:_emscripten_glStencilMask__wrapper
CKc:__ZZ29InitializeTextRenderingModulevEN40CleanUpTextRenderingGarbageCollectstruct7ForwardEv
Z1:__ZN11TypeManager19ClassNameToTypeInfoEPKcb
R8e:_BigInteger_ToString_m3837784224
SPa:__ZN15RenderNodeQueue7CleanupEv
qKa:__ZNK17ArchiveFileSystem8PositionERK13FileEntryData
sGc:__ZN16NovodexAllocator8allocateEjPKcS1_i
hGd:_DllNotFoundException__ctor_m267198482
LYa:__Z17PrepareShadowMapsRK11CullResultsRK11ActiveLightRK10MinMaxAABB
ojg:__ZL81U3CMouseDragOutsideRectU3Ec__Iterator1_t2599668326_CustomAttributesCacheGeneratorP21CustomAttributesCache
NMg:_NativeEventCalls_CreateEvent_internal_m1605829321
Kme:_List_1_GetIndex_m3409004147_gshared
Tcg:__ZL73RuntimePlatform_t1869584967_CustomAttributesCacheGenerator_MetroPlayerX64P21CustomAttributesCache
OVi:__ZL24UnresolvedVirtualCall_13P12Il2CppObjectaPK10MethodInfo
Mpj:__ZN15dense_hashtableINSt3__24pairIK10KeyWrapperIP12Il2CppObjectEN6il2cpp2gc9CachedCCWEEES5_NS7_5utils11PointerHashIS3_EEN14dense_hash_mapIS5_S9_SD_NS5_14EqualsComparerINS0_8equal_toIS4_EEEENS0_9allocatorISA_EEE9SelectKeyESI_SK_E12expand_arrayEjN21dense_hash_map_traits17integral_constantIbLb0EEE
oBh:_InternalEnumerator_1_System_Collections_IEnumerator_get_Current_m3239681450_AdjustorThunk
$Qb:__ZNSt3__26vectorIN9ShaderLab20SerializedSubProgram15VectorParameterENS_9allocatorIS3_EEEC2ERKS6_
hZa:__ZN9ShaderLab10GrabPassesD2Ev
Q3g:_MonoBehaviour_set_useGUILayout_m2666356651
frb:__ZN14Texture2DArray13UploadTextureEv
y2h:__Z69RuntimeInvoker_TextGenerationSettings_t2543476768_Vector2_t2243707579PK10MethodInfoPvPS2_
bcd:_SecurityFrame_t1002202659_marshal_pinvoke
LOc:_tt_cmap14_done
Fla:__ZN18AwakeFromLoadQueue25RegisterObjectInstanceIDsEv
xmd:_Buffer_BlockCopy_m1586717258
xRf:__ZL93X509Certificate_t283079845_CustomAttributesCacheGenerator_X509Certificate_GetName_m2354987368P21CustomAttributesCache
sIc:__ZN20TextRenderingPrivate19NativeTextGenerator15InsertCharacterEiPj
szh:_InternalEnumerator_1__ctor_m3589241961_AdjustorThunk
Dzc:__ZTv0_n12_N10ClipperLib7ClipperD0Ev
BJd:_CompareInfo_GetSortKey_m3691382873
Pwc:__ZN11b2RopeJoint24SolveVelocityConstraintsERK12b2SolverData
BDd:_DBNull_ToString_m3228904745
jyf:_WebHeaderCollection_AddWithoutValidate_m1479880592
O7c:_SHA1Managed_HashCore_m2658295635
tVh:__Z80RuntimeInvoker_Void_t1841601450_Int32_t2071877448_Int32_t2071877448_Il2CppObjectPK10MethodInfoPvPS2_
Yy:__ZN17AnimationPlayableD0Ev
Nkf:_RC4_get_IV_m506011366
TDi:_X509Crl__ctor_m2469408229
qKb:__Z18Transfer_BlittableI19StreamedBinaryWriteILb0EELb0EyEvRK29SerializationCommandArgumentsR31RuntimeSerializationCommandInfo
MOf:__ZL82SafeHandle_t2733794115_CustomAttributesCacheGenerator_SafeHandle_Close_m1146946803P21CustomAttributesCache
XIh:_Enumerator_get_CurrentValue_m3562053380_AdjustorThunk
$Cf:_X509SubjectKeyIdentifierExtension_CopyFrom_m136762226
aje:_Enumerator_System_Collections_IEnumerator_Reset_m610822832_AdjustorThunk
Rif:_ASN1_get_Length_m778823697
Dec:__Z41MonoBehaviour_Set_Custom_PropUseGUILayoutP12Il2CppObjecth
nJc:_UNITY_FT_Open_Face
tRj:_glGenRenderbuffers__wrapper
Edi:_Bounds_ToString_m1966597703
M9e:_BigInteger_op_Division_m1581119694
rPb:__ZN16ScriptingManagerD0Ev
rsg:_CallbackHandler_Invoke_m1498072969
mwg:_DSACryptoServiceProvider__ctor_m701823690
qYg:_Mathf_Clamp_m2354025655
ezg:_CustomAttributeData_GetCustomAttributes_m2421330738
isf:_SecurityParameters_set_ClientWriteMAC_m1970377285
xrj:__ZN30dense_hashtable_const_iteratorINSt3__24pairIK10KeyWrapperINS1_IPKcS4_EEEiEES6_24NamespaceAndNamePairHashN14dense_hash_mapIS6_iS9_NS6_14EqualsComparerI26NamespaceAndNamePairEqualsEENS0_9allocatorIS8_EEE9SelectKeyESD_SF_EppEv
mQg:_Type_get_IsEnum_m313908919
Zac:__Z44Register_UnityEngine_Component_get_transformv
wue:_List_1_Reverse_m3395936565_gshared
xBe:_Collection_1_System_Collections_ICollection_CopyTo_m1335644572_gshared
rse:_List_1_CheckMatch_m2830747427_gshared
EHa:__ZN17ArchiveFileSystem12MountArchiveEPKcS1_
SFd:_StackFrame_GetMethod_m72881026
Poc:__Z18Transfer_BlittableI9JSONWriteLb1E8Vector4fEvRK29SerializationCommandArgumentsR31RuntimeSerializationCommandInfo
XY:__Z11RequireTypePKcS0_S0_
hJh:_Enumerator_System_Collections_IEnumerator_Reset_m70453843_gshared
sob:__ZThn32_NK8Renderer14GetSubsetIndexEi
_Ii:_Vector3_get_Item_m3616014016
Kkg:__ZL59Slider_t297367283_CustomAttributesCacheGenerator_m_MinValueP21CustomAttributesCache
l$b:__ZN13ProduceHelperI15ResourceManagerLb0EE7ProduceE18MemLabelIdentifier18ObjectCreationMode
Cua:__ZN9GfxDevice15ImmediateVertexEfff
sYb:__Z13RegisterClassI8MaterialEvv
PSf:__ZL51Evidence_t1407710183_CustomAttributesCacheGeneratorP21CustomAttributesCache
Jhb:__ZN16GraphicsSettings13AwakeFromLoadE17AwakeFromLoadMode
HId:_FieldAccessException__ctor_m3893881490
M$h:__Z82RuntimeInvoker_Int32_t2071877448_Rect_t3681755626_Il2CppObject_Vector2_t2243707579PK10MethodInfoPvPS2_
Ip:__ZN6Object13AwakeFromLoadE17AwakeFromLoadMode
osa:__ZN13GfxDeviceGLES15SetStencilStateEPK18DeviceStencilStatei
Tcj:__ZN15dense_hashtableINSt3__24pairIK10KeyWrapperINS1_IPK10MethodInfoP11Il2CppClassEEEjEES9_17ReflectionMapHashIS8_EN14dense_hash_mapIS9_jSD_NS9_14EqualsComparerINS0_8equal_toIS8_EEEENS0_9allocatorISB_EEE9SelectKeyESI_SK_E6insertERKSB_
BHj:_cycle
xGi:_TextGenerator_Populate_m4139823822
YZf:__ZL72PKCS12_t1362584795_CustomAttributesCacheGenerator_U3CU3Ef__switchU24map5P21CustomAttributesCache
Ld:_emscripten_glUniform1iv
huh:_Text_get_preferredHeight_m452532789
nCc:__ZN15b2DistanceProxy3SetEPK7b2Shapei
Gdd:_String_System_IConvertible_ToDouble_m3860911722
S7a:__ZN16MemoryFileSystemD2Ev
neh:_Dictionary_2_System_Collections_Generic_ICollectionU3CSystem_Collections_Generic_KeyValuePairU3CTKeyU2CTValueU3EU3E_Contains_m842343255_gshared
jSb:__ZN9ShaderLab18SerializedPropertyD2Ev
EIc:__Z17dynamic_pptr_castIP9Texture2D7TextureET_RK4PPtrIT0_E
Kx:__ZN7mecanim14ValueArrayLoopERKNS_10ValueArrayES2_RS0_fRKNS_14ValueArrayMaskE
sKe:_ReadOnlyCollection_1_System_Collections_IList_set_Item_m1272038804_gshared
Swh:_InternalEnumerator_1_System_Collections_IEnumerator_get_Current_m1931522460_AdjustorThunk
mad:_SecurityPermission_IsEmpty_m1869313067
Cac:__Z37Register_UnityEngine_Camera_get_depthv
Zcf:_EncryptedPrivateKeyInfo_get_Salt_m2734354394
oMe:_ReadOnlyCollection_1_System_Collections_Generic_IListU3CTU3E_set_Item_m1918537449_gshared
$ze:_Collection_1_System_Collections_ICollection_CopyTo_m3896480607_gshared
zNd:_PointerEventData_set_position_m794507622
K$h:__Z115RuntimeInvoker_Void_t1841601450_Rect_t3681755626_Il2CppObject_Int32_t2071877448_Int32_t2071877448_Int32_t2071877448PK10MethodInfoPvPS2_
N7:__ZN15dense_hashtableINSt3__24pairIKPKcPK4RTTIEES3_N11TypeManager23ConstCharPtrHashFunctorEN14dense_hash_mapIS3_S7_SA_NS9_19ConstCharPtrEqualToE13stl_allocatorIS8_L18MemLabelIdentifier6ELi16EEE9SelectKeyESC_SF_E12resize_deltaEjj
SXb:__ZN15ApplicationInfo16GetInstallerNameEv
D7a:__Z23ConvertIntegerToTypePtrItEbPvR14SafeBinaryRead
rli:_AnimatorControllerPlayable_IsParameterControlledByCurveID_m4183631446
Hu:__ZN7mecanim5human29HumanGetGoalOrientationOffsetENS0_4GoalE
ae:_emscripten_glStencilFunc
OQh:__Z101RuntimeInvoker_Void_t1841601450_Il2CppObject_Il2CppObject_Il2CppObject_Il2CppObject_Int32_t2071877448PK10MethodInfoPvPS2_
HVi:__ZL23UnresolvedVirtualCall_6P12Il2CppObjectiPK10MethodInfo
Qgh:_DefaultComparer_GetHashCode_m3315096533_gshared
gIg:_MonoMethod_MakeGenericMethod_impl_m2063853616
ccd:__Z46il2cpp_codegen_get_marshal_directive_exceptionPKc
hUb:__ZN9ShaderLab20SerializedSubProgram14AddMatrixParamEPKcii15ShaderParamTypei
ge:_glGetActiveUniformBlockName
$Vd:_FontData_set_verticalOverflow_m4211463083
CD:__ZN26AnimatorControllerPlayable23ValidateParameterStringE17GetSetValueResultRKN4core12basic_stringIcNS1_20StringStorageDefaultIcEEEE
KIf:__ZL65Il2CppArray_CustomAttributesCacheGenerator_Array_Sort_m2090966156P21CustomAttributesCache
HTe:_Guid_AppendByte_m2890893073
QDg:_MethodBuilder_Invoke_m1874904900
Xwf:__ZN21InterfaceFuncInvoker1IbP13Uri_t19570940E6InvokeEjP11Il2CppClassP12Il2CppObjectS1_
Jnd:_Char_System_IConvertible_ToType_m3106771703_AdjustorThunk
cFf:_Interval_Intersects_m3480157390_AdjustorThunk
xdc:__Z39Quaternion_CUSTOM_INTERNAL_CALL_InverseRK11QuaternionfRS_
dpi:_GCHandle_Alloc_m1063472408
qJ:__ZN4FMOD7Channel20set3DConeOrientationEP11FMOD_VECTOR
Kgg:__ZL86StandaloneInputModule_t70867863_CustomAttributesCacheGenerator_m_InputActionsPerSecondP21CustomAttributesCache
sn:FUNCTION_TABLE_iiifii
xIh:_Comparer_1__ctor_m4052560291_gshared
A6f:__ZL54SkeletonBone_t345082847_CustomAttributesCacheGeneratorP21CustomAttributesCache
uvg:_CryptoConfig_CreateFromName_m391442950
wsj:__ZN6il2cpp2vm12GenericClass11SetupEventsEP11Il2CppClass
TUc:_tt_delta_interpolate
EOc:_tt_cmap12_get_info
Jud:_SortedList__ctor_m3698381356
q8h:__Z31RuntimeInvoker_Slot_t2022531261PK10MethodInfoPvPS2_
_nj:__ZN6il2cpp2vm15ReboxIReferenceEP14Il2CppIUnknownP11Il2CppClass
RLi:_Predicate_1_EndInvoke_m3656575065_gshared
V0e:_StreamWriter_LowLevelWrite_m4205372900
NPi:__ZN6il2cpp6icalls8mscorlib6System7Decimal14decimalCompareEP19il2cpp_decimal_reprS5_
aCj:__ZThn4_N6il2cpp2vm13CachedCCWBaseINS0_13ManagedObjectEE7ReleaseEv
qGg:_Module__ctor_m3853650010
nsd:_CollectionBase_System_Collections_IList_get_Item_m2370387510
MQf:__ZL59RemotingException_t109604560_CustomAttributesCacheGeneratorP21CustomAttributesCache
Ide:_Array_Sort_TisCustomAttributeNamedArgument_t94157543_m3436077809_gshared
ISj:_glCopyTexImage2D__wrapper
A8g:_ResourceRequest__ctor_m3340010930
WTf:__ZL88UTF7Encoding_t741406939_CustomAttributesCacheGenerator_UTF7Encoding_GetBytes_m3015176946P21CustomAttributesCache
N0d:_LayoutElement__ctor_m789941073
kfg:__ZL77ExecuteEvents_t1693084770_CustomAttributesCacheGenerator_U3CU3Ef__mgU24cache9P21CustomAttributesCache
Xdi:_Camera_FireOnPreCull_m1679634170
bOf:__ZL68TargetInvocationException_t4098620458_CustomAttributesCacheGeneratorP21CustomAttributesCache
TXf:__ZL56RankException_t1539875949_CustomAttributesCacheGeneratorP21CustomAttributesCache
iha:__Z18ClearByDrawingQuad13GfxClearFlagsRK10ColorRGBAffjR17ShaderPassContext
Pri:_DynamicPropertyCollection_FindProperty_m1233265924
dja:__ZN6prcoreL17RemapGenericFloatI14TexFormatRHalf15TexFormatRFloatEEvPKNS_9InnerInfoE
gTa:__Z16ShouldUseShadowsb
iY:__ZN15DirectorManager21RebuildStageCallbacksEv
dka:__ZN19RuntimeSceneManager9LoadSceneERKN4core12basic_stringIcNS0_20StringStorageDefaultIcEEEES6_S6_RK9UnityGUIDiNS_11LoadingModeE
eWi:__ZL24UnresolvedVirtualCall_31P12Il2CppObjectiS0_S0_PK10MethodInfo
T5h:__Z55RuntimeInvoker_Int32_t2071877448_UICharInfo_t3056636800PK10MethodInfoPvPS2_
HAa:__ZN7ApiGLES10DrawArraysE16GfxPrimitiveTypejjj
xii:_Event_PopEvent_m1952528237
ZG:__ZN10SampleClip13LoadBaseSoundEv
lPh:__Z62RuntimeInvoker_Il2CppObject_Int32_t2071877448_SByte_t454417549PK10MethodInfoPvPS2_
mqj:__ZN15dense_hashtableINSt3__24pairIK10KeyWrapperIP12Il2CppObjectEN6il2cpp2gc9CachedCCWEEES5_NS7_5utils11PointerHashIS3_EEN14dense_hash_mapIS5_S9_SD_NS5_14EqualsComparerINS0_8equal_toIS4_EEEENS0_9allocatorISA_EEE9SelectKeyESI_SK_E15insert_noresizeERKSA_
HEe:_Collection_1_Contains_m643401393_gshared
hha:__ZN22DeviceMVPMatricesStateC2ER9GfxDevice
JTh:__Z48RuntimeInvoker_Int64_t909078037_Int64_t909078037PK10MethodInfoPvPS2_
ydd:_String__ctor_m372528291
cn:FUNCTION_TABLE_iifii
Lhj:__ZN6il2cpp2vm10Reflection12HasAttributeEP9FieldInfoP11Il2CppClass
ola:__ZNSt3__26__treeIiNS_4lessIiEE13stl_allocatorIiL18MemLabelIdentifier1ELi16EEE7destroyEPNS_11__tree_nodeIiPvEE
oc:invoke_viiifi
Kji:_AnimationClipPlayable_GetSpeed_m668389965
X3e:_LongComparer_Compare_m3981323622
fNh:__Z64RuntimeInvoker_UInt64_t2909196914_Il2CppObject_Int32_t2071877448PK10MethodInfoPvPS2_
ISd:_ContentSizeFitter_get_horizontalFit_m892469688
ymg:__ZL109LayoutUtility_t4076838048_CustomAttributesCacheGenerator_LayoutUtility_U3CGetFlexibleHeightU3Em__7_m947156537P21CustomAttributesCache
ncf:__ZN23InterfaceActionInvoker2IP8String_tP12Il2CppObjectE6InvokeEjP11Il2CppClassS3_S1_S3_
Ysh:_Slider_FindSelectableOnUp_m15474611
Wpa:__ZNK11AssetBundle14GetPreloadDataEiR13dynamic_arrayIiLj4EE
fef:_EncryptedData_get_EncryptedContent_m2732115576
YRh:__Z81RuntimeInvoker_Boolean_t3825574718_SByte_t454417549_Il2CppObject_SByte_t454417549PK10MethodInfoPvPS2_
i_i:_gameController__ctor_m1227027333
qf:_JS_Sound_SetPosition
fxi:_Assertion_set_FalseExpression_m1781616372
XCf:_X509SubjectKeyIdentifierExtension_FromHexChars_m2515150420
mna:__ZNK9Texture3D26CanReuploadDataToGfxDeviceEv
G3i:__ZL13GetSharedInstPK17Il2CppGenericInst
rJf:__ZL51IReflect_t3412036974_CustomAttributesCacheGeneratorP21CustomAttributesCache
yPd:_StandaloneInputModule_SendSubmitEventToSelectedObject_m3421155293
WEc:__ZN13ProduceHelperI10Collider2DLb1EE7ProduceE18MemLabelIdentifier18ObjectCreationMode
mgi:_Component_GetComponentsInChildren_m908027537
R$c:__ZN22BaseUnityConnectClient17SaveSessionValuesEv
Cti:_CallContextRemotingData_Clone_m2226242476
r0:__Z63ThreadAndSerializationSafeCheckSetMonoBehaviourBeingTransferredP13MonoBehaviour
nZa:__Z24SetupActiveLightsContextR21ActiveLightingContextRK12ActiveLightsRK11CullResultsP14ShadowMapCacheRK10MinMaxAABB
dfh:_Dictionary_2_System_Collections_Generic_ICollectionU3CSystem_Collections_Generic_KeyValuePairU3CTKeyU2CTValueU3EU3E_Contains_m3400497673_gshared
Sfc:__Z38Sprite_CUSTOM_INTERNAL_get_textureRectP12Il2CppObjectP5RectTIfE
xDd:_DBNull_System_IConvertible_ToUInt32_m2681284284
xgj:__ZNK15dense_hashtableINSt3__24pairIK10KeyWrapperIPK22Il2CppGenericParameterEPK24MonoGenericParameterInfoEES6_N6il2cpp5utils11PointerHashIS4_EEN14dense_hash_mapIS6_SA_SF_NS6_14EqualsComparerINS0_8equal_toIS5_EEEENS0_9allocatorISB_EEE9SelectKeyESK_SM_E3endEv
G0g:_HumanBone_set_boneName_m2410239828_AdjustorThunk
$gb:__ZN6Camera8TransferI24GenerateTypeTreeTransferEEvRT_
Ljh:_EqualityComparer_1__cctor_m416314417_gshared
Ka:invoke_iiiiiiif
Ga:invoke_iiiiiiii
Zzb:__ZN24RingBufferMemoryFileData16ConsumeReadBytesEy
c3g:_Mesh_GetUVChannel_m364477864
oBf:_X509ChainElementCollection_Contains_m3599995067
uWj:b120
xWj:b123
wWj:b122
zWj:b125
yWj:b124
BWj:b127
AWj:b126
DWj:b129
ifc:__Z52Register_UnityEngine_RectTransform_INTERNAL_get_rectv
MJh:__Z53RuntimeInvoker_Il2CppObject_Il2CppObject_Il2CppObjectPK10MethodInfoPvPS2_
JY:__Z21PostprocessStacktracePKcRN4core12basic_stringIcNS1_20StringStorageDefaultIcEEEE
Cte:_List_1_ToArray_m2390522926_gshared
VOf:__ZL70TypeLibImportClassAttribute_t2390314680_CustomAttributesCacheGeneratorP21CustomAttributesCache
zaa:__ZN19RenderBufferManager13GetTempBufferEii17DepthBufferFormat19RenderTextureFormatj22RenderTextureReadWrite14VRTextureUsagei
zad:__ZN21InterfaceFuncInvoker0IbE6InvokeEjP11Il2CppClassP12Il2CppObject
NMa:__ZNSt3__26vectorIPN9ShaderLab9SubShaderENS_9allocatorIS3_EEE21__push_back_slow_pathIKS3_EEvRT_
W3d:_Array_InternalArray__ICollection_Remove_TisX509ChainStatus_t4278378721_m4127982424_gshared
Mac:__Z47Register_UnityEngine_Camera_get_allCamerasCountv
H9h:__Z37RuntimeInvoker_Enumerator_t2809602155PK10MethodInfoPvPS2_
M6c:___clang_call_terminate
U$c:__ZN22BaseUnityConnectClient20StartEventDispatcherEv
o5b:__ZNSt3__26vectorIj13stl_allocatorIjL18MemLabelIdentifier1ELi16EEE6assignIPKtEENS_9enable_ifIXaasr21__is_forward_iteratorIT_EE5valuesr16is_constructibleIjNS_15iterator_traitsIS9_E9referenceEEE5valueEvE4typeES9_S9_
As:__ZN7mecanim9animation16EvaluateAvatarIKEPKNS0_14AvatarConstantEPKNS0_11AvatarInputEPNS0_12AvatarOutputEPNS0_12AvatarMemoryEPNS0_15AvatarWorkspaceEb
iBa:__ZL25ProgramUniformMatrix4x3fvPK7ApiGLESjiihPKv
W6a:__Z29StdTemplateConversionFunctionIsiEbPvR14SafeBinaryRead
RZh:__Z83RuntimeInvoker_Il2CppObject_RayU26_t3651946800_Single_t2076509932_Int32_t2071877448PK10MethodInfoPvPS2_
TMa:__ZN12InputManager13InputEndFrameEv
oud:_SyncHashtable__ctor_m2029869827
G6i:__ZNSt3__26__treeIP11Il2CppClassNS_4lessIS2_EENS_9allocatorIS2_EEE25__emplace_unique_key_argsIS2_JRKS2_EEENS_4pairINS_15__tree_iteratorIS2_PNS_11__tree_nodeIS2_PvEEiEEbEERKT_DpOT0_
Jjj:__ZN6il2cpp2vm6Thread5SetupEP12Il2CppThread
DNe:_ReadOnlyCollection_1_System_Collections_IList_Remove_m2200089035_gshared
Wze:_Collection_1_CheckWritable_m2756357359_gshared
GIj:___munmap
g_d:_InputField_get_characterLimit_m2386380888
vhg:__ZL68ColorBlock_t2652774230_CustomAttributesCacheGenerator_m_PressedColorP21CustomAttributesCache
mzd:_Convert_ToInt64_m1722087499
hg:_localtime_r
FYh:__Z74RuntimeInvoker_Vector3_t2243707580_Vector3_t2243707580_Vector3_t2243707580PK10MethodInfoPvPS2_
_Xh:__Z80RuntimeInvoker_Il2CppObject_Ray_t2469606224_Single_t2076509932_Int32_t2071877448PK10MethodInfoPvPS2_
SUf:__ZL81AppDomain_t2719102437_CustomAttributesCacheGenerator_assembly_resolve_in_progressP21CustomAttributesCache
HOf:__ZL65InterfaceTypeAttribute_t4113096249_CustomAttributesCacheGeneratorP21CustomAttributesCache
jg:_strftime
Jaa:__ZN7Texture33SetStoredColorSpaceNoDirtyNoApplyE17TextureColorSpace
FW:__ZN12FileAccessorD2Ev
dga:__ZN10ColorRGBAf8TransferI18StreamedBinaryReadILb0EEEEvRT_
Srb:__ZN14VertexDataInfoC2Ev
CId:_Exception_GetObjectData_m2653827630
O2f:__ZL75Mesh_t1356156583_CustomAttributesCacheGenerator_Mesh_HasChannel_m3616583481P21CustomAttributesCache
fJi:_Vector3_Equals_m2692262876_AdjustorThunk
Zzh:_InternalEnumerator_1_get_Current_m2415979394_gshared
bMb:__ZL17Transfer_GUIStyleI18StreamedBinaryReadILb1EELb1EEvRK29SerializationCommandArgumentsR31RuntimeSerializationCommandInfo
Yph:_ScrollRect_SetDirtyCaching_m1491302821
$6i:__ZN6il2cpp6icalls8mscorlib6SystemL9IsPrivateEPK12PropertyInfo
gzg:_CustomAttributeData_GetCustomAttributes_m3258419955
g$:__ZN9shadertag10InitializeEv
vTa:__ZN13BatchRenderer20RenderSingleWithPassER17ShaderPassContextPK18SharedMaterialDataP6ShaderPN9ShaderLab4PassEiPKNS7_10GrabPassesEjib15BatchBreakCause
G4f:__ZL80Object_t1021602117_CustomAttributesCacheGenerator_Object_Instantiate_m2489341053P21CustomAttributesCache
ehd:_EncoderFallback__ctor_m1639180960
YD:__Z92Register_UnityEngine_Experimental_Director_AnimationOffsetPlayable_INTERNAL_CALL_SetRotationv
AGh:_InternalEnumerator_1_MoveNext_m1441038493_gshared
Ipb:__ZN15QualitySettings14QualitySetting8TransferI24GenerateTypeTreeTransferEEvRT_
T9d:_Array_InternalArray__ICollection_CopyTo_TisParameterModifier_t1820634920_m4127516211_gshared
Egd:_DecoderReplacementFallback__ctor_m2344783488
K9g:_Enumerator_System_Collections_IDictionaryEnumerator_get_Key_m467957770_AdjustorThunk
_9e:_SequentialSearchPrimeGeneratorBase_GenerateNewPrime_m545729286
EVc:__Z28Font_Get_Custom_PropMaterialP12Il2CppObject
iCj:__ZN6il2cpp6icalls8mscorlib6System9Threading16NativeEventCalls19ResetEvent_internalE12Il2CppIntPtr
afg:__ZL65EventTrigger_t1967201810_CustomAttributesCacheGenerator_delegatesP21CustomAttributesCache
WBe:_Collection_1_Remove_m4136193368_gshared
nMd:_EventTrigger_OnPointerUp_m2791622548
fsh:_Shadow_set_useGraphicAlpha_m141905402
B4b:__ZN22BlockMemoryCacheWriter14LockCacheBlockEjPPhS1_
$vj:__ZN6il2cpp2os6Thread10RunWrapperEPv
ljc:__ZNSt3__218__insertion_sort_3IRPFbPKN5IMGUI9GUIWindowES4_EPPS2_EEvT0_SA_T_
rSi:_GenericEqualityComparer_1_Equals_m1109000020_gshared
Jpg:_RealProxy_InternalGetTransparentProxy_m3415358600
Yrc:__Z22TransferField_NonArrayI8JSONRead27Converter_SimpleNativeClassI8GUIStyleEEvRK23StaticTransferFieldInfoR31RuntimeSerializationCommandInfoRT0_
N0i:__ZN15dense_hashtableI10KeyWrapperIPK19Il2CppGenericMethodES4_N6il2cpp8metadata23Il2CppGenericMethodHashEN14dense_hash_setIS4_S7_NS4_14EqualsComparerINS6_26Il2CppGenericMethodCompareEEENSt3__29allocatorIS4_EEE8IdentityESB_SE_E16reset_thresholdsEv
Bme:__ZN23InterfaceActionInvoker2IP24ObjectU5BU5D_t3614634134iE6InvokeEjP11Il2CppClassP12Il2CppObjectS1_i
P7f:__ZL131AnimatorControllerPlayable_t4078305555_CustomAttributesCacheGenerator_AnimatorControllerPlayable_PlayInternal_m3385259863____layer2P21CustomAttributesCache
Pg:_llvm_eh_typeid_for
x2b:__Z13RegisterClassI10GameObjectEvv
TKf:__ZL53HashValues_t2390200547_CustomAttributesCacheGeneratorP21CustomAttributesCache
_zf:_X509BasicConstraintsExtension_get_PathLengthConstraint_m3004531343
uMf:__ZL125GenericTypeParameterBuilder_t1370236603_CustomAttributesCacheGenerator_GenericTypeParameterBuilder_GetConstructors_m103067670P21CustomAttributesCache
e3e:_MissingMemberException__ctor_m4277447068
Ime:_List_1_Find_m1881447651_gshared
wJg:_StrongNameKeyPair_System_Runtime_Serialization_ISerializable_GetObjectData_m1693082120
Xvf:_NameValueCollection__ctor_m1767369537
SNb:__Z18Transfer_BlittableI18StreamedBinaryReadILb0EELb1E8Vector4fEvRK29SerializationCommandArgumentsR31RuntimeSerializationCommandInfo
Clh:_EqualityComparer_1__ctor_m3155445483_gshared
yuj:__ZN6il2cpp2vm6Method8GetParamEPK10MethodInfoj
CWe:_Int64_CompareTo_m1953686218
ORi:_GenericComparer_1__ctor_m221205314_gshared
cnj:__ZN6il2cpp6icalls8mscorlib6System2IO6MonoIO4ReadE12Il2CppIntPtrP11Il2CppArrayiiPi
eVj:_glBindVertexArray__wrapper
iwg:_DSA_Create_m3450041777
Zea:__ZN8Material8TransferI14SafeBinaryReadEEvRT_
whi:_Debug_LogWarningFormat_m79553173
olb:__ZN12CubemapArray17UploadToGfxDeviceEv
yqh:_ScrollRect_AdjustBounds_m1033723448
qja:__ZN6prcoreL17RemapGenericFloatI15TexFormatRGHalf17TexFormatRGBAHalfEEvPKNS_9InnerInfoE
$je:_Enumerator_System_Collections_IEnumerator_Reset_m2200349770_gshared
DFe:_Collection_1_get_Item_m3791221403_gshared
hSf:__ZL54PaddingMode_t3032142640_CustomAttributesCacheGeneratorP21CustomAttributesCache
tjj:__ZN24dense_hashtable_iteratorINSt3__24pairIK10KeyWrapperIP11Il2CppClassES4_EES5_N6il2cpp8metadata16SZArrayClassHashEN14dense_hash_mapIS5_S4_SA_NS5_14EqualsComparerINS9_19SZArrayClassCompareEEENS0_9allocatorIS7_EEE9SelectKeyESE_SG_E30advance_past_empty_and_deletedEv
K3h:__Z75RuntimeInvoker_Void_t1841601450_ConstraintU26_t2775779428_Int32_t2071877448PK10MethodInfoPvPS2_
$4:__ZN13RuntimeStaticI21AssetReferenceStorageLb0EE16StaticInitializeEPv
JVh:__Z107RuntimeInvoker_Boolean_t3825574718_Int32_t2071877448_Int64U5BU5DU26_t2476256456_StringU5BU5DU26_t3730240492PK10MethodInfoPvPS2_
MAf:_X509Chain_CheckRevocationOnChain_m2441901351
VBj:__ZN6il2cpp2vm13ManagedObject14QueryInterfaceERK10Il2CppGuidPPv
Y8c:_SymmetricAlgorithm_CreateDecryptor_m4240570785
SQg:_Type_GetMethod_m3650909507
tH:__ZN11AudioSource4StopEb
hHj:_frexp
LFb:__ZN14SafeBinaryRead21TransferSTLStyleArrayI13dynamic_arrayI10Matrix4x4fLj4EEEEvRT_17TransferMetaFlags
IFe:_Collection_1_CheckWritable_m732350052_gshared
Kmd:_Byte_System_IConvertible_ToDecimal_m1036493607
IUf:__ZL47Timer_t791717973_CustomAttributesCacheGeneratorP21CustomAttributesCache
D9:__Z25GetSplashScreenBackgroundRK5RectTIfE
M7:__ZN14dense_hash_mapIPKcPK4RTTIN11TypeManager23ConstCharPtrHashFunctorENS5_19ConstCharPtrEqualToE13stl_allocatorINSt3__24pairIKS1_S4_EEL18MemLabelIdentifier6ELi16EEEixERSB_
Cig:__ZL65Image_t2042527209_CustomAttributesCacheGenerator_m_PreserveAspectP21CustomAttributesCache
Q2c:__ZN13RuntimeStaticI19UnityConnectServiceLb0EE16StaticInitializeEPv
_Gh:_DefaultComparer_Compare_m1247109616_gshared
LJg:_ResourceManager__ctor_m498829021
lFa:__ZN18GlslGpuProgramGLESD2Ev
F4a:__ZN13RenderTexture14SetVolumeDepthEi
ssg:_SerializationCallbacks__ctor_m722356782
Csc:__ZN10Matrix4x4f8TransferI8JSONReadEEvRT_
$1:__ZN14dense_hash_mapIPKcPK4RTTIN11TypeManager23ConstCharPtrHashFunctorENS5_19ConstCharPtrEqualToE13stl_allocatorINSt3__24pairIKS1_S4_EEL18MemLabelIdentifier6ELi16EEE5beginEv
IOf:__ZL49Marshal_t785896760_CustomAttributesCacheGeneratorP21CustomAttributesCache
f0:__ZN17PersistentManager18ReadObjectThreadedEi
owa:__ZN25TransformFeedbackSkinning31CleanupTransformFeedbackShadersEv
yyj:__ZN6il2cpp6icalls8mscorlib6System7Runtime16CompilerServices14RuntimeHelpers15InitializeArrayEP11Il2CppArray12Il2CppIntPtr
nQh:__Z92RuntimeInvoker_Void_t1841601450_Il2CppObject_SByte_t454417549_Il2CppObject_Int32_t2071877448PK10MethodInfoPvPS2_
wBh:_InternalEnumerator_1_System_Collections_IEnumerator_get_Current_m2851415307_gshared
uIc:__ZNK20TextRenderingPrivate8FontImpl19GetCharacterAdvanceEjijfPj
tEj:__ZN6il2cpp6icalls8mscorlib4Mono8Security12Cryptography18KeyPairPersistence16_IsUserProtectedEP12Il2CppString
zLe:_ReadOnlyCollection_1_Contains_m3936562733_gshared
mwf:_DefaultUriParser__ctor_m4218024811
GAg:_DerivedType_GetField_m3960169619
_Dd:_Decimal_System_IConvertible_ToInt16_m3159038792_AdjustorThunk
xqb:__ZN10VertexData8TransferI18StreamedBinaryReadILb0EEEEvRT_
Kef:_PKCS12_GetExistingParameters_m2413397265
zLi:_Nullable_1_get_Value_m1743067844_gshared
VDe:_Collection_1_ClearItems_m4268731177_gshared
R4a:__ZN14PreloadManager16UpdatePreloadingEv
tgb:__ZN12BaseRendererD2Ev
HBi:_X509CertificateCollection__ctor_m858704242
$ke:_Enumerator__ctor_m425576865_AdjustorThunk
qOh:__Z148RuntimeInvoker_Int32_t2071877448_Il2CppObject_Int32_t2071877448_Int32_t2071877448_Il2CppObject_Int32_t2071877448_Int32_t2071877448_Int32_t2071877448PK10MethodInfoPvPS2_
ANe:_ReadOnlyCollection_1_System_Collections_IList_Contains_m1545447998_gshared
swj:__ZN14dense_hash_mapI10KeyWrapperIPK19Il2CppGenericMethodEP10MethodInfoN6il2cpp8metadata23Il2CppGenericMethodHashENS4_14EqualsComparerINS8_26Il2CppGenericMethodCompareEEENSt3__29allocatorINSD_4pairIKS4_S6_EEEEEC2EjRKS9_RKSC_
Z9a:__ZNK21UnityDefaultAllocatorI17LowLevelAllocatorE8ContainsEPKv
N4i:__ZNSt3__213__vector_baseI6pollfdNS_9allocatorIS1_EEED2Ev
tof:_ClientSessionInfo_get_Id_m3046630969
Zh:_emscripten_get_main_loop_timing
XYe:_DirectoryInfo__ctor_m3750996792
RQd:_BaseMeshEffect_ModifyMesh_m2134816219
Rce:_Array_qsort_TisVector2_t2243707579_m3527759534_gshared
Hpb:__ZN24GenerateTypeTreeTransfer21TransferSTLStyleArrayINSt3__26vectorIN15QualitySettings14QualitySettingENS1_9allocatorIS4_EEEEEEvRT_17TransferMetaFlags
z8g:_ResourceRequest_t2560315377_marshal_pinvoke_cleanup
f3a:__ZN23ManagedAttributeManager52CallManagedGetParentTypeDisallowingMultipleInclusionE17ScriptingClassPtr
Ige:_Array_InternalArray__get_Item_TisAnimatorClipInfo_t3905751349_m2163447872_gshared
Mte:_List_1_System_Collections_Generic_IEnumerableU3CTU3E_GetEnumerator_m166627113_gshared
Gvb:__ZNSt3__26vectorI9InputAxisNS_9allocatorIS1_EEE6resizeEj
B6d:__ZN21InterfaceFuncInvoker2Ii19Vector2_t2243707579S0_E6InvokeEjP11Il2CppClassP12Il2CppObjectS0_S0_
CTa:__ZN13BatchRendererC2ER15RenderLoopStatsRK15RenderNodeQueuebbb
tad:_SecurityElement_IsValidAttributeValue_m483287146
Cgd:_Decoder_set_Fallback_m1780632169
op:getTempRet0
N_h:__Z81RuntimeInvoker_Void_t1841601450_PlayableHandleU26_t3483893774_Vector3_t2243707580PK10MethodInfoPvPS2_
Rji:_AnimationClipPlayable_set_applyFootIK_m1054409049
qid:_ArithmeticException__ctor_m104771799
aRh:__Z114RuntimeInvoker_Void_t1841601450_Il2CppObject_Il2CppObject_Int32_t2071877448_Il2CppObject_Il2CppObject_Il2CppObjectPK10MethodInfoPvPS2_
yyg:_AssemblyTitleAttribute__ctor_m1696431446
qZd:_Image_AddQuad_m1603575622
Ywj:__ZN24dense_hashtable_iteratorINSt3__24pairIK10KeyWrapperIPK19Il2CppGenericMethodEP10MethodInfoEES6_N6il2cpp8metadata23Il2CppGenericMethodHashEN14dense_hash_mapIS6_S9_SD_NS6_14EqualsComparerINSC_26Il2CppGenericMethodCompareEEENS0_9allocatorISA_EEE9SelectKeyESH_SJ_E30advance_past_empty_and_deletedEv
Ikf:_PrivateKeyInfo_RemoveLeadingZero_m3396807048
pHe:_ReadOnlyCollection_1_System_Collections_Generic_ICollectionU3CTU3E_get_IsReadOnly_m1251192075_gshared
zme:_List_1_GrowIfNeeded_m185971996_gshared
Ekj:__ZN6il2cpp6icalls8mscorlib6System9ThreadingL21lookup_cached_cultureEP12Il2CppThreadi
j_a:__ZN18DeferredRenderLoopD2Ev
LCg:_GenericTypeParameterBuilder_GetMethods_m1243855818
U2:__ZNK16TypeTreeIterator4NameEv
cW:__ZN15FileSystemEntry3SetEPKc
M8i:_il2cpp_method_has_attribute
$Fh:_InternalEnumerator_1__ctor_m2808001655_gshared
F4c:_MACTripleDES__ctor_m884945242
$I:__ZN20SoundChannelInstance15ParameterBuffer5ApplyEPN4FMOD7ChannelE
zWi:__ZL24UnresolvedVirtualCall_52P12Il2CppObjectPK10MethodInfo
Qtb:__ZN23SharedMeshRenderingDataD0Ev
bF:__Z117Register_UnityEngine_Experimental_Director_AnimatorControllerPlayable_INTERNAL_CALL_GetAnimatorTransitionInfoInternalv
rIc:__ZN20TextRenderingPrivate19NativeTextGenerator9InsertTabEv
FHf:__ZL73Enum_t2459695545_CustomAttributesCacheGenerator_Enum_ToObject_m1688724857P21CustomAttributesCache
GXg:_Rect_set_y_m4294916608
f0c:__ZN11UnityEngine15PlatformWrapper24GetRuntimePlatformStringEv
Ii:_glIsEnabled
BPb:__ZN15CacheWriterBaseD2Ev
Nkg:__ZL56Slider_t297367283_CustomAttributesCacheGenerator_m_ValueP21CustomAttributesCache
aCb:__Z25scripting_class_get_image17ScriptingClassPtr
t3f:__ZL85Material_t193706927_CustomAttributesCacheGenerator_Material_GetTextureImpl_m623159197P21CustomAttributesCache
kYi:__ZL25UnresolvedVirtualCall_145P12Il2CppObjectffPK10MethodInfo
Mi:_emscripten_glDrawElementsInstanced
Dz:__ZN26AnimatorControllerPlayable27SetupStateMachineBehavioursEv
ijf:_ARC4Managed_Dispose_m4102232694
Cjf:_HMAC_Initialize_m3052649104
Uoa:__ZN18JobBatchDispatcherD2Ev
iVb:__ZN9Transform17MainThreadCleanupEv
IAj:_GC_clear_hdr_marks
bQj:_glScissor__wrapper
$Vj:_emscripten_glCreateShader__wrapper
UZd:_InputField_get_caretSelectPositionInternal_m3523572533
WQc:_cff_fd_select_get
u7f:__ZL123AnimatorControllerPlayable_t4078305555_CustomAttributesCacheGenerator_AnimatorControllerPlayable_PlayInFixedTime_m172593751P21CustomAttributesCache
mOf:__ZL73CompilationRelaxationsAttribute_t238494011_CustomAttributesCacheGeneratorP21CustomAttributesCache
G9f:__ZL95CanvasRenderer_t261436805_CustomAttributesCacheGenerator_CanvasRenderer_SetMaterial_m1462355522P21CustomAttributesCache
guh:_Text_get_minHeight_m1562513104
w8c:_SHA512Managed_processBlock_m3220567420
Bvf:_NameObjectCollectionBase_get_Keys_m446053925
Wi:_emscripten_glGetShaderiv
Vah:_Transform_1__ctor_m353209818_gshared
ULa:__ZZ23InitPlayerLoopCallbacksvEN41EarlyUpdateUpdateAllUnityWebStreamsstruct7ForwardEv
bK:__ZN4FMOD6System10getVersionEPj
wZe:_FileLoadException_GetObjectData_m2047020314
xcg:__ZL96RemoteSettings_t392466225_CustomAttributesCacheGenerator_RemoteSettings_CallOnUpdate_m1624968574P21CustomAttributesCache
J7d:_Array_InternalArray__IndexOf_TisSByte_t454417549_m1427585061_gshared
PKh:__Z75RuntimeInvoker_Byte_t3683104436_Il2CppObject_Int32_t2071877448_Il2CppObjectPK10MethodInfoPvPS2_
lWc:__ZN2UI6Canvas23VirtualRedirectTransferER24GenerateTypeTreeTransfer
uwd:_Decimal_u64_m3991988111
fKi:_YieldInstruction_t3462875981_marshal_pinvoke
eMi:_Predicate_1_BeginInvoke_m2959352225_gshared
egh:_Dictionary_2_CopyToCheck_m2147716750_gshared
$Bi:_X509Certificate_Parse_m1764345628
Ssi:_SynchronizationAttribute_GetClientContextSink_m1264319894
ZGc:__ZN13TextRendering4Font13AwakeFromLoadE17AwakeFromLoadMode
nta:__ZN9GfxDevice21ReleaseSharedMeshDataEP14SharedMeshData
Zff:_SmallXmlParser_Peek_m2814840810
wwb:__ZNSt3__27__sort5IRNS_6__lessINS_4pairIPKN5Unity4TypeE7Hash128EES8_EEPS8_EEjT0_SC_SC_SC_SC_T_
PCe:_Collection_1_ConvertItem_m3168406667_gshared
F$i:__ZNK15dense_hashtableINSt3__24pairIK10KeyWrapperIPKcEP11Il2CppClassEES5_N6il2cpp5utils11StringUtils12StringHasherIS4_EEN14dense_hash_mapIS5_S8_SE_NS5_14EqualsComparerINSC_21CaseSensitiveComparerEEENS0_9allocatorIS9_EEE9SelectKeyESI_SK_E10test_emptyEj
_Ni:_UnityAction_1_EndInvoke_m2822290096_gshared
Pzj:_GC_unreachable_finalize_mark_proc
c_h:__Z75RuntimeInvoker_Il2CppObject_PlayableHandleU26_t3483893774_Int32_t2071877448PK10MethodInfoPvPS2_
lBj:_maybe_finalize
GBe:_Collection_1_System_Collections_ICollection_get_SyncRoot_m2547259708_gshared
Qti:_ConstructionCall_GetObjectData_m3974358557
afc:__Z43RectTransform_CUSTOM_INTERNAL_get_anchorMaxP12Il2CppObjectP13Vector2fIcall
eDd:_DateTimeOffset_get_DateTime_m229084964_AdjustorThunk
Mea:__ZN8Material28UpdateHashesOnPropertyChangeEN9ShaderLab16FastPropertyNameE
Mfc:__Z53Register_UnityEngine_SortingLayer_GetLayerValueFromIDv
_je:_Enumerator__ctor_m3512622280_AdjustorThunk
Ekh:_EqualityComparer_1_System_Collections_IEqualityComparer_Equals_m349194518_gshared
Trd:_CaseInsensitiveComparer_Compare_m1192858479
ODb:__Z18Transfer_BlittableI14SafeBinaryReadLb1E8Vector4fEvRK29SerializationCommandArgumentsR31RuntimeSerializationCommandInfo
e0e:_StreamAsyncResult_set_Done_m4272090534
K1d:_LayoutRebuilder_Clear_m2390054824
$Ce:_Collection_1_System_Collections_IList_Insert_m2968289909_gshared
Syg:_Default_SelectMethod_m622251293
Rr:__ZN8Animator23VirtualRedirectTransferER19StreamedBinaryWriteILb0EE
sti:_AsyncResult_get_NextSink_m1172723924
Uv:__ZN11UnityEngine9Animation32CreateAnimatorGenericBindingsOptERKNS0_20AnimationSetBindingsER9TransformPKN7mecanim9animation14AvatarConstantEPKNS0_21AvatarBindingConstantEbRNS6_6memory9AllocatorER8Animator
Xqj:__ZN6il2cpp2vm5Image13ClassFromNameEPK11Il2CppImagePKcS6_
dMj:dynCall_vdddddd
tSb:__ZN24GenerateTypeTreeTransfer21TransferSTLStyleArrayINSt3__26vectorIN9ShaderLab14SerializedPassENS1_9allocatorIS4_EEEEEEvRT_17TransferMetaFlags
P$:__ZL32MarkLevelGameManagerDependenciesR27GarbageCollectorThreadState
qWh:__Z49RuntimeInvoker_Void_t1841601450_UInt16_t986882611PK10MethodInfoPvPS2_
xva:__ZNK13GfxDeviceGLES26HasActiveRandomWriteTargetEv
u8h:__Z37RuntimeInvoker_ILTokenInfo_t149559338PK10MethodInfoPvPS2_
UQj:_glGetActiveUniformsiv__wrapper
Q1i:__ZN15dense_hashtableINSt3__24pairIK10KeyWrapperI13dynamic_arrayIPK10Il2CppTypeLj4EEEPFvvEEES8_N6il2cpp8metadata19Il2CppSignatureHashEN14dense_hash_mapIS8_SB_SF_NS8_14EqualsComparerINSE_22Il2CppSignatureCompareEEENS0_9allocatorISC_EEE9SelectKeyESJ_SL_E5clearEv
Jfc:__Z43Register_UnityEngine_Material_EnableKeywordv
k1:__ZN13MonoBehaviour19SetupScriptingCacheE17ScriptingClassPtrP10MonoScript
sVh:__Z59RuntimeInvoker_Il2CppObject_Double_t4078015681_Il2CppObjectPK10MethodInfoPvPS2_
hr:__Z20AnimationEventToMonoRK14AnimationEventR18MonoAnimationEvent
P2f:__ZL85Mesh_t1356156583_CustomAttributesCacheGenerator_Mesh_ExtractArrayFromList_m1349408169P21CustomAttributesCache
DXh:__Z83RuntimeInvoker_Void_t1841601450_Il2CppObject_Il2CppObject_Il2CppObject_Il2CppObjectPK10MethodInfoPvPS2_
T$:__ZNK15dense_hashtableINSt3__24pairIKiiEEi21InstanceIDHashFunctorN14dense_hash_mapIiiS4_NS0_8equal_toIiEE13stl_allocatorIS3_L18MemLabelIdentifier1ELi16EEE9SelectKeyES7_SA_E13find_positionERS2_
hnh:_Navigation_get_selectOnLeft_m3980387574_AdjustorThunk
oxe:_List_1_Sort_m2158253314_gshared
Qdg:__ZL74UnityEventBase_t828812576_CustomAttributesCacheGenerator_m_PersistentCallsP21CustomAttributesCache
Mgh:_DefaultComparer__ctor_m2265472997_gshared
Gmj:__ZN6il2cpp2vm13LivenessState18ShouldProcessValueEP12Il2CppObjectP11Il2CppClass
Dub:__ZN4PPtrI6SpriteE8TransferI14SafeBinaryReadEEvRT_
zij:__ZN15dense_hashtableINSt3__24pairIK10KeyWrapperIP11Il2CppClassES4_EES5_N6il2cpp8metadata16SZArrayClassHashEN14dense_hash_mapIS5_S4_SA_NS5_14EqualsComparerINS9_19SZArrayClassCompareEEENS0_9allocatorIS7_EEE9SelectKeyESE_SG_E16reset_thresholdsEv
MQh:__Z45RuntimeInvoker_Il2CppObject_IntPtr_t_IntPtr_tPK10MethodInfoPvPS2_
RRb:__ZNSt3__26vectorIN9ShaderLab14SerializedPassENS_9allocatorIS2_EEE8__appendEj
iRb:__ZNSt3__26vectorIN9ShaderLab20SerializedSubProgram13BufferBindingENS_9allocatorIS3_EEEC2INS_11__wrap_iterIPS3_EEEET_SB_RKS5_PNS_9enable_ifIXaasr21__is_forward_iteratorISB_EE5valuesr16is_constructibleIS3_NS_15iterator_traitsISB_E9referenceEEE5valueEvE4typeE
Vof:_Context_get_SupportedCiphers_m2172827298
UU:__ZNK13ScreenManager21IsMultiDisplayEnabledEv
hxc:__ZN12b2WheelJoint24SolveVelocityConstraintsERK12b2SolverData
zOh:__Z170RuntimeInvoker_Int32_t2071877448_Il2CppObject_Int32_t2071877448_Int32_t2071877448_Il2CppObject_Int16_t4041245914_Int32_t2071877448_SByte_t454417549_ContextU26_t3131521781PK10MethodInfoPvPS2_
Hmb:__ZN9Texture2D23VirtualRedirectTransferER18StreamedBinaryReadILb0EE
$yc:__ZN10Collider2D8TransferI24GenerateTypeTreeTransferEEvRT_
HGd:_Double_System_IConvertible_ToUInt16_m286326038_AdjustorThunk
Cqg:_TypeInfo__ctor_m1475908211
fgb:__ZNSt3__26__treeINS_12__value_typeIN4core12basic_stringIcNS2_20StringStorageDefaultIcEEEEjEENS_19__map_value_compareIS6_S7_NS_4lessIS6_EELb1EEE13stl_allocatorIS7_L18MemLabelIdentifier6ELi16EEE7destroyEPNS_11__tree_nodeIS7_PvEE
S1:__ZN16ScriptingManager27NativeTypeForScriptingClassE17ScriptingClassPtr
NAf:_X509Chain_WrapUp_m1072032285
vDi:_X509CertificateEnumerator_System_Collections_IEnumerator_MoveNext_m1448966539
YNc:_get_sfnt_table
fhe:_Object_FindObjectOfType_TisIl2CppObject_m2967490724_gshared
hof:_TlsServerHelloDone__ctor_m2125611008
WNa:_unity_z_tr_stored_block
XJh:__Z46RuntimeInvoker_Single_t2076509932_Il2CppObjectPK10MethodInfoPvPS2_
d6d:_Array_compare_TisIl2CppObject_m1481822507_gshared
BNd:_PointerEventData_set_pressPosition_m2094137883
hob:__ZN8Renderer20RendererAddedToSceneEv
K7f:__ZL132AnimatorControllerPlayable_t4078305555_CustomAttributesCacheGenerator_AnimatorControllerPlayable_Play_m1100499576____normalizedTime2P21CustomAttributesCache
x$a:__ZL22ScheduleSceneNodesJobsP25ScheduleSceneNodesJobDataj
Kk:_emscripten_set_canvas_size
DIf:__ZL65Il2CppArray_CustomAttributesCacheGenerator_Array_Sort_m3645766612P21CustomAttributesCache
Whf:_BigInteger_op_Subtraction_m972393015
qIh:_Comparer_1__cctor_m2253684996_gshared
ARb:__ZNSt3__26vectorIN9ShaderLab20SerializedSubProgramENS_9allocatorIS2_EEE8__appendEj
uT:__ZN20DynamicHeapAllocatorI17LowLevelAllocatorE8AllocateEji
cUa:__ZN20DynamicPropertySheet15SetVectorQueuedERKN9ShaderLab16FastPropertyNameERK8Vector4fN19ShaderPropertySheet8SetFlagsE
Xef:_PKCS12_get_IterationCount_m3572300030
Hci:_DefaultExecutionOrder_get_order_m1561221759
lLe:_ReadOnlyCollection_1_System_Collections_IEnumerable_GetEnumerator_m4248982967_gshared
ys:__ZN7mecanim9animation22EvaluateAvatarRetargetEPKNS0_14AvatarConstantEPKNS0_11AvatarInputEPNS0_12AvatarOutputEPNS0_12AvatarMemoryEPNS0_15AvatarWorkspaceEb
U1d:_LayoutRebuilder_GetHashCode_m2745108660
Kjb:__ZN14RenderSettings23VirtualRedirectTransferER19StreamedBinaryWriteILb0EE
cpc:__ZL26Transfer_SimpleNativeClassI9JSONWrite10RectOffsetLb0EEvRK29SerializationCommandArgumentsR31RuntimeSerializationCommandInfo
hAj:_GC_push_conditional
Zya:__ZN17GenericDynamicVBO10AllocateVBEjR21DynamicVBOChunkHandle
Zne:_List_1_get_Item_m1547593893_gshared
g6h:__Z70RuntimeInvoker_Void_t1841601450_CustomAttributeNamedArgument_t94157543PK10MethodInfoPvPS2_
IYe:_Path_GetPathRoot_m1269357080
Toj:__ZN30dense_hashtable_const_iteratorI10KeyWrapperIP18Il2CppGenericClassES3_N6il2cpp8metadata22Il2CppGenericClassHashEN14dense_hash_setIS3_S6_NS3_14EqualsComparerINS5_25Il2CppGenericClassCompareEEENSt3__29allocatorIS3_EEE8IdentityESA_SD_EppEv
Tsd:_KeyNotFoundException__ctor_m264393096
SLd:_EventSystem_SetSelectedGameObject_m2211816110
fbh:_Transform_1__ctor_m4161450529_gshared
gl:_glMapBufferRange
Amb:__ZN9Texture2D8TransferI18StreamedBinaryReadILb0EEEEvRT_
Rcc:__Z31Input_CUSTOM_GetMouseButtonDowni
IIf:__ZL65Il2CppArray_CustomAttributesCacheGenerator_Array_Sort_m1730553742P21CustomAttributesCache
Rwj:__ZN15dense_hashtableINSt3__24pairIK10KeyWrapperIPK19Il2CppGenericMethodEP10MethodInfoEES6_N6il2cpp8metadata23Il2CppGenericMethodHashEN14dense_hash_mapIS6_S9_SD_NS6_14EqualsComparerINSC_26Il2CppGenericMethodCompareEEENS0_9allocatorISA_EEE9SelectKeyESH_SJ_E3endEv
l3b:__ZN13PlayableGraph4PlayEv
LRa:__ZNK9Transform16GetLocalPositionEv
h2f:__ZL89Input_t1785128008_CustomAttributesCacheGenerator_Input_get_imeCompositionMode_m4250689464P21CustomAttributesCache
Hid:_Array_System_Collections_ICollection_get_Count_m2897196527
dqa:__ZN13LoadOperation19IntegrateTimeSlicedEi
qpb:__ZNK15QualitySettings26GetTypeInfoVirtualInternalEv
BEf:_InterpreterFactory__ctor_m3331468903
pff:_X501__cctor_m3795360380
Kva:__ZN13GfxDeviceGLES22DispatchComputeProgramE12ObjectHandleI18ComputeProgram_TagPvE15ComputeBufferIDj
V$g:_GUIStyle_set_contentOffset_m2138084868
MAe:_Collection_1_System_Collections_ICollection_CopyTo_m4193844941_gshared
fzd:_Convert_ToInt32_m2297793940
zoa:__Z17TransformAABBSlowRK4AABBRK10Matrix4x4fRS_
tnb:__ZN15SerializeTraitsI13dynamic_arrayI7Hash128Lj8EEE19ResizeSTLStyleArrayERS2_i18MemLabelIdentifier
zAf:_X509Chain_Build_m1140429528
pQb:__ZN9ShaderLab21SerializedShaderState8TransferI14SafeBinaryReadEEvRT_
mJj:_ftruncate
u7c:_RSAPKCS1SignatureFormatter_SetKey_m2365816458
AUe:_Int16_GetHashCode_m304503362_AdjustorThunk
TRc:_cf2_stack_pushInt
jB:__ZN7mecanim9animation20DestroyLayerConstantEPNS0_13LayerConstantERNS_6memory9AllocatorE
BMg:_CompressedStack__ctor_m276924800
fNd:_ExecuteEvents_get_cancelHandler_m1964324668
Xfa:__ZN15SerializeTraitsINSt3__24pairIN4core12basic_stringIcNS2_20StringStorageDefaultIcEEEES6_EEE8TransferI24GenerateTypeTreeTransferEEvRS7_RT_
mTj:b89
lTj:b88
vag:__ZL70GUISettings_t622856320_CustomAttributesCacheGenerator_m_SelectionColorP21CustomAttributesCache
FSj:b81
ESj:b80
NSj:b83
v2:__ZN18ResourceImageGroup7CleanupEv
VSj:b85
ali:_AnimatorControllerPlayable_SetTrigger_m3144166126
bTj:b87
WSj:b86
gq:__ZN11Quaternionf8TransferI24GenerateTypeTreeTransferEEvRT_
suh:_ToggleGroup_RegisterToggle_m3118973598
h1b:__ZN13ProduceHelperI4MeshLb0EE7ProduceE18MemLabelIdentifier18ObjectCreationMode
Gkf:_PrivateKeyInfo_Decode_m1053025782
rCf:_X509ChainElementCollection_System_Collections_ICollection_CopyTo_m1467895312
sef:_PKCS12_Decrypt_m2457743414
x6f:__ZL87Animator_t69676727_CustomAttributesCacheGenerator_Animator_SetTriggerString_m2002790359P21CustomAttributesCache
xkb:__ZN8Playable19SetOutputConnectionEPS_i
Y_i:__ZN15dense_hashtableINSt3__24pairIK10KeyWrapperIPK11Il2CppClassEPKcEES6_N6il2cpp5utils11PointerHashIS3_EEN14dense_hash_mapIS6_S9_SE_NS6_14EqualsComparerINS0_8equal_toIS5_EEEENS0_9allocatorISA_EEE9SelectKeyESJ_SL_EC2ERKSO_j
Wl:_glDeleteShader
xId:_Exception_GetType_m3898489832
lja:__ZN6prcoreL17RemapGenericFloatI15TexFormatRGHalf16TexFormatRGFloatEEvPKNS_9InnerInfoE
Nxe:_Stack_1_Peek_m1548778538_gshared
PLa:__ZZ23InitPlayerLoopCallbacksvEN38EarlyUpdateExecuteMainThreadJobsstruct7ForwardEv
NJi:_Vector4_Dot_m2285943745
csh:_Shadow_set_effectColor_m3110056844
j5g:_Physics2D_GetColliderFromInstanceID_m95920619
x8b:__Z27scripting_add_internal_callPKcPKv
ebe:_Array_InternalArray__Insert_TisUriScheme_t1876590943_m2728325409_gshared
dhj:__ZN13Il2CppHashMapINSt3__24pairIPK9EventInfoP11Il2CppClassEEj17ReflectionMapHashIS7_ENS0_8equal_toIS7_EENS0_9allocatorINS1_IK10KeyWrapperIS7_EjEEEEEC2EjRKS9_RKSB_
xpj:__GLOBAL__sub_I_GarbageCollector_cpp
F_:__Z17GetPlayerSettingsv
g3h:__Z65RuntimeInvoker_KeyValuePair_2_t38854645_Il2CppObject_Il2CppObjectPK10MethodInfoPvPS2_
bt:__ZN34BlobWriteTransferSTLStyleArrayImplI22OffsetPtrArrayTransferIiEEclERS1_17TransferMetaFlagsR9BlobWrite
IDi:_X509Store_CheckStore_m1027496478
_4h:__Z87RuntimeInvoker_Int32_t2071877448_UIVertex_t1204258818_UIVertex_t1204258818_Il2CppObjectPK10MethodInfoPvPS2_
INf:__ZL82MethodBase_t904190842_CustomAttributesCacheGenerator_MethodBase_Invoke_m1075809207P21CustomAttributesCache
Y_h:__Z93RuntimeInvoker_TextGenerationError_t780770201_Il2CppObject_TextGenerationSettings_t2543476768PK10MethodInfoPvPS2_
Wu:__ZN26AnimatorControllerPlayable18SetLayerAutoWeightEv
Lb:invoke_vffff
OJj:__ZNSt3__212basic_stringIcNS_11char_traitsIcEENS_9allocatorIcEEEC2ERKS5_jjRKS4_
Ped:_String_Contains_m4017059963
see:_Array_swap_TisCustomAttributeNamedArgument_t94157543_TisCustomAttributeNamedArgument_t94157543_m3600072996_gshared
EGh:_DefaultComparer_Compare_m1606207039_gshared
vYc:__ZN2UI14CanvasRenderer12SyncMaterialENS0_8SyncFlagE
hEj:__ZN6il2cpp2vm9Parameter30GetDefaultParameterValueObjectEPK10MethodInfoPK13ParameterInfoPb
Sbe:_Array_InternalArray__set_Item_TisLabelData_t3712112744_m2253365137_gshared
KGg:_MonoCMethod_get_Attributes_m3914742834
QDh:_InternalEnumerator_1__ctor_m142220063_AdjustorThunk
x3g:_MonoBehaviour_Invoke_m666563676
jAg:_ConstructorBuilder_get_DeclaringType_m4264602248
a1e:_StringReader__ctor_m643998729
hxf:_IPv6Address_TryParse_m2220524278
gYi:__ZL25UnresolvedVirtualCall_141P12Il2CppObjectffaPK10MethodInfo
FUh:__Z75RuntimeInvoker_DateTime_t693205669_DateTime_t693205669_TimeSpan_t3430258949PK10MethodInfoPvPS2_
D1d:_U3CDelayedSetDirtyU3Ec__Iterator0_System_Collections_Generic_IEnumeratorU3CobjectU3E_get_Current_m2210283424
_3f:__ZL86Time_t31991979_CustomAttributesCacheGenerator_Time_get_realtimeSinceStartup_m357614587P21CustomAttributesCache
PNc:_UNITY_tt_face_done_kern
Gri:_Context_get_DefaultContext_m2211922324
czg:_CustomAttributeData_get_NamedArguments_m708818174
Nlc:__Z59GUIStyle_CUSTOM_Internal_GetNumCharactersThatFitWithinWidth13Il2Cpp_IntPtrP12Il2CppStringf
Xkf:_RSAManaged_GetPaddedValue_m2972141669
Nqh:_ScrollRect_OnDrag_m1424848249
nqf:_TlsServerCertificate_ProcessAsSsl3_m277089231
A5d:_Array_InternalArray__IEnumerable_GetEnumerator_TisUInt16_t986882611_m3665860884_gshared
T8:__Z19scripting_gc_enablev
_xi:_AnchorInfo__ctor_m617409099
z6a:__Z29StdTemplateConversionFunctionIihEbPvR14SafeBinaryRead
MCg:_GenericTypeParameterBuilder_GetMethodImpl_m528545634
p_c:__Z55Register_UnityEngine_CanvasRenderer_DisableRectClippingv
gFf:_Interval_CompareTo_m2909556284_AdjustorThunk
Orb:__ZN14SafeBinaryRead21TransferSTLStyleArrayI13dynamic_arrayI11ColorRGBA32Lj4EEEEvRT_17TransferMetaFlags
xyh:_InternalEnumerator_1_System_Collections_IEnumerator_Reset_m1090540230_AdjustorThunk
meg:__ZL83Logger_t3328995178_CustomAttributesCacheGenerator_Logger_get_logHandler_m4190583509P21CustomAttributesCache
Xmh:_Navigation_t1571958496_marshal_pinvoke
ZDf:_Interpreter_GetLastDefined_m2450713313
pxi:_Parser_ParseAssertionType_m3316669790
Frh:_Selectable_get_isPointerDown_m774209881
JHf:__ZL73Enum_t2459695545_CustomAttributesCacheGenerator_Enum_ToObject_m2460371738P21CustomAttributesCache
cVb:__ZNSt3__27__sort4IRNS_6__lessIN4core12basic_stringIcNS2_20StringStorageDefaultIcEEEES6_EEPS6_EEjT0_SA_SA_SA_T_
JMj:dynCall_viiiifii
o5g:_Plane_get_distance_m1834776091_AdjustorThunk
Hfj:__ZN6il2cpp2gc19AppendOnlyGCHashMapINSt3__24pairIPK11Il2CppImageP11Il2CppClassEEP22Il2CppReflectionModule17ReflectionMapHashIS9_ENS2_8equal_toIS9_EEEC2Ev
c0:__Z20GetPersistentManagerv
eVc:_UNITY_TT_Set_Var_Design
Fri:_Context_Finalize_m1386439645
u8:__ZN21SystemInfoStringCache16StaticInitializeEPv
smf:_TlsStream__ctor_m4117943603
ucj:__ZN15dense_hashtableINSt3__24pairIK10KeyWrapperIPK10Il2CppTypeEjEES6_N6il2cpp8metadata14Il2CppTypeHashEN14dense_hash_mapIS6_jSB_NS6_14EqualsComparerINSA_26Il2CppTypeEqualityComparerEEENS0_9allocatorIS8_EEE9SelectKeyESF_SH_E12maybe_shrinkEv
uth:_Text_FontTextureChanged_m4236993972
mvj:__ZN6il2cpp2gc16GarbageCollector23MakeDescriptorForObjectEPji
Epj:__ZNK10KeyWrapperIP12Il2CppObjectE14EqualsComparerINSt3__28equal_toIS1_EEEclERKS2_S9_
lJg:_ParameterModifier_t1820634920_marshal_pinvoke
dBb:__ZNK13MonoBehaviour7GetNameEv
z_i:_PlayerController_FixedUpdate_m1756102567
Imj:__ZN13dynamic_arrayIP12Il2CppObjectLj4EE9push_backEv
Wka:__ZN19ScriptingInvocation28AdjustArgumentsToMatchMethodEv
dpj:__ZN15dense_hashtableI10KeyWrapperIP18Il2CppGenericClassES3_N6il2cpp8metadata22Il2CppGenericClassHashEN14dense_hash_setIS3_S6_NS3_14EqualsComparerINS5_25Il2CppGenericClassCompareEEENSt3__29allocatorIS3_EEE8IdentityESA_SD_E6insertERKS3_
sKd:_AbstractEventData_Use_m1797212290
$ib:__Z20RenderMultipleMeshesRK15RenderNodeQueueRK18RenderMultipleData17ShaderChannelMask
Caj:__ZN6il2cpp2vm4Type19GetGenericParameterEPK10Il2CppType
RZc:__Z51Register_UnityEngine_CanvasGroup_get_blocksRaycastsv
hFh:_InternalEnumerator_1_get_Current_m2826780083_gshared
tWj:b119
zsc:__ZN8JSONRead21TransferSTLStyleArrayI13dynamic_arrayI11ColorRGBA32Lj4EEEEvRT_18MemLabelIdentifier17TransferMetaFlags
vmg:__ZL105LayoutUtility_t4076838048_CustomAttributesCacheGenerator_LayoutUtility_U3CGetMinHeightU3Em__4_m1769295917P21CustomAttributesCache
vgh:_Dictionary_2_GetEnumerator_m1752238884_gshared
Qdj:__ZNK15dense_hashtableINSt3__24pairIK10KeyWrapperINS1_IPK11Il2CppImageP11Il2CppClassEEEjEES9_17ReflectionMapHashIS8_EN14dense_hash_mapIS9_jSD_NS9_14EqualsComparerINS0_8equal_toIS8_EEEENS0_9allocatorISB_EEE9SelectKeyESI_SK_E3endEv
q6g:_RaycastHit2D_get_collider_m2568504212
kGh:_InternalEnumerator_1__ctor_m2782443954_AdjustorThunk
Ad:_glBeginQuery
Gxg:_Assembly_GetCustomAttributes_m95309865
RWg:_GUILayoutUtility_INTERNAL_CALL_Internal_GetWindowRect_m3236664463
kFc:__ZN10Effector2D25CheckEffectorColliderMaskEP10Collider2DS1_
nPa:__ZN6Camera12RenderStereoENS_10RenderFlagE8CullFlagPNS_24PerformEyeRenderFunctionE
lV:__ZN20LocalFileSystemPosix10ToAbsoluteEPKc
Tib:__ZN20TierGraphicsSettings8TransferI19StreamedBinaryWriteILb0EEEEvRT_
wOh:__Z136RuntimeInvoker_Boolean_t3825574718_Il2CppObject_Il2CppObject_Int32_t2071877448_Int32_t2071877448_SByte_t454417549_ContextU26_t3131521781PK10MethodInfoPvPS2_
jwd:_Convert_ToBoolean_m48997236
TOa:_UNITY_png_default_flush
pp:__ZN6Object17MainThreadCleanupEv
Zpd:_ArrayListWrapper_set_Capacity_m2792463350
uib:__Z32TransferEnumWithNameForceIntSizeI14SafeBinaryRead7HDRModeEvRT_RT0_PKc17TransferMetaFlags
_Hj:_getcwd
xKg:_StringBuilder_Append_m1128243247
Oxc:__ZN16b2CapsuleContact6CreateEP9b2FixtureiS1_iP16b2BlockAllocator
$xi:_AnchorInfo_get_Offset_m142119297
I9a:__ZN25ThreadsafeLinearAllocatorD2Ev
VAd:_DateTime_get_Year_m1985210972
q9:__Z21SendMessageToEveryoneRK17MessageIdentifier11MessageData
SZg:_GUISkin_get_settings_m626844463
I5:__ZN21BillboardBatchManager16StaticInitializeEPv
WZg:_Object_get_name_m2079638459
rWj:b117
TX:__ZN12_GLOBAL__N_138ArchiveRedirectFileSystemStaticDestroyEPv
_Mi:_InvokableCall_1_add_Delegate_m3048312905_gshared
oId:_EventHandler_Invoke_m1137722757
S1i:__ZNK15dense_hashtableINSt3__24pairIK10KeyWrapperI13dynamic_arrayIPK10Il2CppTypeLj4EEEPFvvEEES8_N6il2cpp8metadata19Il2CppSignatureHashEN14dense_hash_mapIS8_SB_SF_NS8_14EqualsComparerINSE_22Il2CppSignatureCompareEEENS0_9allocatorISC_EEE9SelectKeyESJ_SL_E5beginEv
B4e:_MonoType_IsSubclassOf_m2211166238
EJg:_TypeFilter_EndInvoke_m997625354
iCe:_Collection_1_System_Collections_ICollection_CopyTo_m2859266050_gshared
O$:__ZN19RuntimeSceneManagerC2Ev
Ru:__ZN7mecanim14ValueArrayCopyEPKNS_10ValueArrayEPS0_PKNS_14ValueArrayMaskE
vHh:_Comparer_1__ctor_m2876014041_gshared
SAj:_GC_continue_reclaim
EXe:_InvalidCastException__ctor_m2730571470
sCf:_X509ChainElementCollection_System_Collections_IEnumerable_GetEnumerator_m2559704689
SZf:__ZL86BigInteger_t925946153_CustomAttributesCacheGenerator_BigInteger_op_Implicit_m622924526P21CustomAttributesCache
Fhg:__ZL59Dropdown_t1985816271_CustomAttributesCacheGenerator_m_ValueP21CustomAttributesCache
FEf:_InterpreterFactory_set_Gap_m2761943153
Izf:_PublicKey_get_Key_m126090744
lJc:__ZNSt3__23mapIN20TextRenderingPrivate7FontRefEP11FT_FaceRec_NS_4lessIS2_EENS_9allocatorINS_4pairIKS2_S4_EEEEEixERS9_
JHa:__ZN17ArchiveFileSystem10AddStorageEP20ArchiveStorageReader
Tfi:_Color_Equals_m661618137
Pvc:__ZNK12b2MotorJoint16GetReactionForceEf
jDa:__ZN12_GLOBAL__N_112UploadFormatE13TextureFormat
Lih:_EqualityComparer_1_System_Collections_IEqualityComparer_GetHashCode_m1203798961_gshared
ibg:__ZL89GUIStyle_t1799908754_CustomAttributesCacheGenerator_GUIStyle_AssignRectOffset_m2998103580P21CustomAttributesCache
dUi:__ZN6il2cpp2vm5Class15GetEnumBaseTypeEP11Il2CppClass
UYe:_DirectoryNotFoundException__ctor_m3713860966
cIh:_Comparer_1_get_Default_m4282764954_gshared
Ulb:__ZNK9Texture2D16GetNpotTexelSizeEv
Zyh:_InternalEnumerator_1__ctor_m245588437_gshared
iDf:_Capture_get_Text_m3472127896
amh:_Mask_get_rectTransform_m3304369086
Hei:_WillRenderCanvases_EndInvoke_m3215676440
XGi:_TooltipAttribute__ctor_m2640804852
QWh:__Z35RuntimeInvoker_Category_t1984577050PK10MethodInfoPvPS2_
Lmi:_AnimatorControllerPlayable_INTERNAL_CALL_PlayInFixedTimeInternal_m847261734
cza:__ZN9GfxDevice22GetDefaultVertexBufferE26GfxDefaultVertexBufferTypej
KAe:_Collection_1__ctor_m3903788797_gshared
IKe:_ReadOnlyCollection_1_System_Collections_ICollection_CopyTo_m1129689124_gshared
uIj:___fseeko_unlocked
L2h:__Z162RuntimeInvoker_Void_t1841601450_Il2CppObject_Int32_t2071877448_SByte_t454417549_SByte_t454417549_SingleU26_t4173844468_SingleU26_t4173844468_SingleU26_t4173844468PK10MethodInfoPvPS2_
QSj:_glGetActiveUniform__wrapper
mIj:_sscanf
sFe:_Collection_1_Contains_m1999290510_gshared
gsb:__ZN14SafeBinaryRead21TransferSTLStyleArrayINSt3__26vectorI17BlendShapeChannelNS1_9allocatorIS3_EEEEEEvRT_17TransferMetaFlags
lha:__Z17BeginSplashScreenv
WIi:_Vector3__ctor_m2638739322_AdjustorThunk
dTb:__ZN9ShaderLab16SerializedShader8TransferI19StreamedBinaryWriteILb0EEEEvRT_
mSg:_UInt32_Parse_m2400360707
AA:__ZN7mecanim9animation18CreateAvatarMemoryEPKNS0_14AvatarConstantERNS_6memory9AllocatorE
Hvd:_Stack_Pop_m3788808882
_Ih:_Enumerator_VerifyCurrent_m4246196125_AdjustorThunk
rfh:_Dictionary_2_pick_value_m3484897877_gshared
FCd:_DateTime_op_Equality_m1867073872
Qt:__ZN7mecanim8skeleton16SkeletonPoseCopyIN4math4trsXENS2_7affineXEEEvPKNS0_13SkeletonPoseTIT_EEPNS5_IT0_EE
ype:_List_1_CopyTo_m1916701891_gshared
mKb:__Z18Transfer_BlittableI19StreamedBinaryWriteILb0EELb0EaEvRK29SerializationCommandArgumentsR31RuntimeSerializationCommandInfo
Kya:__ZN18GfxFramebufferGLES18GetFramebufferNameERK20GfxRenderTargetSetup
iLj:_saveSetjmp
_mj:__ZN6il2cpp6icalls8mscorlib6System2IO6MonoIO11GetFileTypeE12Il2CppIntPtrPi
nkc:__Z30Event_Get_Custom_PropCharacterP12Il2CppObject
i3b:__ZN13PlayableGraph27SchedulePlayableDestructionERK9HPlayable
XPj:_glGetFramebufferAttachmentParameteriv__wrapper
GEb:__Z22scripting_array_length17ScriptingArrayPtr
pad:_SecurityElement_GetAttribute_m4288291176
TAi:_UriParser_get_DefaultPort_m1377931533
sQi:_IndexedSet_1_get_Count_m2839545138_gshared
$na:__ZN14SafeBinaryRead20TransferTypelessDataEjPvi
vni:_RenderPipelineManager_get_currentPipeline_m679160301
pOf:__ZL66StringFreezingAttribute_t2691375565_CustomAttributesCacheGeneratorP21CustomAttributesCache
aoc:__ZN9rapidjson13GenericReaderINS_4UTF8IcEES2_13JSONAllocatorE10ParseFalseILj1ENS_25GenericInsituStringStreamIS2_EENS_15GenericDocumentIS2_S3_S3_EEEEvRT0_RT1_
ete:_List_1_AddCollection_m3284813601_gshared
Vbb:__ZN33AssetBundleLoadFromAsyncOperation7PerformEv
clg:__ZL102ToggleGroup_t1030026315_CustomAttributesCacheGenerator_ToggleGroup_U3CActiveTogglesU3Em__1_m4052653494P21CustomAttributesCache
RYh:__Z69RuntimeInvoker_Single_t2076509932_Int32_t2071877448_Int32_t2071877448PK10MethodInfoPvPS2_
D_:__Z19GetActiveColorSpacev
Zih:_EqualityComparer_1__cctor_m1672307556_gshared
Gog:_SoapTypeAttribute_get_IsInteropXmlElement_m2941294827
ivb:__ZN14SpriteRenderer18UpdateCachedSpriteEv
Jke:_Enumerator_System_Collections_IEnumerator_get_Current_m3542273247_gshared
nod:_Char_System_IConvertible_ToUInt32_m1557991717_AdjustorThunk
yfd:_Encoding_get_UTF8Unmarked_m628720656
MQe:_NumberFormatter_RoundBits_m1545255255
j$:__Z6StrCmpPKcS0_
oEh:_InternalEnumerator_1_MoveNext_m2906956792_gshared
yUb:__Z21CheckGpuProgramUsable20ShaderGpuProgramType
L4h:__Z55RuntimeInvoker_Boolean_t3825574718_Keyframe_t1449471340PK10MethodInfoPvPS2_
Byg:_Binder__cctor_m3736115807
Quj:__ZN6il2cpp2os9Directory20GetFileSystemEntriesERKNSt3__212basic_stringIcNS2_11char_traitsIcEENS2_9allocatorIcEEEESA_iiPi
ogh:_Dictionary_2_OnDeserialization_m2160537783_gshared
Ikd:_Attribute_GetHashCode_m2653962112
iIc:__ZN20TextRenderingPrivate19NativeTextGenerator5SetupEv
uti:_AsyncResult_GetReplyMessage_m262842621
Zie:_Enumerator__ctor_m3021143890_AdjustorThunk
kxb:__ZN12AspectRatios8TransferI18StreamedBinaryReadILb0EEEEvRT_
kKf:__ZL66X509ExtensionCollection_t1640144839_CustomAttributesCacheGeneratorP21CustomAttributesCache
I2b:__ZN10GameObject14CopyPropertiesERS_
qmc:__Z44Register_UnityEngine_GUIStyle_get_fixedWidthv
P6c:_RSACryptoServiceProvider_Common_m2581564813
fuj:__ZNSt3__214__split_bufferIN6il2cpp2os10ThreadImpl10APCRequestERNS_9allocatorIS4_EEEC2EjjS7_
Z_e:_MemoryStream_CheckIfClosedThrowDisposed_m2253054610
Zvh:_ArrayReadOnlyList_1_GetEnumerator_m634288642_gshared
m5a:__ZNK13ScreenManager12IsFullScreenEv
PIj:_rand
yQj:_emscripten_glFramebufferRenderbuffer__wrapper
Avj:__ZN6il2cpp5utils9PathUtils7CombineIcEENSt3__212basic_stringIT_NS3_11char_traitsIS5_EENS3_9allocatorIS5_EEEERKNS0_10StringViewIS5_EERKSA_
NNe:_ReadOnlyCollection_1_GetEnumerator_m2481390116_gshared
Lli:_AnimatorControllerPlayable_INTERNAL_CALL_GetNextAnimatorStateInfoInternal_m1550960895
vFb:__ZN14SafeBinaryRead21TransferSTLStyleArrayINSt3__26vectorI17AnimationCurveTplIfE13stl_allocatorIS4_L18MemLabelIdentifier1ELi16EEEEEEvRT_17TransferMetaFlags
U9b:__Z60Register_UnityEngine_AsyncOperation_set_allowSceneActivationv
Odj:__ZN15dense_hashtableINSt3__24pairIK10KeyWrapperINS1_IPK11Il2CppImageP11Il2CppClassEEEjEES9_17ReflectionMapHashIS8_EN14dense_hash_mapIS9_jSD_NS9_14EqualsComparerINS0_8equal_toIS8_EEEENS0_9allocatorISB_EEE9SelectKeyESI_SK_E12expand_arrayEjN21dense_hash_map_traits17integral_constantIbLb0EEE
Org:_ObjectManager_RegisterObject_m872610295
f$a:__Z22PrepareOptimizedPlanesPK5PlaneiPKN4math7_float4E
S9h:__Z47RuntimeInvoker_Vector3_t2243707580_Il2CppObjectPK10MethodInfoPvPS2_
j7g:_RectOffset_t3387826427_marshal_pinvoke
tWd:_Graphic_SetVerticesDirty_m1607014370
G5:__ZN17UniqueIDGenerator15CreatePureIndexEv
Fjf:_MD2__ctor_m3133818738
AB:__ZN11UnityEngine9Animation28GenericAnimationBindingCache15DidReloadDomainEv
Dgf:_AppDomain_InternalGetProcessGuid_m1278588156
L$d:_InputField_MoveRight_m386206014
eud:_HashValues_get_Count_m234926373
L3d:_Array_InternalArray__ICollection_Remove_TisIl2CppObject_m2425110446_gshared
Rph:_ScrollRect_set_inertia_m2575649134
_Xe:_BinaryReader_ReadBoolean_m2892291883
tTi:__ZN15dense_hashtableINSt3__24pairIK10KeyWrapperIPK22Il2CppGenericParameterEP11Il2CppClassEES6_N6il2cpp5utils11PointerHashIS4_EEN14dense_hash_mapIS6_S9_SE_NS6_14EqualsComparerINS0_8equal_toIS5_EEEENS0_9allocatorISA_EEE9SelectKeyESJ_SL_E14squash_deletedEv
Xxb:__ZNSt3__26__treeINS_12__value_typeIN4core12basic_stringIcNS2_20StringStorageDefaultIcEEEE4PPtrI6ObjectEEENS_19__map_value_compareIS6_SA_NS_4lessIS6_EELb1EEE13stl_allocatorISA_L18MemLabelIdentifier51ELi16EEE7destroyEPNS_11__tree_nodeISA_PvEE
Zvc:__ZNK12b2MouseJoint17GetReactionTorqueEf
TRf:__ZL66DSASignatureDeformatter_t2187578719_CustomAttributesCacheGeneratorP21CustomAttributesCache
xic:__Z14GUIClipTextureP9Texture2DPhiiii
Fxh:_InternalEnumerator_1_Dispose_m1064404287_AdjustorThunk
oBa:__ZNSt3__26vectorI27ComputeShaderBuiltinSamplerNS_9allocatorIS1_EEE21__push_back_slow_pathIKS1_EEvRT_
d3h:__Z95RuntimeInvoker_Void_t1841601450_ObjectU5BU5DU26_t3223402458_Int32_t2071877448_Int32_t2071877448PK10MethodInfoPvPS2_
qqf:_TlsServerCertificate_validateCertificates_m1988583701
pTh:__Z52RuntimeInvoker_DateTime_t693205669_Int16_t4041245914PK10MethodInfoPvPS2_
CJf:__ZL61DllImportAttribute_t3000813225_CustomAttributesCacheGeneratorP21CustomAttributesCache
S_:__ZNK9Transform18TransformDirectionERK8Vector3f
QKa:__ZNK17ArchiveFileSystem12GetAssetGUIDERK13FileEntryData
pUb:__ZNSt3__26vectorIN9ShaderLab20SerializedSubProgram15MatrixParameterENS_9allocatorIS3_EEE21__push_back_slow_pathIKS3_EEvRT_
CXg:_GUILayoutEntry_SetHorizontal_m1828181654
CVj:_emscripten_glClearStencil__wrapper
ujh:_EqualityComparer_1_get_Default_m1852501307_gshared
tXh:__Z94RuntimeInvoker_Void_t1841601450_Il2CppObject_ByteU5BU5DU26_t790777611_ByteU5BU5DU26_t790777611PK10MethodInfoPvPS2_
M2i:__ZN15dense_hashtableINSt3__24pairIK10KeyWrapperIPK11Il2CppClassEPKcEES6_N6il2cpp5utils11PointerHashIS3_EEN14dense_hash_mapIS6_S9_SE_NS6_14EqualsComparerINS0_8equal_toIS5_EEEENS0_9allocatorISA_EEE9SelectKeyESJ_SL_E12resize_deltaEjj
zKj:__ZNK10__cxxabiv120__si_class_type_info27has_unambiguous_public_baseEPNS_19__dynamic_cast_infoEPvi
wSe:_NumberFormatInfo_get_PercentNegativePattern_m1162448153
UKf:__ZL56SyncHashtable_t1343674558_CustomAttributesCacheGeneratorP21CustomAttributesCache
mAb:__ZN24RingBufferMemoryFileData9SetLengthEy
jOj:_glTexSubImage3D__wrapper
uDf:_FactoryCache_Add_m2602974721
iNa:__Z21WriteImageAsyncThreadPv
K4:__ZL16GetInterfaceImpl18UnityInterfaceGUID
wUi:__ZN6il2cpp2vmL17SetupFieldOffsetsENS0_15FieldLayoutKindEP11Il2CppClassjRKNSt3__26vectorIjNS4_9allocatorIjEEEE
eBe:_Collection_1_GetEnumerator_m2816357893_gshared
q5f:__ZL105RectTransform_t3349966182_CustomAttributesCacheGenerator_RectTransform_INTERNAL_get_anchorMin_m3180545469P21CustomAttributesCache
wme:_List_1_System_Collections_IList_get_Item_m936612973_gshared
IS:__ZN13EmscriptenWWW7GetSizeEv
txj:__ZN6il2cpp6icalls8mscorlib6System15MonoCustomAttrs27GetCustomAttributesInternalEP12Il2CppObjectP20Il2CppReflectionTypeb
mVc:_UNITY_TT_Set_MM_Blend
Yrg:_ObjectReader_ReadAssembly_m869834280
pib:__ZN22RenderingCommandBufferD0Ev
fNe:_ReadOnlyCollection_1_System_Collections_IList_get_Item_m1831743662_gshared
uGe:_Collection_1_IsSynchronized_m971497175_gshared
NY:__ZNK18ScriptingObjectPtr17ToScriptingStringEv
RMd:_ExecuteEvents_Execute_m1617536317
rth:_Text_get_cachedTextGeneratorForLayout_m1357670532
wI:__ZL31InitializeAudioScriptingClassesv
GRa:__Z14SortGUIByDepthP10GUIElementS0_
ZUe:_NumberFormatter_NumberToString_m126384393
aSj:_emscripten_glVertexAttrib4fv__wrapper
Q4:__ZN13RuntimeStaticI13dynamic_arrayIPK31TransferFunctionScriptingTraitsLj4EELb0EE16StaticInitializeEPv
jui:_LogicalCallContext__ctor_m3173272863
oli:_AnimatorControllerPlayable_IsParameterControlledByCurveString_m4036987523
n3e:_MonoCustomAttrs__cctor_m2608447972
MUe:_Int32_FindSign_m3803672540
jJh:_Enumerator_System_Collections_IEnumerator_Reset_m70453843_AdjustorThunk
OZg:_GUISkin_get_scrollView_m2941173958
WV:__ZNK20LocalFileSystemPosix21GetAvailableDiskSpaceEPKcRy
x8:__ZNSt3__26__treeIiNS_4lessIiEENS_9allocatorIiEEE7destroyEPNS_11__tree_nodeIiPvEE
EMi:_Predicate_1__ctor_m2995226103_gshared
U4e:_MonoType_get_TypeHandle_m3750614457
Csa:__ZNK9GfxDevice14GetWorldMatrixEv
CIg:_MonoProperty_GetGetMethod_m1100580870
Ueh:_Dictionary_2__ctor_m1950568359_gshared
Nwj:__ZN15dense_hashtableINSt3__24pairIK10KeyWrapperIPK19Il2CppGenericMethodEP10MethodInfoEES6_N6il2cpp8metadata23Il2CppGenericMethodHashEN14dense_hash_mapIS6_S9_SD_NS6_14EqualsComparerINSC_26Il2CppGenericMethodCompareEEENS0_9allocatorISA_EEE9SelectKeyESH_SJ_E13set_empty_keyERKSA_
sUa:__Z19scripting_array_new17ScriptingClassPtrjj
fnb:__ZN14SafeBinaryRead21TransferSTLStyleArrayI13dynamic_arrayI12LightmapDataLj4EEEEvRT_17TransferMetaFlags
Xgf:_ArgumentException__ctor_m3312963299
deb:__ZN21AssetBundleFileSystem11CreateAsDirER13FileEntryData
HRb:__ZNSt3__26vectorIN9ShaderLab20SerializedSubProgram16TextureParameterENS_9allocatorIS3_EEE6assignIPS3_EENS_9enable_ifIXaasr21__is_forward_iteratorIT_EE5valuesr16is_constructibleIS3_NS_15iterator_traitsISA_E9referenceEEE5valueEvE4typeESA_SA_
gMe:_ReadOnlyCollection_1_get_Item_m1696267180_gshared
guj:__ZNSt3__26vectorIN6il2cpp2os10ThreadImpl10APCRequestENS_9allocatorIS4_EEE26__swap_out_circular_bufferERNS_14__split_bufferIS4_RS6_EE
sLi:_U3CCreateWhereIteratorU3Ec__Iterator1D_1_MoveNext_m3533253043_gshared
ngj:__ZN15dense_hashtableINSt3__24pairIK10KeyWrapperIPK22Il2CppGenericParameterEPK24MonoGenericParameterInfoEES6_N6il2cpp5utils11PointerHashIS4_EEN14dense_hash_mapIS6_SA_SF_NS6_14EqualsComparerINS0_8equal_toIS5_EEEENS0_9allocatorISB_EEE9SelectKeyESK_SM_E15set_deleted_keyERKSB_
Nzh:_InternalEnumerator_1_System_Collections_IEnumerator_Reset_m2726857860_AdjustorThunk
pag:__ZL124GUILayoutUtility_t996096873_CustomAttributesCacheGenerator_GUILayoutUtility_INTERNAL_CALL_Internal_GetWindowRect_m3236664463P21CustomAttributesCache
ZCf:_X509SubjectKeyIdentifierExtension__ctor_m3887138480
Rie:_Enumerator_System_Collections_IEnumerator_get_Current_m2853089017_AdjustorThunk
ixc:__ZN12b2WheelJoint24SolvePositionConstraintsERK12b2SolverData
Ng:_emscripten_exit_fullscreen
JZd:_InputField_get_mesh_m3276583786
gpi:_GCHandle_Free_m1639542352_AdjustorThunk
apf:_Context_set_ClientRandom_m631392719
xpi:_OutAttribute__ctor_m1447235100
Stj:__ZN6il2cpp6icalls8mscorlib6System6String19InternalAllocateStrEi
Xsc:__Z29Transfer_Blittable_ArrayFieldI8JSONRead11QuaternionfEvRT_R9ArrayInfoRK23StaticTransferFieldInfo
rQf:__ZL65SoapParameterAttribute_t2780084514_CustomAttributesCacheGeneratorP21CustomAttributesCache
yV:__ZN20LocalFileSystemPosix8SetFlagsER13FileEntryDatajj
Iac:__Z45Register_UnityEngine_Camera_get_targetDisplayv
P0b:__ZNK24RendererAnimationBinding15GenerateBindingERKN4core12basic_stringIcNS0_20StringStorageDefaultIcEEEEbRN11UnityEngine9Animation14GenericBindingE
bib:__Z15GetFlareManagerv
QXb:__ZN15ApplicationInfo24GetApplicationIdentifierEv
SLe:_ReadOnlyCollection_1_System_Collections_IList_Contains_m927375828_gshared
Bab:__ZN9Behaviour8TransferI18StreamedBinaryReadILb0EEEEvRT_
vvi:_Enumerator_System_Collections_IEnumerator_get_Current_m1429268283
pIe:_ReadOnlyCollection_1_System_Collections_Generic_ICollectionU3CTU3E_Clear_m388357963_gshared
OGj:___toread
UR:__ZN19CloudServiceHandler10QueueEventEPN11UnityEngine15CloudWebService14CloudEventInfoE
aLj:___cxa_is_pointer_type
efd:_String_Concat_m56707527
wu:__ZN7mecanim9animation16EvaluateAvatarDXEPKNS0_14AvatarConstantEPKNS0_11AvatarInputEPNS0_12AvatarMemoryEPNS0_15AvatarWorkspaceEPNS0_12AvatarOutputE
oCa:__ZN4gles20DestroyRenderSurfaceEP7ApiGLESP17RenderSurfaceGLES
Qie:_Enumerator_System_Collections_IEnumerator_get_Current_m2853089017_gshared
Zgc:__Z34Transform_CUSTOM_SetAsFirstSiblingP12Il2CppObject
hbj:__ZNK15dense_hashtableINSt3__24pairIK10KeyWrapperINS1_IPK14Il2CppAssemblyP11Il2CppClassEEEjEES9_17ReflectionMapHashIS8_EN14dense_hash_mapIS9_jSD_NS9_14EqualsComparerINS0_8equal_toIS8_EEEENS0_9allocatorISB_EEE9SelectKeyESI_SK_E10test_emptyEj
_ke:_Enumerator_get_Current_m827571811_AdjustorThunk
M8f:__ZL62Font_t4239498691_CustomAttributesCacheGenerator_textureRebuiltP21CustomAttributesCache
Kga:__ZN17PersistentManager40GlobalToLocalSerializedFileIndexInternalERK26SerializedObjectIdentifier
GP:__ZN11UnityEngine15CloudWebService17SessionEventQueue14ParseEventDataERKN4core12basic_stringIcNS2_20StringStorageDefaultIcEEEE
CKd:_BaseEventData_get_selectedObject_m3551206992
J7e:_SimpleCollator_CompareOrdinal_m2176988387
ldg:__ZL47Rect_t3681755626_CustomAttributesCacheGeneratorP21CustomAttributesCache
bJd:_CCGregorianCalendar_GetYear_m1289900195
$_h:__Z441RuntimeInvoker_Boolean_t3825574718_Il2CppObject_Il2CppObject_Il2CppObject_ColorU26_t3402129837_Int32_t2071877448_Single_t2076509932_Single_t2076509932_Int32_t2071877448_SByte_t454417549_SByte_t454417549_Int32_t2071877448_Int32_t2071877448_Int32_t2071877448_Int32_t2071877448_SByte_t454417549_Int32_t2071877448_Single_t2076509932_Single_t2076509932_Single_t2076509932_Single_t2076509932_SByte_t454417549_SByte_t454417549_UInt32U26_t2197289955PK10MethodInfoPvPS2_
XUe:_Int16_ToString_m2592645088
Nif:_ASN1_DecodeTLV_m2898581687
ePb:__Z29Transfer_Blittable_ArrayFieldI18StreamedBinaryReadILb0EE10ColorRGBAfEvRT_R9ArrayInfoRK23StaticTransferFieldInfo
xtg:_SerializationInfoEnumerator_Reset_m2206466680
e6h:__Z48RuntimeInvoker_Void_t1841601450_Slot_t2267560602PK10MethodInfoPvPS2_
oMa:__ZZ23InitPlayerLoopCallbacksvEN33PostLateUpdateInputEndFramestruct7ForwardEv
cag:__ZL78Event_t3028476042_CustomAttributesCacheGenerator_Event_get_keyCode_m3364681288P21CustomAttributesCache
xSi:_GenericEqualityComparer_1_Equals_m1934771410_gshared
dLf:__ZL57DebuggingModes_t2073970606_CustomAttributesCacheGeneratorP21CustomAttributesCache
hAb:__ZN24RingBufferMemoryFileDataD0Ev
dDe:_Collection_1_System_Collections_IList_get_IsFixedSize_m993584401_gshared
Byb:__ZNSt3__26vectorIN30RuntimeInitializeOnLoadManager15ClassMethodInfoE13stl_allocatorIS2_L18MemLabelIdentifier12ELi16EEE8__appendEj
C_b:__ZN13ProduceHelperI10TagManagerLb0EE7ProduceE18MemLabelIdentifier18ObjectCreationMode
vXh:__Z84RuntimeInvoker_Il2CppObject_Il2CppObject_Il2CppObject_Il2CppObject_Int32_t2071877448PK10MethodInfoPvPS2_
ihj:__ZN15dense_hashtableINSt3__24pairIK10KeyWrapperINS1_IPK9EventInfoP11Il2CppClassEEEjEES9_17ReflectionMapHashIS8_EN14dense_hash_mapIS9_jSD_NS9_14EqualsComparerINS0_8equal_toIS8_EEEENS0_9allocatorISB_EEE9SelectKeyESI_SK_E14squash_deletedEv
lDh:_InternalEnumerator_1__ctor_m691972083_gshared
Ayj:__ZN6il2cpp8metadataL7CompareEPK10Il2CppTypeS3_
VGb:__Z18Transfer_BlittableI17RemapPPtrTransferLb0E11ColorRGBA32EvRK29SerializationCommandArgumentsR31RuntimeSerializationCommandInfo
c1f:__ZL84GameObject_t1756533147_CustomAttributesCacheGenerator_GameObject_get_tag_m1425941094P21CustomAttributesCache
_Vg:_GameObject_set_layer_m2712461877
Pkf:_RSAManaged__ctor_m1370411656
INb:__Z18Transfer_BlittableI18StreamedBinaryReadILb0EELb1E10ColorRGBAfEvRK29SerializationCommandArgumentsR31RuntimeSerializationCommandInfo
dlb:__ZN12CubemapArray23VirtualRedirectTransferER17RemapPPtrTransfer
G7b:__ZL27GetComponentsImplementationILb0ELi0EEbR10GameObjectbRK17CompareParametersRK39GetComponentsImplementation_ReturnValue
oyf:_WebHeaderCollection_GetObjectData_m3940120977
MBb:__ZN9Scripting36IsSystemCollectionsGenericDictionaryE17ScriptingClassPtr
moh:_Raycast3DCallback_EndInvoke_m3234280377
QYi:__ZL25UnresolvedVirtualCall_177P12Il2CppObject22UICharInfo_t3056636800S1_PK10MethodInfo
vyi:_BalancingGroup__ctor_m2474435406
lTd:_ColorTweenCallback__ctor_m3619686788
Z2:__ZL16ReadTypeTreeImplILb0EEbR8TypeTreeRK16TypeTreeIteratorRPKhS6_i
Vmd:_Byte_System_IConvertible_ToInt32_m1032609763_AdjustorThunk
BUb:__ZN9ShaderLab7ProgramD0Ev
ckb:__ZNK22BuiltinResourceManager21GetResourceInstanceIDEPKN5Unity4TypeERKN4core12basic_stringIcNS4_20StringStorageDefaultIcEEEE
Sua:__ZN9GfxDevice15BeginFrameStatsEv
Sbc:__Z42Register_UnityEngine_RectOffset_set_bottomv
hqd:_ArrayListWrapper_IndexOf_m3574835167
Okc:__Z28GUIStyleState_CUSTOM_CleanupP12Il2CppObject
DUa:__ZN28LightProbeProxyVolumeContext8CopyFromERKS_
Ipe:_List_1_Remove_m2660527978_gshared
cRd:_U3COnFinishSubmitU3Ec__Iterator0_System_Collections_Generic_IEnumeratorU3CobjectU3E_get_Current_m1823105495
_1a:__ZN23TransformChangeDispatch32QueueTransformChangeIfHasChangedER18TransformHierarchy
O8c:_SymmetricAlgorithm_get_FeedbackSize_m544664262
uZa:__ZN18DeferredRenderLoop15RenderFinalPassEP13RenderTextureS1_
pCa:__ZN7ApiGLES18DeleteRenderbufferERj
jBa:__ZL23ProgramUniformMatrix4fvPK7ApiGLESjiihPKv
FUf:__ZL67ThreadInterruptedException_t63303933_CustomAttributesCacheGeneratorP21CustomAttributesCache
MDh:_InternalEnumerator_1_MoveNext_m3629145604_gshared
pRb:__ZN9ShaderLab20SerializedSubProgram15MatrixParameter8TransferI14SafeBinaryReadEEvRT_
JUe:_Int32_Parse_m124693431
I7b:__ZL27GetComponentsImplementationILb0ELi1EEbR10GameObjectbRK17CompareParametersRK39GetComponentsImplementation_ReturnValue
oUc:_Round_Down_To_Grid
tMg:_UTF8Decoder__ctor_m1460357288
Ica:__ZN13RenderTexture7ReleaseEv
qtb:__ZN10MeshFilter23VirtualRedirectTransferER14SafeBinaryRead
qZa:__ZN19ShaderPropertySheet26SetTextureWithExplicitSizeEN9ShaderLab16FastPropertyNameE9TextureIDiiff
Awd:_Convert_ToByte_m1201588964
Atb:__ZN12MeshRenderer17MainThreadCleanupEv
I9b:__Z36AsyncOperation_Get_Custom_PropIsDoneP12Il2CppObject
_Ea:__ZN22CreateGpuProgramOutput12CreateParamsEv
Ytg:_RuntimeMethodHandle_GetHashCode_m2682236001_AdjustorThunk
cqi:_ActivationServices_AllocateUninitializedClassInstance_m3410698501
S9i:__ZNSt3__26vectorIiNS_9allocatorIiEEE21__push_back_slow_pathIiEEvOT_
Ywa:__ZNK14GfxContextGLES13GetDefaultFBOEv
V3d:_Array_InternalArray__ICollection_Remove_TisSByte_t454417549_m2474211570_gshared
Lad:_Evidence_get_IsSynchronized_m1427392003
z9:__ZN14GraphicsHelper5ClearE13GfxClearFlagsRK10ColorRGBAffjR17ShaderPassContext
f8i:_il2cpp_class_is_enum
zuf:_AuthorityKeyIdentifierExtension_get_Identifier_m3535568551
bhe:_GameObject_AddComponent_TisIl2CppObject_m3813873105_gshared
Iea:__ZNSt3__23mapIN9ShaderLab16FastPropertyNameEN18UnityPropertySheet11UnityTexEnvENS_4lessIS2_EENS_9allocatorINS_4pairIKS2_S4_EEEEEixERS9_
Nra:__ZNK13TranslateGLES25GetTextureTargetDimensionEj
a2f:__ZL93Input_t1785128008_CustomAttributesCacheGenerator_Input_INTERNAL_get_mousePosition_m2302165941P21CustomAttributesCache
xbe:_Array_InternalArray__set_Item_TisByte_t3683104436_m1694926640_gshared
IDe:_Collection_1_System_Collections_IList_Contains_m1897568526_gshared
qCg:_FieldBuilder_get_FieldType_m2267463269
qkd:_SimpleEnumerator_Clone_m3032847657
iwi:_PatternCompiler_EmitInfo_m597931026
eif:_ModulusRing_Multiply_m3113924743
ngc:__Z47Texture2D_CUSTOM_INTERNAL_CALL_GetPixelBilinearP12Il2CppObjectffR10ColorRGBAf
Pof:_Context_get_ServerSettings_m225713600
Ni:_emscripten_glVertexAttrib4f
xNi:_InvokableCall_1_remove_Delegate_m3576859071_gshared
VHe:_ReadOnlyCollection_1_System_Collections_IEnumerable_GetEnumerator_m531171980_gshared
$Tb:__ZNSt3__26vectorIN20GpuProgramParameters14ConstantBufferENS_9allocatorIS2_EEE8__appendEj
bee:_Array_Sort_TisUILineInfo_t3621277874_m3105833015_gshared
SWb:__Z15tessGetElementsP14TESStesselator
TSa:__ZN11HaloManager21ReleaseGeometryJobMemEP25DynamicVBOGeometryJobData
Cme:_List_1_AddEnumerable_m2489692396_gshared
E8f:__ZL93TextGenerator_t647235000_CustomAttributesCacheGenerator_TextGenerator_Dispose_cpp_m1755131202P21CustomAttributesCache
cKi:_WaitForSecondsRealtime__ctor_m1734539010
MMg:_WaitHandle__ctor_m1256161634
iz:__ZN7mecanim12statemachine24CreateStateMachineMemoryEPKNS0_20StateMachineConstantERNS_6memory9AllocatorE
Xua:__ZN9GfxDevice18SetGlobalDepthBiasEff
$si:_Identity_get_ChannelSink_m3989446673
_5i:__ZN6il2cpp6icalls8mscorlib6System8MonoType12get_AssemblyEP20Il2CppReflectionType
WVd:_FontData_get_richText_m2013560754
Wbd:_SecurityException_get_PermissionType_m3543350822
_i:_emscripten_glGetPointerv
iu:__ZN8Animator22ApplyBuiltinRootMotionEv
Noj:__ZN15dense_hashtableI10KeyWrapperIP18Il2CppGenericClassES3_N6il2cpp8metadata22Il2CppGenericClassHashEN14dense_hash_setIS3_S6_NS3_14EqualsComparerINS5_25Il2CppGenericClassCompareEEENSt3__29allocatorIS3_EEE8IdentityESA_SD_E5clearEv
SVh:__Z74RuntimeInvoker_Boolean_t3825574718_Il2CppObject_IPv6AddressU26_t2456310193PK10MethodInfoPvPS2_
Dob:__ZN8Renderer23VirtualRedirectTransferER14SafeBinaryRead
fBg:_DerivedType_get_UnderlyingSystemType_m3904230233
KNd:_PointerEventData_get_rawPointerPress_m448871540
gQh:__Z135RuntimeInvoker_IntPtr_t_Il2CppObject_Int32_t2071877448_Int32_t2071877448_Int32_t2071877448_Int32_t2071877448_MonoIOErrorU26_t1029615899PK10MethodInfoPvPS2_
kRa:__Z27ConvertSubMeshesToTrianglesR13dynamic_arrayI7SubMeshLj4EERS_ItLj2EE
rUi:__ZN6il2cpp2vmL15GetBitmapNoInitEP11Il2CppClassPjRjj
Q8a:__ZL13MotionHandleriPK27EmscriptenDeviceMotionEventPv
BBf:_X509Certificate2Collection__ctor_m819526826
K4f:__ZL114PlayableHandle_t1502856514_CustomAttributesCacheGenerator_PlayableHandle_INTERNAL_CALL_IsValidInternal_m2792360706P21CustomAttributesCache
ZH:__ZN12AudioManager5ResetEv
rjf:_KeyBuilder_Key_m3814433741
Ygf:_ArgumentException__ctor_m158205422
D6d:_Array_compare_TisVector3_t2243707580_m3709184876_gshared
mYd:_HorizontalLayoutGroup_SetLayoutHorizontal_m3237355818
$t:__ZN7mecanim5human14RetargetToTDoFEPKNS0_5HumanEPNS0_9HumanPoseEPNS_8skeleton13SkeletonPoseTIN4math4trsXEEESB_
xvj:__ZN6il2cpp6icalls8mscorlib6System11Environment20GetWindowsFolderPathEi
dlg:__ZL60AspectRatioFitter_t3114550109_CustomAttributesCacheGeneratorP21CustomAttributesCache
Ay:__ZN7mecanim5human18HumanPoseBlendNodeERNS0_9HumanPoseEPS1_f
eQc:_UNITY_FT_RoundFix
iUb:__ZN9ShaderLab20SerializedSubProgram15AddTextureParamEPKcii16TextureDimension
Qr:__ZNK8Animator26GetTypeInfoVirtualInternalEv
SO:__ZN23CloudWebServicesManager23VirtualRedirectTransferER17RemapPPtrTransfer
dAe:__ZN21InterfaceFuncInvoker1Ib40CustomAttributeTypedArgument_t1498197914E6InvokeEjP11Il2CppClassP12Il2CppObjectS0_
jAi:_Uri_get_Parser_m2250631932
pii:_Event_GetHashCode_m2214628668
KWi:__ZL24UnresolvedVirtualCall_63P12Il2CppObjectS0_S0_S0_PK10MethodInfo
mWd:_Graphic_set_color_m646149893
Qfh:_Dictionary_2_System_Collections_ICollection_get_IsSynchronized_m960517203_gshared
bIj:_write
afa:__ZN14SafeBinaryRead19TransferSTLStyleMapINSt3__23mapIN4core12basic_stringIcNS3_20StringStorageDefaultIcEEEES7_NS1_4lessIS7_EE13stl_allocatorINS1_4pairIKS7_S7_EEL18MemLabelIdentifier1ELi16EEEEEEvRT_17TransferMetaFlags
qRg:_Type_MakeByRefType_m1323101575
cYc:__ZN2UI6Canvas27UpdateEventIndexesRecursiveERi
xx:__ZN7mecanim9animation18EvaluateRootMotionERKNS0_18ClipMuscleConstantERKNS0_15ClipMuscleInputEPKfS8_RNS0_12MotionOutputEb
MP:__ZN11UnityEngine15CloudWebService16SessionContainer21PrepareDataErrorEventERN4core12basic_stringIcNS2_20StringStorageDefaultIcEEEE
fMc:_UNITY_FT_Outline_New
Lwj:__ZNSt3__218uninitialized_copyIPNS_4pairIK10KeyWrapperIPK19Il2CppGenericMethodEP10MethodInfoEESB_EET0_T_SD_SC_
iag:__ZL85GUI_t4082743951_CustomAttributesCacheGenerator_GUI_set_nextScrollStepTime_m2724006954P21CustomAttributesCache
EKb:__Z19TransferField_ArrayI19StreamedBinaryWriteILb0EE27Converter_SimpleNativeClassI8GUIStyleEEvRK23StaticTransferFieldInfoR31RuntimeSerializationCommandInfoRT0_
__f:__ZL101AssetBundleRequest_t2674559435_CustomAttributesCacheGenerator_AssetBundleRequest_get_asset_m624603186P21CustomAttributesCache
KU:__ZNK13ScreenManager12GetIsFocusedEv
Qkg:__ZL70SpriteState_t1353336012_CustomAttributesCacheGenerator_m_PressedSpriteP21CustomAttributesCache
mqg:_RemotingServices_RegisterInternalChannels_m1827304423
s_g:_GUIStyle_get_onNormal_m1675201777
lr:__ZL32CleanupAnimationScriptingClassesv
A4i:__ZNSt3__213__vector_baseIN6il2cpp2os19SocketHandleWrapperENS_9allocatorIS3_EEED2Ev
naf:_ASN1_get_Length_m3359111015
IZg:_GUISkin_get_verticalScrollbarThumb_m649633186
p0g:_GUIStyleState_Cleanup_m705006206
jc:invoke_viiffi
v5a:__ZN13sorted_vectorINSt3__24pairIN4core12basic_stringIcNS2_20StringStorageDefaultIcEEEEPK17MessageIdentifierEEN10vector_mapIS6_S9_NS0_4lessIS6_EENS0_9allocatorISA_EEE13value_compareESF_E10insert_oneERKSA_
gu:__ZNSt3__227__insertion_sort_incompleteIRPFbPKN8Animator11AnimatorJobES4_EPS4_EEbT0_S9_T_
CNg:_Thread_GetCachedCurrentUICulture_m5590127
alb:__ZNK12CubemapArray20GetRuntimeMemorySizeEv
lJi:_Vector3_Dot_m3161182818
Oqi:_CrossAppDomainSink_get_TargetDomainId_m775204051
eSb:__Z14resize_trimmedINSt3__26vectorIN9ShaderLab18SerializedPropertyENS0_9allocatorIS3_EEEEEvRT_j
fwe:_List_1_CheckMatch_m4018158235_gshared
Y4h:__Z91RuntimeInvoker_Int32_t2071877448_UICharInfo_t3056636800_UICharInfo_t3056636800_Il2CppObjectPK10MethodInfoPvPS2_
k8e:_Context_t2636657155_marshal_pinvoke_back
u2i:__ZN6il2cpp2vm13MetadataCache38GetMethodInfoFromMethodDefinitionIndexEi
Imd:_Byte_System_IConvertible_ToDateTime_m1583041031
PWi:__ZL24UnresolvedVirtualCall_68P12Il2CppObjectS0_iS0_S0_S0_S0_S0_S0_PK10MethodInfo
qqb:__ZN10VertexData8TransferI24GenerateTypeTreeTransferEEvRT_
S9f:__ZL98CanvasRenderer_t261436805_CustomAttributesCacheGenerator_CanvasRenderer_get_absoluteDepth_m4243141P21CustomAttributesCache
qwj:__ZN13Il2CppHashMapIPK19Il2CppGenericMethodP10MethodInfoN6il2cpp8metadata23Il2CppGenericMethodHashENS6_26Il2CppGenericMethodCompareENSt3__29allocatorINS9_4pairIK10KeyWrapperIS2_ES4_EEEEEC2EjRKS7_RKS8_
eef:_EncryptedData_get_EncryptionAlgorithm_m1301274243
Ijh:_EqualityComparer_1_System_Collections_IEqualityComparer_Equals_m1089835085_gshared
H_a:__ZL10CullLightsRK22SceneCullingParametersR11CullResults
sVd:_Dropdown__cctor_m264401557
g7h:__Z94RuntimeInvoker_Void_t1841601450_Int32U5BU5DU26_t1341332175_Int32_t2071877448_Int32_t2071877448PK10MethodInfoPvPS2_
Jjd:_Array_IndexOf_m2819632474
iIh:_Comparer_1__cctor_m3996541505_gshared
dz:__ZN7mecanim12statemachine20GetBlendTreeConstantERKNS0_13StateConstantEi
L3b:__Z40GetTemporaryCachePathApplicationSpecificv
ita:__ZN9GfxDevice16EndAsyncJobFrameEv
uZd:_Image_get_minWidth_m1809071077
yej:__ZNK15dense_hashtableINSt3__24pairIK10KeyWrapperINS1_IPK12PropertyInfoP11Il2CppClassEEEjEES9_17ReflectionMapHashIS8_EN14dense_hash_mapIS9_jSD_NS9_14EqualsComparerINS0_8equal_toIS8_EEEENS0_9allocatorISB_EEE9SelectKeyESI_SK_E10test_emptyERK30dense_hashtable_const_iteratorISB_S9_SD_SM_SI_SK_E
$Mc:_UNITY_tt_face_load_hhea
dAb:__ZN24RingBufferMemoryFileData11SetGrowableEb
Yii:_PersistentCall__ctor_m2079279187
_vd:_Convert_ToBase64String_m1936815455
Tk:___syscall3
Wk:___syscall6
yua:__ZN9GfxDevice15GetNextCPUFenceEv
Yk:___syscall4
QEd:_Decimal_ToString_m759431975
zEe:_Collection_1_System_Collections_IList_get_IsFixedSize_m2204750039_gshared
MXi:__ZL25UnresolvedVirtualCall_119P12Il2CppObjectiaPK10MethodInfo
bRd:_ColorBlock_get_fadeDuration_m987725262
qjg:__ZL195U3CMouseDragOutsideRectU3Ec__Iterator1_t2599668326_CustomAttributesCacheGenerator_U3CMouseDragOutsideRectU3Ec__Iterator1_System_Collections_Generic_IEnumeratorU3CobjectU3E_get_Current_m2602955272P21CustomAttributesCache
iqj:__ZN6il2cpp2vm3RCW14QueryInterfaceILb1EEEP14Il2CppIUnknownP15Il2CppComObjectRK10Il2CppGuid
lvg:_CryptographicException__ctor_m2415891459
GCc:__ZNSt3__26__sortIR24RayHitsByDepthComparitorP12RaycastHit2DEEvT0_S5_T_
nqe:_List_1_AddCollection_m3266731889_gshared
T7b:__ZN9Scripting25BroadcastScriptingMessageER10GameObjectPKc18ScriptingObjectPtr
ll:_emscripten_glShaderBinary
_Ae:_Collection_1_System_Collections_IList_set_Item_m150887383_gshared
Qce:_Array_qsort_TisVector2_t2243707579_TisVector2_t2243707579_m3308480721_gshared
Lid:_Array_InternalArray__RemoveAt_m1126483634
aei:_Camera_INTERNAL_CALL_RaycastTry_m1030092423
Isf:_SslStreamBase_Dispose_m747909841
NAh:_InternalEnumerator_1_Dispose_m4038440306_AdjustorThunk
P5g:_RangeInt_get_end_m913869897
svf:_DictionaryNodeEnumerator_get_DictionaryNode_m3521889822
Ou:__ZN7mecanim5human19MaskHasLeftFootGoalERKNS_6bitsetILj70EEE
m3g:_Mesh_get_colors32_m4153271224
_Dc:__ZNK17Physics2DSettings26GetTypeInfoVirtualInternalEv
w$c:__Z58Register_UnityEngine_Canvas_GetETC1SupportedCanvasMaterialv
f5g:_Physics2D_INTERNAL_CALL_GetRayIntersectionAll_m161475998
HMb:__ZN17AnimationCurveTplIfE8TransferI18StreamedBinaryReadILb1EEEEvRT_
_Cd:_DateTimeOffset_GetHashCode_m3312197462_AdjustorThunk
t1c:__ZN18UnityConnectClientD2Ev
Wxf:_ServicePoint_set_UseNagleAlgorithm_m2618011464
y7i:_il2cpp_set_data_dir
eAi:_Uri_get_IsUnc_m2111738174
sfb:__ZN16LevelGameManager23VirtualRedirectTransferER19StreamedBinaryWriteILb0EE
mqb:__Z32TransferEnumWithNameForceIntSizeI14SafeBinaryRead16GfxPrimitiveTypeEvRT_RT0_PKc17TransferMetaFlags
SGh:_DefaultComparer__ctor_m1961329658_gshared
MEg:_ParameterBuilder_get_Attributes_m2421099277
mHi:_TouchScreenKeyboard_get_done_m406461410
pFi:_DataUtility_INTERNAL_CALL_GetPadding_m1621366113
Ndj:__ZN15dense_hashtableINSt3__24pairIK10KeyWrapperINS1_IPK11Il2CppImageP11Il2CppClassEEEjEES9_17ReflectionMapHashIS8_EN14dense_hash_mapIS9_jSD_NS9_14EqualsComparerINS0_8equal_toIS8_EEEENS0_9allocatorISB_EEE9SelectKeyESI_SK_E5clearEv
E0c:__ZN11UnityEngine15PlatformWrapper30GetGraphicsDriverLibraryStringEv
W8f:__ZL51UIVertex_t1204258818_CustomAttributesCacheGeneratorP21CustomAttributesCache
BIi:_Vector2_ToString_m775491729
Pqe:_List_1_get_Count_m1752597149_gshared
zkf:_EncryptedPrivateKeyInfo_Decode_m1706190306
JNb:__Z18Transfer_BlittableI18StreamedBinaryReadILb0EELb0E4AABBEvRK29SerializationCommandArgumentsR31RuntimeSerializationCommandInfo
fAd:_Convert_ToUInt16_m1665900934
xPe:_Converter_2_BeginInvoke_m898151494_gshared
U0a:__Z14DrawGUITextureRK5RectTIfEP7Texture11ColorRGBA32P8Materiali
yth:_Text_get_supportRichText_m3291105891
V7g:_RectTransform_GetParentSize_m1571597933
Zs:__ZN9BlobWrite8TransferI22OffsetPtrArrayTransferIKN4math7_float4EEEEvRT_PKc17TransferMetaFlags
lNe:_ReadOnlyCollection_1_get_Count_m336636247_gshared
duc:__ZNK11b2EdgeShape7RayCastEP15b2RayCastOutputRK14b2RayCastInputRK11b2Transformi
KMh:__Z52RuntimeInvoker_Decimal_t724701077_Double_t4078015681PK10MethodInfoPvPS2_
svi:_MatchCollection_GetEnumerator_m3516985966
tqc:__ZN9JSONWrite8TransferI4AABBEEvRT_PKc17TransferMetaFlags
CLg:_UTF7Encoding__ctor_m2365939916
RIa:__ZN25MultiBlocksMemoryFileData9SetLengthEy
_Fi:_TextGenerationSettings_Equals_m3944651893_AdjustorThunk
rmh:_MatEntry__ctor_m3650167335
E1h:__Z143RuntimeInvoker_Void_t1841601450_Il2CppObject_Vector2_t2243707579_Vector2_t2243707579_Color32_t874517518_Vector2_t2243707579_Vector2_t2243707579PK10MethodInfoPvPS2_
cRi:_ListPool_1_U3Cs_ListPoolU3Em__0_m441310157_gshared
oyc:__ZN10Collider2D13AwakeFromLoadE17AwakeFromLoadMode
Klb:__ZNK9Texture2D20GetRuntimeMemorySizeEv
wRg:_TypeInitializationException__ctor_m2993591639
ljh:_EqualityComparer_1__ctor_m3788663378_gshared
um:_emscripten_glUniform2iv
NRf:__ZL46DES_t1353513560_CustomAttributesCacheGeneratorP21CustomAttributesCache
iUe:_Int16_System_IConvertible_ToInt64_m733340257
fWf:__ZL79Convert_t2607082565_CustomAttributesCacheGenerator_Convert_ToSingle_m2156102599P21CustomAttributesCache
YIc:_UNITY_FT_Outline_Transform
_Zg:_SkinChangedDelegate_BeginInvoke_m4259161711
hgc:__Z60Register_UnityEngine_Sprites_DataUtility_Internal_GetMinSizev
KUi:__ZN6il2cpp2vm5Class10GetMethodsEP11Il2CppClassPPv
t6g:_Rect_get_x_m1393582490_AdjustorThunk
vWa:__Z30AddDefaultStreamsToMeshBuffersR9GfxDeviceR11MeshBuffersRK16DrawBuffersRange17ShaderChannelMaskS6_
FIf:__ZL65Il2CppArray_CustomAttributesCacheGenerator_Array_Sort_m3500510484P21CustomAttributesCache
Zad:_Hash_GetObjectData_m315532943
rxa:__ZN7ApiGLES17DeleteFramebufferERN2gl6HandleILNS0_10ObjectTypeE9EEES3_
zUi:__ZN13dynamic_arrayIP11Il2CppClassLj4EE7reserveEj
dEa:__ZN15UniformTFMethod13MapBoneBufferEj
Mnf:_RecordProtocol_SendAlert_m2816808523
eXc:__ZN2UI14CanvasRendererD2Ev
xui:_MethodCall_get_LogicalCallContext_m3769562079
nkj:__ZN6il2cpp6icalls8mscorlib6System5Array8SetValueEP11Il2CppArrayP12Il2CppObjectS5_
p1e:_SynchronizedReader_Read_m1399666181
cHg:_MonoEvent_get_Name_m2796714646
D8:__Z9SetupArgviPPKc
L5d:_Array_InternalArray__IEnumerable_GetEnumerator_TisHitInfo_t1761367055_m2486283755_gshared
ZNd:_PointerEventData_set_worldNormal_m2025727441
Tof:_Context_get_SentConnectionEnd_m3114190867
Gab:__ZN12ImmediatePtrI10GameObjectE8TransferI19StreamedBinaryWriteILb0EEEEvRT_
elb:__ZN12CubemapArray23VirtualRedirectTransferER24GenerateTypeTreeTransfer
XVi:__ZL24UnresolvedVirtualCall_22P12Il2CppObjectS0_iS0_S0_S0_PK10MethodInfo
B3:__ZN12FileAccessor4OpenER15FileSystemEntry14FilePermission16FileAutoBehavior
tJe:_ReadOnlyCollection_1__ctor_m2364452928_gshared
Puj:__ZN6il2cpp2os9Directory6CreateERKNSt3__212basic_stringIcNS2_11char_traitsIcEENS2_9allocatorIcEEEEPi
_fa:__ZN4PPtrI6ShaderE8TransferI18StreamedBinaryReadILb0EEEEvRT_
bpb:__ZN23TransformChangeDispatch32QueueTransformChangeIfHasChangedERK15TransformAccess
CNd:_PointerEventData_set_clickTime_m3931922487
aXg:_WindowFunction__ctor_m977095815
EQe:_NumberFormatter_AppendNonNegativeNumber_m629862866
Oga:__ZNSt3__26vectorINS_4pairIN9ShaderLab16FastPropertyNameEN18UnityPropertySheet11UnityTexEnvEEENS_9allocatorIS6_EEE21__push_back_slow_pathIKS6_EEvRT_
dLa:__ZN15ArchiveReadFile5WriteEyPKvPy
doi:_ResourceInfo__ctor_m2401359321_AdjustorThunk
Hvj:__ZN6il2cpp2os26LibraryNamePrefixAndSuffixC2EPKcS3_
etd:_Hashtable__ctor_m392789568
lNg:_Mutex_CreateMutex_internal_m2352956576
DLg:_UTF7Encoding__cctor_m4192443836
ulc:__Z31GUIStyle_CUSTOM_SetFontInternalP12Il2CppObjectS0_
B:tempValue
m7a:__Z29StdTemplateConversionFunctionIaiEbPvR14SafeBinaryRead
mUe:_Int16_System_IConvertible_ToSingle_m3277935657
cZ:__Z29scripting_class_from_fullnamePKcS0_S0_
U0f:__ZL97GameObject_t1756533147_CustomAttributesCacheGenerator_GameObject_GetComponentInParent_m1235194528P21CustomAttributesCache
koh:_Raycast3DCallback_Invoke_m2271859924
Bz:__ZN26AnimatorControllerPlayable18DeallocateBindingsEv
eag:__ZL83Event_t3028476042_CustomAttributesCacheGenerator_Event_set_displayIndex_m3631666901P21CustomAttributesCache
ONc:_UNITY_FT_Stream_ReadAt
m4f:__ZL111Object_t1021602117_CustomAttributesCacheGenerator_Object_DestroyImmediate_m3563317232____allowDestroyingAssets1P21CustomAttributesCache
rna:__ZN9Texture3D34UpdateFileTextureUploadInstructionEP28FileTextureUploadInstructionj
U_g:_GUIStyle_get_lineHeight_m2132859383
l5h:__Z102RuntimeInvoker_Int32_t2071877448_Il2CppObject_UIVertex_t1204258818_Int32_t2071877448_Int32_t2071877448PK10MethodInfoPvPS2_
F5f:__ZL82Physics2D_t2540166467_CustomAttributesCacheGenerator_Physics2D_Raycast_m1220041042P21CustomAttributesCache
sji:_UnityEvent_FindMethod_Impl_m3303953986
BRg:_UInt16_System_IConvertible_ToBoolean_m887616848
p$f:__ZL120ScriptableObject_t1975622470_CustomAttributesCacheGenerator_ScriptableObject_Internal_CreateScriptableObject_m1778903390P21CustomAttributesCache
GN:__ZN11AudioModule22CreateAudioClipFromWWWEP10IWWWStreamPKcbbi
DKh:__Z142RuntimeInvoker_Boolean_t3825574718_Il2CppObject_Int32_t2071877448_Il2CppObject_SByte_t454417549_UInt32U26_t2197289955_ExceptionU26_t1467204777PK10MethodInfoPvPS2_
nKg:_StringBuilder_set_Length_m3039225444
sEe:_Collection_1_System_Collections_IList_Contains_m3870109702_gshared
e3d:_Array_InternalArray__ICollection_Contains_TisRaycastResult_t21186376_m3188614988_gshared
QAd:_CultureAwareComparer_GetHashCode_m3681260951
bZc:__Z13RegisterClassIN2UI11CanvasGroupEEvv
HQi:_U3CStartU3Ec__Iterator0__ctor_m951808111_gshared
vf:_emscripten_glClear
toh:_Selectable__ctor_m1440593935
aBj:_GC_initialize_offsets
j3b:__ZNK8Playable6HandleEv
nIf:__ZL65Il2CppArray_CustomAttributesCacheGenerator_Array_Clear_m782967417P21CustomAttributesCache
ZKj:___cxa_guard_abort
xzg:_CustomAttributeTypedArgument_t1498197914_marshal_pinvoke_back
O1:__ZN14MessageHandler28MessageIDToMessageIdentifierEi
Lwf:_HttpRequestCreator_Create_m3607509610
xag:__ZL50GUISkin_t1436893342_CustomAttributesCacheGeneratorP21CustomAttributesCache
rXi:__ZL24UnresolvedVirtualCall_98P12Il2CppObject8IntPtr_tPK10MethodInfo
gxe:_List_1_Shift_m3824049528_gshared
Zqg:_ArrayFixupRecord__ctor_m3659990982
dpf:_Context_get_RandomCS_m3946020109
jHf:__ZL72IntPtr_t_CustomAttributesCacheGenerator_IntPtr_op_Inequality_m3044532593P21CustomAttributesCache
EUd:_Dropdown_get_onValueChanged_m3334401942
bDj:__ZN6il2cpp2vm10WaitHandle19NewManualResetEventEb
q_i:_U3CSpawnObsU3Ec__Iterator0_Reset_m2722009117
MKe:_ReadOnlyCollection_1_System_Collections_IList_Contains_m3707723158_gshared
yVg:_Version_GetHashCode_m880841176
cE:__Z51Register_UnityEngine_Animator_get_hasBoundPlayablesv
JLi:_Nullable_1_ToString_m1238126148_AdjustorThunk
Md:emscriptenWebGLGetUniform
Co:FUNCTION_TABLE_iiiiiiiiiii
Zna:__Z32TransferEnumWithNameForceIntSizeI14SafeBinaryRead13TextureFormatEvRT_RT0_PKc17TransferMetaFlags
Sjg:__ZL86Scrollbar_t3248359358_CustomAttributesCacheGenerator_Scrollbar_ClickRepeat_m3403943364P21CustomAttributesCache
i0a:__ZL10CleanUpJobP20CullingGroupsJobData
sod:_Char_CompareTo_m3044885427_AdjustorThunk
lZe:_FileStream_GetSecureFileName_m508045384
uWa:__Z20IsRunningNativeTestsv
OCh:_InternalEnumerator_1_System_Collections_IEnumerator_get_Current_m2035754659_AdjustorThunk
ptb:__ZN10MeshFilter23VirtualRedirectTransferER24GenerateTypeTreeTransfer
N0a:__ZN13RenderManager15BatchModeUpdateEv
jMi:_Predicate_1_EndInvoke_m973058386_gshared
m2f:__ZL52LayerMask_t3188175821_CustomAttributesCacheGeneratorP21CustomAttributesCache
$Ae:_Collection_1_Add_m3985367602_gshared
nrb:__ZN14SafeBinaryRead21TransferSTLStyleArrayI13dynamic_arrayI8Vector2fLj4EEEEvRT_17TransferMetaFlags
Jga:__ZN17PersistentManager51InstanceIDToLocalSerializedObjectIdentifierInternalEiR31LocalSerializedObjectIdentifier
nAc:__ZN10ClipperLib7Clipper15SetWindingCountERNS_5TEdgeE
xJg:_StrongNameKeyPair_System_Runtime_Serialization_IDeserializationCallback_OnDeserialization_m2330221363
SSc:_UNITY_FT_Create_Class_cff_services
QGh:_DefaultComparer__ctor_m1661558765_gshared
pd:_glVertexAttribIPointer
SUg:_UnhandledExceptionEventHandler_EndInvoke_m2207457167
tdh:_Dictionary_2_System_Collections_ICollection_get_IsSynchronized_m304009368_gshared
_wg:_HMAC_set_HashName_m457235014
E5b:__ZNK6Sprite10GetPaddingE20SpriteRenderDataMode
p2d:_Array_InternalArray__ICollection_Contains_TisTableRange_t2011406615_m605506746_gshared
Pdh:_Dictionary_2_Add_m1296007576_gshared
Pzd:_Decimal_op_Explicit_m729046406
vvg:_CryptoConfig_CreateFromName_m2169102076
MWd:_Graphic_OnEnable_m2900261811
yvg:_CryptographicUnexpectedOperationException__ctor_m3552441227
Xli:_AnimatorControllerPlayable_GetAnimatorClipInfoCountInternal_m826336390
dqd:_ArrayListWrapper_Clear_m321161741
P$d:_InputField_LineDownCharacterPosition_m2690468785
NNc:_UNITY_ft_glyphslot_alloc_bitmap
f8h:__Z56RuntimeInvoker_ContentType_t1028629049_Int32_t2071877448PK10MethodInfoPvPS2_
fee:_Array_Sort_TisVector2_t2243707579_TisVector2_t2243707579_m2582252549_gshared
BTg:_UInt64_System_IConvertible_ToDouble_m2828923873
JPh:__Z45RuntimeInvoker_Il2CppObject_Int16_t4041245914PK10MethodInfoPvPS2_
t0i:__ZN15dense_hashtableI10KeyWrapperIPK17Il2CppGenericInstES4_N6il2cpp8metadata21Il2CppGenericInstHashEN14dense_hash_setIS4_S7_NS4_14EqualsComparerINS6_24Il2CppGenericInstCompareEEENSt3__29allocatorIS4_EEE8IdentityESB_SE_E16reset_thresholdsEv
IZb:__ZZN2UI13RectTransform15InitializeClassEvEN31FunctorImpl_62kTransformChanged4CallEPviR11MessageData
ese:_List_1_System_Collections_IList_set_Item_m1129584681_gshared
hPc:_ft_raster1_render
mfc:__Z57Register_UnityEngine_RectTransform_INTERNAL_set_anchorMaxv
_me:_List_1_set_Capacity_m491101164_gshared
JJj:__ZNKSt3__221__basic_string_commonILb1EE20__throw_length_errorEv
LKg:_StringBuilder_Insert_m1733097906
xXh:__Z88RuntimeInvoker_Void_t1841601450_Il2CppObject_Int32_t2071877448_Il2CppObject_Il2CppObjectPK10MethodInfoPvPS2_
lIh:_Comparer_1__ctor_m1157133632_gshared
Vc:_emscripten_glUniform1i
qPe:_Comparison_1_EndInvoke_m2678763282_gshared
lch:_ValueCollection_System_Collections_Generic_ICollectionU3CTValueU3E_Clear_m3271993638_gshared
Lvd:_Enumerator_MoveNext_m1419609883
mJ:__ZN4FMOD7Channel19setReverbPropertiesEPK29FMOD_REVERB_CHANNELPROPERTIES
n1:__ZN13MonoBehaviour22GetScriptFullClassNameEv
N8i:_il2cpp_object_get_class
oMf:__ZL111DerivedType_t1016359113_CustomAttributesCacheGenerator_DerivedType_MakeGenericType_m742223168____typeArguments0P21CustomAttributesCache
hNe:_ReadOnlyCollection_1_Contains_m1816350632_gshared
Vwf:_ServicePointManager_FindServicePoint_m3137356168
yKg:_StringBuilder_Append_m3541816491
Qma:__ZN20SphericalHarmonicsL211AddWeightedERKS_f
pOd:_PointerInputModule_GetPointerData_m1695674453
zHb:__Z19TransferField_ArrayI17RemapPPtrTransfer27Converter_SimpleNativeClassI8GUIStyleEEvRK23StaticTransferFieldInfoR31RuntimeSerializationCommandInfoRT0_
y$:__ZL22StaticInitializeShaderPv
LAd:_Convert_ToUInt64_m345450801
MLi:_Predicate_1_BeginInvoke_m2559992383_gshared
loj:__ZN6il2cpp2vm3RCW7CleanupEP15Il2CppComObject
Enc:__ZN9JSONWrite8TransferI10ColorRGBAfEEvRT_PKc17TransferMetaFlags
t6h:__Z52RuntimeInvoker_Void_t1841601450_Keyframe_t1449471340PK10MethodInfoPvPS2_
QIe:_ReadOnlyCollection_1_get_Item_m1909688500_gshared
I1:__Z25scripting_method_get_name18ScriptingMethodPtr
vfc:__Z35Register_UnityEngine_Resources_Loadv
iGb:__Z19TransferField_ArrayI14SafeBinaryRead16Converter_StringEvRK23StaticTransferFieldInfoR31RuntimeSerializationCommandInfoRT0_
cJj:_rename
cBj:_GC_exit_check
o5e:_NotSupportedException__ctor_m3232764727
jwf:_TypeConverterAttribute_Equals_m2330345916
lbg:__ZL86GUIStyle_t1799908754_CustomAttributesCacheGenerator_GUIStyle_get_alignment_m3513439031P21CustomAttributesCache
l0:__Z20UnlockObjectCreationv
NWh:__Z55RuntimeInvoker_Il2CppObject_RegexOptionsU26_t3063574985PK10MethodInfoPvPS2_
NYe:_MonoIO_CreateDirectory_m379525469
w6d:__ZN21InterfaceFuncInvoker2Ii22UILineInfo_t3621277874S0_E6InvokeEjP11Il2CppClassP12Il2CppObjectS0_S0_
Qs:__ZN9BlobWrite8TransferI22OffsetPtrArrayTransferI9OffsetPtrIN7mecanim12statemachine18StateMachineMemoryEEEEEvRT_PKc17TransferMetaFlags
iLc:_UNITY_ft_smooth_renderer_class_pic_free
Que:_List_1_System_Collections_IList_Remove_m3763718607_gshared
hdi:_Bounds_get_center_m129401026
mf:_emscripten_glStencilOpSeparate
aed:_String_Concat_m2000667605
x4i:__ZN6il2cpp2os19SocketHandleWrapperC2ERKS1_
duj:__ZN6il2cpp2os10ThreadImpl12QueueUserAPCEPFvPvES2_
nG:__Z32TransferEnumWithNameForceIntSizeI14SafeBinaryReadN10SampleClip17CompressionFormatEEvRT_RT0_PKc17TransferMetaFlags
k1c:__ZN22BaseUnityConnectClient10QueueEventERN11UnityEngine15CloudWebService17CloudServiceEventEPKcjb
d3g:_Mesh_DefaultDimensionForChannel_m153181993
ise:__ZN23InterfaceActionInvoker2IP28UICharInfoU5BU5D_t2749705857iE6InvokeEjP11Il2CppClassP12Il2CppObjectS1_i
f2f:__ZL81Input_t1785128008_CustomAttributesCacheGenerator_Input_get_touchCount_m2050827666P21CustomAttributesCache
m8c:_SHA384Managed_unpackWord_m2501009050
IUc:_UNITY_FT_Hypot
Ykd:_BitConverter_ToInt64_m1329623425
o_b:__ZN8RendererC2E12RendererType18MemLabelIdentifier18ObjectCreationMode
tTf:__ZL95ASCIIEncoding_t3022927988_CustomAttributesCacheGenerator_ASCIIEncoding_GetByteCount_m1396020051P21CustomAttributesCache
$7i:_il2cpp_class_is_abstract
Cfg:__ZL92PointerEventData_t1599784723_CustomAttributesCacheGenerator_U3CpointerDragU3Ek__BackingFieldP21CustomAttributesCache
Ff:_emscripten_glGetError
$J:__Z14FMOD_FILE_SeekPvjS_
Tti:_MethodCall_get_Properties_m1893707917
GHf:__ZL72Enum_t2459695545_CustomAttributesCacheGenerator_Enum_ToObject_m604645223P21CustomAttributesCache
Z9g:_ShimEnumerator_get_Entry_m2387156530_gshared
v1a:__ZNK13RenderTexture32CalculateNeedsInvertedProjectionEv
c9a:__ZN10systeminfo18GetOperatingSystemEv
Nf:emscriptenWebGLGet
e7g:_Rect_GetHashCode_m559954498_AdjustorThunk
H3:__Z19CanReplaceComponentRN5Unity9ComponentEPKNS_4TypeEPN4core12basic_stringIcNS5_20StringStorageDefaultIcEEEE
U$b:__ZN12CubemapArray11InitTextureEiii13TextureFormatb
dte:_List_1_GrowIfNeeded_m2433342921_gshared
BZh:__Z36RuntimeInvoker_Matrix4x4_t2933234003PK10MethodInfoPvPS2_
QHa:__ZNK15Lz4Decompressor20DecompressStreamInitEPPv
Kcj:__ZN24dense_hashtable_iteratorINSt3__24pairIK10KeyWrapperIPK10Il2CppTypeEjEES6_N6il2cpp8metadata14Il2CppTypeHashEN14dense_hash_mapIS6_jSB_NS6_14EqualsComparerINSA_26Il2CppTypeEqualityComparerEEENS0_9allocatorIS8_EEE9SelectKeyESF_SH_E30advance_past_empty_and_deletedEv
DAe:_Collection_1_set_Item_m3803272710_gshared
r3g:_Mesh_SetUVs_m841280343
nIg:_MonoMethodInfo_t3646562144_marshal_pinvoke_cleanup
lAf:_X509Certificate2_get_SignatureAlgorithm_m3069898012
Kwf:_HttpRequestCreator__ctor_m2513916021
WE:__Z105Register_UnityEngine_Experimental_Director_AnimatorControllerPlayable_INTERNAL_CALL_GetLayerCountInternalv
sWe:_Int64_System_IConvertible_ToSingle_m1678482180
wSh:__Z54RuntimeInvoker_Il2CppObject_IntPtr_t_Int32_t2071877448PK10MethodInfoPvPS2_
D$g:_GUIStyle_INTERNAL_CALL_Internal_CalcSizeWithConstraints_m1203344891
yt:__ZN7mecanim5human13HumanFixTwistEPKNS0_5HumanEPNS_8skeleton13SkeletonPoseTIN4math4trsXEEES9_iiRKf
dXa:__ZL24AssignProjectorQueuesJobP30AssignProjectorQueuesJobHeader
UOg:_TimeSpan_get_Hours_m3804628138
RXi:__ZL25UnresolvedVirtualCall_124P12Il2CppObjectPK10MethodInfo
VVd:_FontData_set_alignByGeometry_m2819509290
Apj:__ZN14dense_hash_mapI10KeyWrapperIP12Il2CppObjectEN6il2cpp2gc9CachedCCWENS4_5utils11PointerHashIS1_EENS3_14EqualsComparerINSt3__28equal_toIS2_EEEENSB_9allocatorINSB_4pairIKS3_S6_EEEEEC2EjRKS9_RKSE_
Bwi:_Regex__ctor_m3250610064
fUb:__ZN9ShaderLab20SerializedSubProgram14SetConstBufferEPKci
ahf:_ArgumentNullException__ctor_m911049464
GGg:_TargetParameterCountException__ctor_m2760108938
iog:_SoapAttribute_SetReflectionObject_m2774156012
QKi:_Check_Source_m3385315029
ONi:_InvokableCall_4_Find_m1467690987_gshared
SOe:_Comparison_1_Invoke_m345024424_gshared
hRc:_cf2_getStdVW
ULe:_ReadOnlyCollection_1_System_Collections_IList_Insert_m3936197025_gshared
pId:_EventHandler_BeginInvoke_m3027583606
fU:__Z40DebugStringToFilePostprocessedStacktraceRK21DebugStringToFileData
dsc:__Z29Transfer_Blittable_ArrayFieldI8JSONReadjEvRT_R9ArrayInfoRK23StaticTransferFieldInfo
AFi:_StateMachineBehaviour_OnStateEnter_m1095276890
H4g:_Object_GetInstanceID_m1920497914
ysi:_ContextAttribute__ctor_m4006843177
oCh:_InternalEnumerator_1_get_Current_m314017974_AdjustorThunk
Wmi:_AnimatorControllerPlayable_Play_m1337154648
sg:__setLetterbox
t_e:_MemoryStream__ctor_m1043059966
_ga:__ZNSt3__26__treeINS_12__value_typeIN9ShaderLab16FastPropertyNameEfEENS_19__map_value_compareIS3_S4_NS_4lessIS3_EELb1EEENS_9allocatorIS4_EEE12__find_equalIS3_EERPNS_16__tree_node_baseIPvEENS_21__tree_const_iteratorIS4_PNS_11__tree_nodeIS4_SE_EEiEESH_RKT_
vGi:_TextGenerator_Populate_Internal_m1817393161
EKf:__ZL57CollectionBase_t1101587467_CustomAttributesCacheGeneratorP21CustomAttributesCache
Ing:__ZN21InterfaceFuncInvoker3IP12Il2CppObjectP6Type_t28StreamingContext_t1417235061PS1_E6InvokeEjP11Il2CppClassS1_S3_S4_S5_
ksb:__ZNSt3__26vectorI17BlendShapeChannelNS_9allocatorIS1_EEE6assignINS_11__wrap_iterIPS1_EEEENS_9enable_ifIXaasr21__is_forward_iteratorIT_EE5valuesr16is_constructibleIS1_NS_15iterator_traitsISA_E9referenceEEE5valueEvE4typeESA_SA_
Y0d:_LayoutElement_set_preferredWidth_m3072758716
KOi:_UnityEvent_1_AddListener_m1708363187_gshared
Wyf:_AsnEncodedData_ToString_m724151831
c1a:__ZN11TimeManager11GetRealtimeEv
yze:_Collection_1_System_Collections_IList_get_IsFixedSize_m2408637569_gshared
xMg:_UTF8Encoding_GetByteCount_m1469571127
BAj:_GC_print_block_list
mK:__ZN29AudioEffectInternalDefinitionC2EP26UnityAudioEffectDefinitionb
QGg:_MonoMethodInfo_GetDeclaringType_m4186531677
Iog:_SoapTypeAttribute_SetReflectionObject_m1566293812
lhh:_DefaultComparer__ctor_m418731767_gshared
_A:__ZN4PPtrI6AvatarE8TransferI18StreamedBinaryReadILb0EEEEvRT_
DSi:_Enumerator_System_Collections_IEnumerator_Reset_m2573763156_AdjustorThunk
vqg:_RemotingServices_CreateClientProxy_m1631035355
fUg:_UInt64_ToString_m2892887310
ybg:__ZL88GUIStyle_t1799908754_CustomAttributesCacheGenerator_GUIStyle_set_fixedHeight_m1517737608P21CustomAttributesCache
Dna:_stbir_resize
xwj:__ZN15dense_hashtableINSt3__24pairIK10KeyWrapperIPK19Il2CppGenericMethodEP10MethodInfoEES6_N6il2cpp8metadata23Il2CppGenericMethodHashEN14dense_hash_mapIS6_S9_SD_NS6_14EqualsComparerINSC_26Il2CppGenericMethodCompareEEENS0_9allocatorISA_EEE9SelectKeyESH_SJ_EC2ERKSM_j
sej:__ZN15dense_hashtableINSt3__24pairIK10KeyWrapperINS1_IPK12PropertyInfoP11Il2CppClassEEEjEES9_17ReflectionMapHashIS8_EN14dense_hash_mapIS9_jSD_NS9_14EqualsComparerINS0_8equal_toIS8_EEEENS0_9allocatorISB_EEE9SelectKeyESI_SK_E5clearEv
vtb:__ZN4PPtrI4MeshE8TransferI14SafeBinaryReadEEvRT_
Wxc:__ZN24b2ChainAndCapsuleContact6CreateEP9b2FixtureiS1_iP16b2BlockAllocator
pIa:__Z37ReadDirectoryInfo_UnityWebAndUnityRawR12FileAccessorRKN20ArchiveStorageHeader6HeaderERNS1_13DirectoryInfoE
j5d:_Array_InternalArray__IEnumerable_GetEnumerator_TisInt64_t909078037_m1219751804_gshared
e$:__ZNSt3__26__treeINS_12__value_typeIPKciEENS_19__map_value_compareIS3_S4_15compare_tstringIS3_ELb1EEENS_9allocatorIS4_EEE7destroyEPNS_11__tree_nodeIS4_PvEE
yJf:__ZL96RuntimeTypeHandle_t2330101084_CustomAttributesCacheGenerator_RuntimeTypeHandle_Equals_m452760426P21CustomAttributesCache
tgh:_Dictionary_2_ToTValue_m1381983709_gshared
f5e:_MulticastDelegate_KPM_m1592985119
r6g:_RaycastHit2D_get_collider_m2568504212_AdjustorThunk
dHe:_Collection_1_ConvertItem_m3941916604_gshared
dUa:__ZN20DynamicPropertySheet14SetValueQueuedEN9ShaderLab16FastPropertyNameEN19ShaderPropertySheet12PropertyTypeEjNS2_8SetFlagsE
PXc:__ZN2UI6Canvas26MarkAllNestedCanvasesDirtyEv
Znj:__ZN6il2cpp2vm12ReboxIfBoxedEP14Il2CppIUnknownP11Il2CppClass
Nse:_List_1__ctor_m2766376432_gshared
P5a:__ZN25PathNamePersistentManagerD2Ev
e0:__ZN17PersistentManager48IntegrateObjectAndUnlockIntegrationMutexInternalEi
CMe:_ReadOnlyCollection_1_System_Collections_IList_get_IsReadOnly_m3872065502_gshared
SMf:__ZL112TypeBuilder_t3308873219_CustomAttributesCacheGenerator_TypeBuilder_MakeGenericType_m4282022646____typeArguments0P21CustomAttributesCache
vai:__Z89RuntimeInvoker_Il2CppObject_Scene_t1684909666_Scene_t1684909666_Il2CppObject_Il2CppObjectPK10MethodInfoPvPS2_
sp:__ZN6Object12SetHideFlagsENS_9HideFlagsE
zDc:__ZN9b2Fixture11SynchronizeEP12b2BroadPhaseRK11b2TransformS4_
zQj:_emscripten_glGetFramebufferAttachmentParameteriv__wrapper
u0a:__ZN13RendererScene15InitializeUmbraEv
Jbi:_AnimatorTransitionInfo_IsName_m2561957738_AdjustorThunk
Ama:__Z28CalculateGlobalMatrixInverse23TransformAccessReadOnly
ypc:__ZN4PPtrI6ObjectE8TransferI9JSONWriteEEvRT_
$jj:__ZN6il2cpp2vm6Thread13MemoryBarrierEv
kOd:_PointerEventData_ToString_m1218584363
Pnd:_Char_System_IConvertible_ToChar_m1489061093_AdjustorThunk
LLg:_UTF7Encoding_GetCharCount_m2589913583
Feg:__ZL117RenderPipelineManager_t984453155_CustomAttributesCacheGenerator_RenderPipelineManager_set_currentPipeline_m3825706412P21CustomAttributesCache
DUh:__Z91RuntimeInvoker_DateTime_t693205669_Il2CppObject_Il2CppObject_Il2CppObject_Int32_t2071877448PK10MethodInfoPvPS2_
FOa:_UNITY_png_write_sCAL_s
k$e:_MemoryStream_CalculateNewCapacity_m3533542025
heg:__ZL66ExcludeFromDocsAttribute_t665825653_CustomAttributesCacheGeneratorP21CustomAttributesCache
rFj:__ZN6il2cpp6icalls8mscorlib6System6Object7GetTypeEP12Il2CppObject
C$i:__ZNK15dense_hashtableINSt3__24pairIK10KeyWrapperIPKcEP11Il2CppClassEES5_N6il2cpp5utils11StringUtils12StringHasherIS4_EEN14dense_hash_mapIS5_S8_SE_NS5_14EqualsComparerINSC_21CaseSensitiveComparerEEENS0_9allocatorIS9_EEE9SelectKeyESI_SK_E5beginEv
Gbg:__ZL88GUIStyle_t1799908754_CustomAttributesCacheGenerator_GUIStyle_GetFontInternal_m3509743324P21CustomAttributesCache
tPg:_TimeSpan_Equals_m4102942751_AdjustorThunk
o6h:__Z59RuntimeInvoker_Void_t1841601450_X509ChainStatus_t4278378721PK10MethodInfoPvPS2_
kch:_ValueCollection_System_Collections_Generic_ICollectionU3CTValueU3E_Add_m1903672223_gshared
zG:__ZN4FMOD6SoundI7releaseEv
bub:__ZN14SpriteRenderer13AwakeFromLoadE17AwakeFromLoadMode
LOd:_MouseButtonEventData__ctor_m618518000
dJa:__ZN10MemoryFile9SetLengthEy
rSg:_UInt16_ToString_m2038947049_AdjustorThunk
hih:_DefaultComparer_Equals_m3143385420_gshared
Awc:__ZNK15b2RevoluteJoint10GetAnchorBEv
lnb:__ZN14SafeBinaryRead21TransferSTLStyleArrayI13dynamic_arrayI7Hash128Lj8EEEEvRT_17TransferMetaFlags
$Bb:__Z28scripting_class_is_interface17ScriptingClassPtr
Ih:_glTexStorage2D
bFc:__ZZN10Collider2D15InitializeClassEvEN27FunctorImpl_98kSetPolygon2D4CallEPviR11MessageData
UTb:__ZNK9ShaderLab10SubProgram14EnsureCompiledEv
Rsg:_ObjectManager_RecordFixup_m3572285566
nza:__ZN18AsyncUploadManager22WaitForActiveAsyncReadEv
vLf:__ZL55DaylightTime_t3800227331_CustomAttributesCacheGeneratorP21CustomAttributesCache
Iud:_SortedList_InitTable_m460350503
A1:__Z18BuildScriptClassId17ScriptingClassPtr
gzh:_InternalEnumerator_1_get_Current_m4279678504_AdjustorThunk
Hq:__ZNK16LevelGameManager7GetNameEv
Aze:_Collection_1_System_Collections_IList_get_Item_m2415649949_gshared
w0b:__ZN8Renderer28HandleParentHierarchyChangesEPK23TransformAccessReadOnlyj
EDg:_ILTokenInfo_t149559338_marshal_pinvoke_cleanup
zFe:_Collection_1_Remove_m2358120395_gshared
fYb:__Z13RegisterClassI18DelayedCallManagerEvv
w1c:__ZN18UnityConnectClient15GetCloudServiceEv
NHb:__Z18Transfer_BlittableI24GenerateTypeTreeTransferLb0EiEvRK29SerializationCommandArgumentsR31RuntimeSerializationCommandInfo
u4i:__ZN6il2cpp2os19SocketHandleWrapperD2Ev
Axc:__ZN15b2CircleContact6CreateEP9b2FixtureiS1_iP16b2BlockAllocator
XBb:__ZL28SerializationCommandGroupForRK31TransferFunctionScriptingTraits17ScriptingClassPtr17ScriptingFieldPtrRK20CoreScriptingClasses
Ufb:__ZN10TagManager32RegisterDefaultTagsAndLayerMasksEv
WQi:_TweenRunner_1_StopTween_m2135918118_gshared
Ych:_ValueCollection_get_Count_m4142113966_gshared
zcg:__ZL118AttributeHelperEngine_t958797062_CustomAttributesCacheGenerator_AttributeHelperEngine_GetRequiredComponents_m120894667P21CustomAttributesCache
Vcb:__ZN14CachingManager12ReadInfoFileERKN4core12basic_stringIcNS0_20StringStorageDefaultIcEEEEPlPNSt3__26vectorIS4_NS8_9allocatorIS4_EEEE
w5f:__ZL105RectTransform_t3349966182_CustomAttributesCacheGenerator_RectTransform_INTERNAL_get_sizeDelta_m3975625099P21CustomAttributesCache
Bpd:_ArrayList_InsertRange_m1478230997
fxa:__ZN4gles8InitCapsEP7ApiGLESP12GraphicsCapsR16GfxDeviceLevelGL
xha:__ZN6prcore14BlitImageFloatERK14ImageReferenceRS0_NS0_8BlitModeE
tkd:_Swapper_EndInvoke_m677693941
Hdb:__ZN21AssetBundleFileSystem4ReadER13FileEntryDatayyPvPy
D2g:_Matrix4x4_Equals_m1321236479_AdjustorThunk
qi:_glEnable
Meb:__ZNK13Lz4Compressor29CalculateCompressedBufferSizeEj
m5i:__ZN6il2cpp2vm19SocketPollingThreadC2Ev
SRa:__ZNK25CameraStackRenderingState21GetImageEffectTextureEb
Stg:_RuntimeMethodHandle__ctor_m2437574937_AdjustorThunk
W4f:__ZL99Transform_t3275118058_CustomAttributesCacheGenerator_Transform_INTERNAL_get_localPosition_m94028171P21CustomAttributesCache
SRg:_UInt16_System_IConvertible_ToInt64_m2835280558_AdjustorThunk
G5g:_Quaternion_GetHashCode_m2270520528_AdjustorThunk
N_f:__ZL53g_UnityEngine_Assembly_CustomAttributesCacheGeneratorP21CustomAttributesCache
uMi:_Predicate_1_BeginInvoke_m3926587117_gshared
aC:__ZZN8Animator15InitializeClassEvEN31FunctorImpl_427kDidModifyAvatar4CallEPviR11MessageData
Qxb:__ZNSt3__26vectorI4PPtrI6ObjectE13stl_allocatorIS3_L18MemLabelIdentifier51ELi16EEE6assignINS_11__wrap_iterIPS3_EEEENS_9enable_ifIXaasr21__is_forward_iteratorIT_EE5valuesr16is_constructibleIS3_NS_15iterator_traitsISD_E9referenceEEE5valueEvE4typeESD_SD_
jyg:_AssemblyName_get_Name_m1815759940
Tpe:_List_1_get_Item_m1231764300_gshared
$Td:_DefaultControls_CreateToggle_m1568873127
Cwe:_List_1__cctor_m1022807427_gshared
sKf:__ZL63KeyNotFoundException_t1722175009_CustomAttributesCacheGeneratorP21CustomAttributesCache
dgh:_Dictionary_2_InitArrays_m2270022740_gshared
lwd:_Convert_ToBoolean_m2188088811
e0c:__ZN11UnityEngine7Connect15DeviceInfoEvent16CollectExtraInfoEv
BUh:__Z115RuntimeInvoker_Boolean_t3825574718_Il2CppObject_Int32_t2071877448_Il2CppObject_SByte_t454417549_Int32U26_t455636984PK10MethodInfoPvPS2_
YKg:_UnicodeEncoding_GetChars_m3765282346
gXe:_IntPtr__ctor_m4104029105
XQf:__ZL114BinaryFormatter_t1866979105_CustomAttributesCacheGenerator_BinaryFormatter_get_DefaultSurrogateSelector_m219714691P21CustomAttributesCache
ADh:_InternalEnumerator_1_System_Collections_IEnumerator_get_Current_m771161214_AdjustorThunk
d4e:_MonoType_get_attributes_m1493788675
gJj:_atol
eDj:__ZN6il2cpp6icalls8mscorlib6System10Reflection9FieldInfo25internal_from_handle_typeE12Il2CppIntPtrS5_
cCj:__ZThn8_N6il2cpp2vm13CachedCCWBaseINS0_13ManagedObjectEE6AddRefEv
Iyd:_Convert_ToDouble_m4236754739
Fsf:_SslClientStream_get_PrivateKeyCertSelectionDelegate_m3715949545
lVd:_Dropdown_CreateItem_m2702141380
ONe:_ReadOnlyCollection_1_IndexOf_m224962127_gshared
$Kf:__ZL48Stack_t1043988394_CustomAttributesCacheGeneratorP21CustomAttributesCache
Go:FUNCTION_TABLE_viifi
Ho:FUNCTION_TABLE_viiff
$Gg:_MonoEvent_GetAddMethod_m4289563120
hJf:__ZL37Type_t_CustomAttributesCacheGeneratorP21CustomAttributesCache
XUc:_UNITY_tt_face_free_hdmx
aij:__ZN15dense_hashtableINSt3__24pairIK10KeyWrapperINS1_IP11Il2CppClassjEEES4_EES6_N6il2cpp8metadata14ArrayClassHashEN14dense_hash_mapIS6_S4_SB_NS6_14EqualsComparerINSA_17ArrayClassCompareEEENS0_9allocatorIS8_EEE9SelectKeyESF_SH_E5clearEv
k$i:__ZNSt3__218uninitialized_copyIPNS_4pairIK10KeyWrapperIPK11Il2CppClassEPKcEESB_EET0_T_SD_SC_
A9i:__ZN6il2cpp2vm14TypeNameParser5ParseEb
_nh:_ReflectionMethodsCache__ctor_m1835220
DTh:__Z51RuntimeInvoker_Int16_t4041245914_Single_t2076509932PK10MethodInfoPvPS2_
zKf:__ZL71SynchronizedArrayListWrapper_t3317806524_CustomAttributesCacheGeneratorP21CustomAttributesCache
u3c:__ZN23UnityPurchasingSettingsC2Ev
WGd:_Double_ToString_m1864290157
QLh:__Z63RuntimeInvoker_Il2CppObject_Int16_t4041245914_Int32_t2071877448PK10MethodInfoPvPS2_
WBh:_InternalEnumerator_1_get_Current_m4154059426_AdjustorThunk
P5:__ZNSt3__26__treeINS_12__value_typeI18VertexChannelsInfo16MeshVertexFormatEENS_19__map_value_compareIS2_S4_NS_4lessIS2_EELb1EEE13stl_allocatorIS4_L18MemLabelIdentifier16ELi16EEE12__find_equalIS2_EERPNS_16__tree_node_baseIPvEENS_21__tree_const_iteratorIS4_PNS_11__tree_nodeIS4_SF_EEiEESI_RKT_
grj:__ZNK24NamespaceAndNamePairHashclERKNSt3__24pairIPKcS3_EE
Jna:__ZL37stbir__resample_horizontal_downsampleP11stbir__infoiPf
BBe:__ZN21InterfaceFuncInvoker1Ib18Color32_t874517518E6InvokeEjP11Il2CppClassP12Il2CppObjectS0_
$ka:__ZNK5Unity9Component38MarkGameObjectAndComponentDependenciesER27GarbageCollectorThreadState
wW:__ZL16OutOfMemoryErrorjj18MemLabelIdentifieriPKc
Nnf:_RecordProtocol_SendRecord_m132002114
vM:__ZNK7Texture21GetShadowSamplingModeEv
ZU:__ZN13ScreenManager21OnWindowRegainedFocusEv
oOb:__Z18Transfer_BlittableI18StreamedBinaryReadILb0EELb1EdEvRK29SerializationCommandArgumentsR31RuntimeSerializationCommandInfo
Gei:_WillRenderCanvases_BeginInvoke_m1914028027
cTe:_Guid__ctor_m2599802704
LZe:_FileStream_get_CanRead_m4148920720
S3c:__ZN13RuntimeStaticINSt3__26vectorIPN5physx15PxVehicleWheelsENS0_9allocatorIS4_EEEELb0EE13StaticDestroyEPv
Sza:__ZN4crnd12symbol_codec32decode_receive_static_data_modelERNS_25static_huffman_data_modelE
DZb:__ZN18ScriptingArguments8AddFloatEf
TRe:_GregorianCalendar_set_CalendarType_m2438362222
vTd:_FloatTween_get_targetValue_m2120061648_AdjustorThunk
Y6h:__Z71RuntimeInvoker_Void_t1841601450_Int32_t2071877448_UriScheme_t1876590943PK10MethodInfoPvPS2_
n3d:_Array_InternalArray__ICollection_Contains_TisVector2_t2243707579_m3625698589_gshared
epc:__Z18Transfer_BlittableI9JSONWriteLb0EaEvRK29SerializationCommandArgumentsR31RuntimeSerializationCommandInfo
gP:__ZN11UnityEngine15CloudWebService14DataDispatcher34OnSessionContainerArchivedAndReadyERNS0_16SessionContainerE
TAc:__ZN7b2World11CreateJointEPK10b2JointDef
xzb:__ZN13EmscriptenWWW10OnResponseEPviS0_jPc
mVf:__ZL77Convert_t2607082565_CustomAttributesCacheGenerator_Convert_ToByte_m2303223565P21CustomAttributesCache
Dmf:_CipherSuiteCollection__ctor_m2154226461
GJb:__Z18Transfer_BlittableI19StreamedBinaryWriteILb0EELb0E8Vector3fEvRK29SerializationCommandArgumentsR31RuntimeSerializationCommandInfo
WWg:_RectOffset__ctor_m2227510254
nQb:__ZN14SafeBinaryRead19TransferSTLStyleMapINSt3__23mapIN4core12basic_stringIcNS3_20StringStorageDefaultIcEEEEiNS1_4lessIS7_EENS1_9allocatorINS1_4pairIKS7_iEEEEEEEEvRT_17TransferMetaFlags
Kdj:__ZN15dense_hashtableINSt3__24pairIK10KeyWrapperINS1_IPK11Il2CppImageP11Il2CppClassEEEjEES9_17ReflectionMapHashIS8_EN14dense_hash_mapIS9_jSD_NS9_14EqualsComparerINS0_8equal_toIS8_EEEENS0_9allocatorISB_EEE9SelectKeyESI_SK_ED2Ev
EMc:_gray_move_to
zwg:_DSAParameters_t1872138834_marshal_pinvoke
lji:_UnityAction_BeginInvoke_m407736228
zGe:_Collection_1_System_Collections_IEnumerable_GetEnumerator_m4174600764_gshared
Gti:_ConstructionCall_InitDictionary_m4046452035
izb:__ZN5Cache9URLToPathERKN4core12basic_stringIcNS0_20StringStorageDefaultIcEEEE7Hash128
Eej:__ZN6il2cpp2vm10Reflection14GetEventObjectEP11Il2CppClassPK9EventInfo
t1h:__Z43RuntimeInvoker_VerticalWrapMode_t3668245347PK10MethodInfoPvPS2_
Wnf:_TlsStream_Write_m2271546135
k7b:__Z30RegisterValidateMethodCallbackiPF18ScriptingMethodPtrS_17ScriptingClassPtrP6ObjectEPKc
VW:__ZN20LocalFileSystemPosixD0Ev
TJd:_CultureInfo_ConstructInternalLocaleFromCurrentLocale_m1342751405
XTh:__Z50RuntimeInvoker_UInt16_t986882611_Int16_t4041245914PK10MethodInfoPvPS2_
Kdb:__ZN21AssetBundleFileSystem5WriteER13FileEntryDatayPvPy
mid:_Latin1Encoding_GetString_m3553289597
aOc:_tt_cmap_init
hBa:__ZL25ProgramUniformMatrix4x2fvPK7ApiGLESjiihPKv
vJh:_Enumerator_get_Current_m1020413567_AdjustorThunk
qne:_List_1_System_Collections_IList_get_IsFixedSize_m1122077912_gshared
ipj:__ZN15dense_hashtableI10KeyWrapperIP18Il2CppGenericClassES3_N6il2cpp8metadata22Il2CppGenericClassHashEN14dense_hash_setIS3_S6_NS3_14EqualsComparerINS5_25Il2CppGenericClassCompareEEENSt3__29allocatorIS3_EEE8IdentityESA_SD_E12maybe_shrinkEv
G7h:__Z48RuntimeInvoker_Link_t865133271_Int32_t2071877448PK10MethodInfoPvPS2_
jZb:__ZN9TextAssetC2E18MemLabelIdentifier18ObjectCreationMode
Ohi:_Display_RecreateDisplayList_m3412638488
mej:__ZN15dense_hashtableINSt3__24pairIK10KeyWrapperINS1_IPK12PropertyInfoP11Il2CppClassEEEjEES9_17ReflectionMapHashIS8_EN14dense_hash_mapIS9_jSD_NS9_14EqualsComparerINS0_8equal_toIS8_EEEENS0_9allocatorISB_EEE9SelectKeyESI_SK_E8min_sizeEjj
PWf:__ZL79Convert_t2607082565_CustomAttributesCacheGenerator_Convert_ToUInt64_m2215781574P21CustomAttributesCache
f9h:__Z52RuntimeInvoker_KeyValuePair_2_t38854645_Il2CppObjectPK10MethodInfoPvPS2_
dWj:_emscripten_glCheckFramebufferStatus__wrapper
mjj:__ZNK15dense_hashtableINSt3__24pairIK10KeyWrapperIP11Il2CppClassES4_EES5_N6il2cpp8metadata16SZArrayClassHashEN14dense_hash_mapIS5_S4_SA_NS5_14EqualsComparerINS9_19SZArrayClassCompareEEENS0_9allocatorIS7_EEE9SelectKeyESE_SG_E12test_deletedEj
zrc:__Z18Transfer_BlittableI8JSONReadLb0EdEvRK29SerializationCommandArgumentsR31RuntimeSerializationCommandInfo
Gse:_List_1_TrimExcess_m2004514756_gshared
JNg:_Thread_ClrState_m822263449
X7e:_SimpleCollator_LastIndexOfOrdinalIgnoreCase_m550798345
w$g:_GUIStyle_INTERNAL_CALL_Internal_GetCursorStringIndex_m3074318281
Wm:FUNCTION_TABLE_viiiiiifiii
Dsa:__ZNK9GfxDevice13GetViewMatrixEv
lla:__ZN17RemapPPtrTransferC2E24TransferInstructionFlagsb
X2:__ZN8TypeTree8BlobReadERPKhS1_ib
wla:__ZN18LoadSceneOperation23GetAllowSceneActivationEv
yja:__ZN11prophecysdk4half7convertEi
Kgb:__ZN6CameraD0Ev
w9e:_ModulusRing_Multiply_m386339435
v7:__ZN31CanvasBatchIntermediateRenderer16StaticInitializeEPv
GXd:_GraphicRaycaster_U3CRaycastU3Em__0_m3971200721
mKe:_ReadOnlyCollection_1_System_Collections_IList_RemoveAt_m3004588099_gshared
oyd:_Decimal_op_Implicit_m4246329390
chf:_ArgumentNullException__ctor_m2252076819
g3a:__ZN10GameObjectC2E18MemLabelIdentifier18ObjectCreationMode
HLc:_raccess_guess_apple_double
kvf:_ListDictionary_GetEnumerator_m1511032609
sBg:_TypeBuilder_get_FullName_m1626507516
nsg:_SerializationInfo__ctor_m4016423422
RAa:__ZL18ProgramUniform1uivPK7ApiGLESjiihPKv
c0b:__ZN14Texture2DArray13RebuildMipMapEv
M_i:__ZN13Il2CppHashSetIPK17Il2CppGenericInstN6il2cpp8metadata21Il2CppGenericInstHashENS4_24Il2CppGenericInstCompareENSt3__29allocatorI10KeyWrapperIS2_EEEEC2EjRKS5_RKS6_
pAe:_Collection_1_Clear_m2734620236_gshared
jvj:__ZN6il2cpp2gc16GarbageCollector14RemoveWeakLinkEPPv
gUb:__ZN9ShaderLab20SerializedSubProgram14AddVectorParamEPKcii15ShaderParamTypei
$oe:_List_1_System_Collections_Generic_IEnumerableU3CTU3E_GetEnumerator_m3123730956_gshared
xZc:__ZN2UI14CanvasRenderer12CleanupClassEv
VMe:_ReadOnlyCollection_1_System_Collections_IEnumerable_GetEnumerator_m1734360860_gshared
Phh:_DefaultComparer__ctor_m1052417779_gshared
Sbd:_SystemException__ctor_m2688248668
poi:_ResourceSet_ReadResources_m1669023823
Wdb:__ZNK17FileSystemHandler6ParentERK13FileEntryDataRN4core12basic_stringIcNS3_20StringStorageDefaultIcEEEE
lff:_PKCS12_RemoveCertificate_m1590055870
_jj:__ZN6il2cpp2vm6Thread7SetNameEP12Il2CppThreadP12Il2CppString
qBg:_TypeBuilder_get_DeclaringType_m3236598700
n9:__ZN13ScreenManager18SetAllowCursorLockEb
yyb:__ZN30RuntimeInitializeOnLoadManager15ClassMethodInfo8TransferI14SafeBinaryReadEEvRT_
XAb:__ZN9TextAsset8TransferI14SafeBinaryReadEEvRT_
llg:__ZL73CanvasScaler_t2574720772_CustomAttributesCacheGenerator_m_ScreenMatchModeP21CustomAttributesCache
ZN:__ZL22InitializeModule_Audiov
$Bc:__ZN16Physics2DManager13DynamicUpdateEv
o8a:__ZN16MemoryFileSystem8IsLockedERK13FileEntryData
xIi:_Vector2_get_Item_m2792130561_AdjustorThunk
IGg:_MonoCMethod_Invoke_m931478014
woi:_SatelliteContractVersionAttribute__ctor_m2605651717
Zk:_emscripten_glBindRenderbuffer
bCg:_EnumBuilder_HasElementTypeImpl_m1414733955
glc:__Z32GUIStyle_Set_Custom_PropClippingP12Il2CppObjecti
Qgd:_DecoderExceptionFallbackBuffer_GetNextChar_m1727394816
ZAj:_GC_dirty_init
Fjd:_Array_Copy_m1969461849
Hrg:_MessageFormatter_ReadMethodResponse_m4134629501
Hqj:__ZN6il2cpp2vm5Field14GetValueObjectEP9FieldInfoP12Il2CppObject
SYc:__ZNK2UI6Canvas16GetTargetDisplayEv
QBi:_PKCS12_GetSymmetricAlgorithm_m3196291685
cId:_Environment_get_OSVersion_m1247315981
m6:__ZN6Object17FindObjectsOfTypeEPKN5Unity4TypeER13dynamic_arrayIPS_Lj4EEb
_3b:__ZNSt3__26vectorINS_4pairIiiEE13stl_allocatorIS2_L18MemLabelIdentifier1ELi16EEE21__push_back_slow_pathIKS2_EEvRT_
fDf:_Capture_get_Length_m1952322390
Jpc:__ZN9JSONWrite8TransferI4PPtrI9Texture2DEEEvRT_PKc17TransferMetaFlags
jki:_AnimationOffsetPlayable_INTERNAL_CALL_GetRotation_m2705874827
tBb:__ZN13MonoBehaviour17RemoveFromManagerEv
lhb:__ZN12ImageFilters14AddImageFilterERK11ImageFilter
GZc:__ZL23RegisterModuleICalls_UIv
Spb:__ZL11DecodeValuePPKcS0_
rah:_ShimEnumerator_MoveNext_m2013866013_gshared
iT:__ZN13MemoryManagerC2Ev
NDa:__ZN12SkinMeshInfo10DeallocateEPS_
YHi:_Transform_SetParent_m1963830867
qLa:__ZN20ArchiveStorageReader28AcquireAndPrefillUnusedBlockEjPNS_11CacheResultE
$Uh:__Z78RuntimeInvoker_Il2CppObject_SByte_t454417549_SByte_t454417549_SByte_t454417549PK10MethodInfoPvPS2_
Y$b:__Z12NHxRoughnessIA4_tEvP9Texture2DPT_iiii
bHi:_Touch_get_phase_m196706494_AdjustorThunk
Pui:_MethodDictionary_get_SyncRoot_m673971424
M6:__ZN18AsyncUploadManagerD2Ev
VVb:__ZN9Transform5ResetEv
uJb:__Z22TransferField_NonArrayI24GenerateTypeTreeTransfer16Converter_StringEvRK23StaticTransferFieldInfoR31RuntimeSerializationCommandInfoRT0_
TNc:_UNITY_FT_CMap_New
tub:__ZNK17InstancedPropInfo21RenderSpriteInstancesERK15RenderNodeQueuePK17BatchInstanceDataj17ShaderChannelMask
Rwf:_HttpWebRequest_System_Runtime_Serialization_ISerializable_GetObjectData_m3671622902
e9:__Z17MainLoopKeepalivePv
Lki:_AnimatorControllerPlayable_INTERNAL_CALL_SetBoolString_m1232105510
kvi:_MatchCollection__ctor_m1944681790
m4c:_HMACSHA512__ctor_m1667460019
a0a:__Z24ScheduleCullingAllGroupsR8JobFenceRK22SceneCullingParameters4PPtrI6CameraERK13CullingOutputRK13dynamic_arrayIP12CullingGroupLj4EERKS_
d9c:_ToBase64Transform_get_OutputBlockSize_m949275583
aHe:_Collection_1_set_Item_m3254085220_gshared
u$a:__Z14CalcHullBoundsPK8Vector3fPKhhRK5PlaneRK10Matrix4x4fR10MinMaxAABB
Cpg:_RealProxy__ctor_m2147093603
l6g:_RaycastHit2D_get_point_m442317739_AdjustorThunk
ICb:__ZN11PreloadData39ShouldIgnoreInGarbageDependencyTrackingEv
Gue:_List_1__ctor_m3511181530_gshared
_Ta:__Z19SetupLODFadeKeywordR17ShaderPassContexti
xKe:_ReadOnlyCollection_1_get_Count_m2180604490_gshared
YJb:__Z18Transfer_BlittableI19StreamedBinaryWriteILb0EELb0E5RectTIfEEvRK29SerializationCommandArgumentsR31RuntimeSerializationCommandInfo
Dzj:_GC_set_fl_marks
eDa:__ZL25CheckCopyTextureArgumentsRK7ApiGLESP11GLESTextureS3_
G6:__ZN13dynamic_arrayI26EnlightenSystemInformationLj8EE6insertEPS0_PKS0_S4_
xNc:_tt_name_entry_ascii_from_utf16
h5e:_MulticastNotSupportedException__ctor_m2164514827
jBd:_DateTime_System_IConvertible_ToChar_m2489529194_AdjustorThunk
$Ib:__Z29Transfer_Blittable_ArrayFieldI24GenerateTypeTreeTransferyEvRT_R9ArrayInfoRK23StaticTransferFieldInfo
EJ:__ZN4FMOD7SystemI9playSoundE17FMOD_CHANNELINDEXPNS_5SoundEbPPNS_7ChannelE
Eci:_AttributeHelperEngine_GetRequiredComponents_m120894667
X1f:__ZL77Input_t1785128008_CustomAttributesCacheGenerator_Input_GetAxisRaw_m4133353720P21CustomAttributesCache
pX:__GLOBAL__sub_I_runtime_graphics_mesh2_lump_cpp
pdg:__ZL68PreferBinarySerialization_t2472773525_CustomAttributesCacheGeneratorP21CustomAttributesCache
A8f:__ZL127AnimationOffsetPlayable_t859920217_CustomAttributesCacheGenerator_AnimationOffsetPlayable_INTERNAL_CALL_SetRotation_m2224758383P21CustomAttributesCache
x9i:__ZN6il2cpp2os4File4ReadEPNS0_10FileHandleEPciPi
aI:__ZN12AudioManager23VirtualRedirectTransferER18StreamedBinaryReadILb0EE
Vle:_List_1_Remove_m2616693989_gshared
Rrb:__ZN10VertexData13SwapEndianessEv
tJj:_realloc
ghc:__Z57Register_UnityEngine_Transform_INTERNAL_get_localRotationv
lrh:_ScrollRect_SetLayoutVertical_m1225848090
Ojg:__ZL60Scrollbar_t3248359358_CustomAttributesCacheGenerator_m_ValueP21CustomAttributesCache
jQg:_Type_get_IsInterface_m3583817465
lyb:__ZN30RuntimeInitializeOnLoadManager23VirtualRedirectTransferER17RemapPPtrTransfer
sNj:dynCall_viif
sHg:_MonoField_get_DeclaringType_m1591666235
Ewh:_InternalEnumerator_1__ctor_m2111763266_AdjustorThunk
AFf:_Enumerator_MoveNext_m4234629003
UQ:__ZN11UnityEngine15CloudWebService13WWWRestClient21ParseHTTPHeaderStringEN4core12basic_stringIcNS2_20StringStorageDefaultIcEEEERNS0_16WWWRestHeaderMapERjPKc
iSc:_cf2_hint_lock
bHb:__ZL26Transfer_SimpleNativeClassI17RemapPPtrTransfer8GradientLb0EEvRK29SerializationCommandArgumentsR31RuntimeSerializationCommandInfo
H1i:__ZNK15dense_hashtableINSt3__24pairIK10KeyWrapperI13dynamic_arrayIPK10Il2CppTypeLj4EEEPFvvEEES8_N6il2cpp8metadata19Il2CppSignatureHashEN14dense_hash_mapIS8_SB_SF_NS8_14EqualsComparerINSE_22Il2CppSignatureCompareEEENS0_9allocatorISC_EEE9SelectKeyESJ_SL_E10test_emptyEj
Web:__ZNSt3__26vectorIN20ArchiveStorageHeader12StorageBlockE13stl_allocatorIS2_L18MemLabelIdentifier54ELi16EEE21__push_back_slow_pathIKS2_EEvRT_
$5i:__ZN6il2cpp6icalls8mscorlib6System8MonoType14get_attributesEP20Il2CppReflectionType
ucb:__Z43DestroyWithoutLoadingButDontDestroyFromFilei
e4e:_MonoType_GetDefaultConstructor_m925465120
YQg:_Type_IsArrayImpl_m3073208555
MLj:dynCall_viiiiiffi
J5f:__ZL95Physics2D_t2540166467_CustomAttributesCacheGenerator_Physics2D_Raycast_m2303387255____distance2P21CustomAttributesCache
Gc:_emscripten_glBlendFuncSeparate
UCg:_GenericTypeParameterBuilder_IsPrimitiveImpl_m1198748291
OY:__Z20scripting_string_newPKc
Bfc:__Z43Material_CUSTOM_Internal_CreateWithMaterialP12Il2CppObjectS0_
GYe:_Directory_GetCurrentDirectory_m44486537
vQh:__Z45RuntimeInvoker_RuntimeFieldHandle_t2331729674PK10MethodInfoPvPS2_
Pdg:__ZL56UnityEventBase_t828812576_CustomAttributesCacheGeneratorP21CustomAttributesCache
Uxe:_Collection_1_System_Collections_ICollection_CopyTo_m1047946700_gshared
B9h:__Z36RuntimeInvoker_Enumerator_t975728254PK10MethodInfoPvPS2_
xzd:_Convert_ToInt64_m4057339019
bzf:_AsnEncodedData_Default_m4197142414
gF:__Z103Register_UnityEngine_Experimental_Director_AnimatorControllerPlayable_INTERNAL_CALL_ResolveHashInternalv
Lij:__ZNSt3__218uninitialized_copyIPNS_4pairIK10KeyWrapperIP11Il2CppClassES4_EES8_EET0_T_SA_S9_
cu:__ZNSt3__26__sortIRPFbPKN8Animator11AnimatorJobES4_EPS4_EEvT0_S9_T_
qH:__ZN17AudioCustomFilterD2Ev
ckc:__ZN11IMGUIModule26SetDeveloperConsoleVisibleEb
Ljc:__ZNK8GUIStyle13GetLineHeightEv
lCa:__ZN18GfxFramebufferGLES18ReleaseFramebufferEP17RenderSurfaceBaseP14GfxContextGLES
Nri:_Context_GetDynamicPropertyCollection_m1987747444
oAf:_X509Certificate2_get_Version_m1927399907
U1b:__ZN13ProduceHelperI6CameraLb0EE7ProduceE18MemLabelIdentifier18ObjectCreationMode
mZd:_Image_RadialCut_m3229543088
jS:__ZN19CloudServiceHandler34HandleSaveFileWebRequestPlayerLoopEv
Vz:__ZN7mecanim21ValueArrayReverseCopyEPKNS_18ValueArrayConstantEPKNS_10ValueArrayES2_PS3_PKi
bH:__Z31GetParentSampleClipFromInstancePN11SoundHandle8InstanceE
JZb:__ZNK28RectTransformPropertyBinding13GetFloatValueERKN11UnityEngine9Animation10BoundCurveE
T1a:__ZN6Camera22StandaloneCustomRenderENS_10RenderFlagEP6ShaderRKN4core12basic_stringIcNS3_20StringStorageDefaultIcEEEEPNS_21PerformRenderFunctionE
MFj:__ZN6il2cpp2os16ThreadLocalValue8GetValueEPPv
Z2i:__ZN6il2cpp2vm13MetadataCache14GetGenericInstEPKPK10Il2CppTypej
e8c:_SHA384Managed_Initialize_m712692291
zxh:_InternalEnumerator_1__ctor_m2688327768_gshared
Qb:invoke_iiidii
wOf:__ZL60CallingConvention_t3354538265_CustomAttributesCacheGeneratorP21CustomAttributesCache
yhc:__Z52Object_CUSTOM_GetOffsetOfInstanceIDInCPlusPlusObjectv
y7f:__ZL124AnimatorControllerPlayable_t4078305555_CustomAttributesCacheGenerator_AnimatorControllerPlayable_PlayInFixedTime_m2966168794P21CustomAttributesCache
MM:__ZN9AudioClip15InitializeClassEv
mp:setThrew
SMh:__Z36RuntimeInvoker_IntPtr_t_Il2CppObjectPK10MethodInfoPvPS2_
Q$b:__ZL21BuildEmptyCubeTexturePKci11ColorRGBA3217TextureColorSpace
qQb:__ZN14SafeBinaryRead21TransferSTLStyleArrayINSt3__26vectorIN9ShaderLab20SerializedSubProgramENS1_9allocatorIS4_EEEEEEvRT_17TransferMetaFlags
pPd:_StandaloneInputModule_set_cancelButton_m2642677329
Mqc:__Z15Transfer_StringI8JSONReadLb1EEvRK29SerializationCommandArgumentsR31RuntimeSerializationCommandInfo
Pia:__ZN6prcoreL17RemapGenericFloatI17TexFormatRGBFloat15TexFormatRGHalfEEvPKNS_9InnerInfoE
CVa:__Z25DoForwardShaderRenderLoopR17RenderLoopContextR13dynamic_arrayI16RenderObjectDataLj4EERK11CullResultsbbbN6Camera10RenderFlagE
XMc:_sfnt_load_face
uef:_PKCS12_GetSymmetricAlgorithm_m1812022677
bMg:_UTF8Encoding_GetByteCount_m2372933408
Kri:_Context_get_NeedsContextSink_m1907794755
OMc:_UNITY_ft_service_list_lookup
qjf:_ARC4Managed_GenerateKey_m716135508
WGb:__Z18Transfer_BlittableI17RemapPPtrTransferLb1E11ColorRGBA32EvRK29SerializationCommandArgumentsR31RuntimeSerializationCommandInfo
a_h:__Z57RuntimeInvoker_Il2CppObject_PlayableHandleU26_t3483893774PK10MethodInfoPvPS2_
njc:__ZN5IMGUI21SelectReceivingWindowER8GUIStateb
hD:__ZNK26AnimatorControllerPlayable17ValidateGoToStateERiS0_
fDh:_InternalEnumerator_1_get_Current_m3179981210_gshared
G9a:__ZN13BaseAllocator13TryDeallocateEPv
bLb:__Z29Transfer_Blittable_ArrayFieldI19StreamedBinaryWriteILb0EEfEvRT_R9ArrayInfoRK23StaticTransferFieldInfo
pjd:_Array_CreateInstance_m1054139389
XYg:_GUIStyleState_GetGUIStyleState_m2816150617
Uxh:_InternalEnumerator_1__ctor_m967618647_AdjustorThunk
Y7a:__ZN16MemoryFileSystem5WriteER13FileEntryDatayPvPy
AYd:_LayoutGroup_GetAlignmentOnAxis_m1783063916
whb:__ZNSt3__26vectorIN12FlareManager10FlareEntryENS_9allocatorIS2_EEE21__push_back_slow_pathIKS2_EEvRT_
Uyg:_Default_check_arguments_with_score_m1714931543
x7c:_SHA1_Create_m4086509717
ONh:__Z57RuntimeInvoker_Il2CppObject_RuntimeTypeHandle_t2330101084PK10MethodInfoPvPS2_
aPi:_UnityEvent_1_GetDelegate_m3098147632_gshared
bIg:_MonoMethodInfo_GetMethodInfo_m3298558752
NH:__ZN13AudioListener17RemoveFromManagerEv
Bd:_glAttachShader
pVd:_Dropdown_SetAlpha_m2769981009
bNa:__ZNK6Camera19GetProjectionMatrixEv
YLi:_Predicate_1_BeginInvoke_m1856151290_gshared
wQ:__ZN11UnityEngine15CloudWebService10RestClientINS0_16WWWRestHeaderMapEE6SetUrlERKN4core12basic_stringIcNS4_20StringStorageDefaultIcEEEE
mYh:__Z139RuntimeInvoker_Il2CppObject_Il2CppObject_Int32_t2071877448_SByte_t454417549_SByte_t454417549_SByte_t454417549_SByte_t454417549_Il2CppObjectPK10MethodInfoPvPS2_
WFd:_StackTrace__ctor_m2404985356
g1:__Z38PreallocateObjectFromPersistentManagerib
xBd:_DateTime_System_IConvertible_ToSingle_m3927769066
vFf:_CostDelegate__ctor_m80452417
rX:__GLOBAL__sub_I_runtime_interfaces_lump_cpp
Rlb:__ZNK9Texture2D20GetUnscaledTextureIDEv
Izd:_Convert_ToSByte_m883113940
gTj:_glFenceSync__wrapper
Y4e:_MonoType_get_ContainsGenericParameters_m3229732653
Kig:__ZL53InputField_t1631627530_CustomAttributesCacheGeneratorP21CustomAttributesCache
UQd:_ButtonClickedEvent__ctor_m938038541
dPb:__ZN18StreamedBinaryReadILb0EE21TransferSTLStyleArrayI13dynamic_arrayI4AABBLj4EEEEvRT_17TransferMetaFlags
MRg:_UInt16_System_IConvertible_ToDouble_m4100549304_AdjustorThunk
bQh:__Z116RuntimeInvoker_Il2CppObject_Il2CppObject_Il2CppObject_Int32_t2071877448_Int32_t2071877448_MonoIOErrorU26_t1029615899PK10MethodInfoPvPS2_
Zla:__Z29ClearRepeatingLogMessageStatev
zic:__ZN13TextRendering17TextMeshGenerator13GetTextOffsetERK5RectTIfE
iTi:_HashSet_1_OnDeserialization_m1222146673_gshared
Kcd:_Single_System_IConvertible_ToInt16_m962677079
_5:__ZN21EnlightenSceneMappingaSERKS_
FFe:_Collection_1_SetItem_m546457615_gshared
eGj:__ZNK6il2cpp8metadata21Il2CppGenericInstHashclEPK17Il2CppGenericInst
Pra:__ZN7ApiGLES13DeleteTextureERj
QLe:_ReadOnlyCollection_1_System_Collections_IList_Add_m3806843030_gshared
eHa:__ZN7ApiGLESD2Ev
y2a:__ZN9Transform47ClearTransformHierarchyAndApplyToSerializedDataEv
CBh:_InternalEnumerator_1_get_Current_m4083613828_AdjustorThunk
F5c:_RijndaelManaged_GenerateKey_m3366247933
mYe:_BinaryReader_ReadUInt64_m1893783375
ydi:_Bounds_op_Equality_m2161830280
V5a:__ZN17PersistentManager9AddStreamEv
KNj:dynCall_fidi
Jbj:__ZN15dense_hashtableINSt3__24pairIK10KeyWrapperINS1_IPK9FieldInfoP11Il2CppClassEEEjEES9_17ReflectionMapHashIS8_EN14dense_hash_mapIS9_jSD_NS9_14EqualsComparerINS0_8equal_toIS8_EEEENS0_9allocatorISB_EEE9SelectKeyESI_SK_E12resize_deltaEjj
fmc:__Z47Register_UnityEngine_GUIStyle_set_imagePositionv
Ilc:__Z49GUIStyle_CUSTOM_INTERNAL_CALL_Internal_DrawCursor13Il2Cpp_IntPtrRK5RectTIfEP12Il2CppObjectiRK10ColorRGBAf
Nph:_ScrollRect_set_movementType_m3292965850
eVf:__ZL59AttributeTargets_t1984597432_CustomAttributesCacheGeneratorP21CustomAttributesCache
t7g:_RectTransform_set_anchorMin_m4247668187
lR:__ZN11UnityEngine15CloudWebService14RestDownloaderD2Ev
I6a:__Z29StdTemplateConversionFunctionIjhEbPvR14SafeBinaryRead
mib:__ZN22RenderingCommandBufferC2ERKS_
Dle:_List_1_GrowIfNeeded_m2986672263_gshared
awh:_ArrayReadOnlyList_1_Remove_m2325516426_gshared
rtd:_Hashtable_get_Count_m830088216
g8b:__ZNK13MonoBehaviour13GetScriptTypeEv
cba:__ZN13RenderTexture12SetDimensionE16TextureDimension
V8g:_ScriptableObject_CreateInstance_m3921674852
qe:_SDL_FreeRW
Lcf:_PKCS1_OS2IP_m1273945439
G7c:_SHA1Internal_FillBuff_m891541953
vYf:__ZL62ResolveEventHandler_t3842432458_CustomAttributesCacheGeneratorP21CustomAttributesCache
i_c:__Z34CanvasRenderer_Get_Custom_PropCullP12Il2CppObject
Evh:_ArrayReadOnlyList_1_get_IsReadOnly_m2717922212_gshared
nM:__ZN20SoundChannelInstance8getDelayE14FMOD_DELAYTYPEPjS1_
sdb:__ZN21AssetBundleFileSystemC2EPKc
JZh:__Z113RuntimeInvoker_Int32_t2071877448_Vector2_t2243707579_Vector2_t2243707579_ContactFilter2D_t1672660996_Il2CppObjectPK10MethodInfoPvPS2_
qNh:__Z61RuntimeInvoker_Void_t1841601450_Il2CppObject_Int64_t909078037PK10MethodInfoPvPS2_
r_d:_InputField_set_customCaretColor_m3534590098
Xph:_ScrollRect_set_viewport_m323693490
gqa:__ZN10UnitySceneD0Ev
_Qe:_NumberFormatter_FormatExponential_m3975285307
GHc:__ZNSt3__26vectorIN20TextRenderingPrivate8FontImpl13CharacterInfoE13stl_allocatorIS3_L18MemLabelIdentifier1ELi16EEE8__appendEj
v:tempBigInt
ye:_emscripten_glVertexAttrib1fv
RQb:__ZNSt3__26vectorIN9ShaderLab20SerializedSubProgram12UAVParameterENS_9allocatorIS3_EEE7reserveEj
Fai:_AnimationCurve_Init_m1486386337
sgi:_Component_GetComponents_m3712441745
wig:__ZL79GraphicRaycaster_t410733016_CustomAttributesCacheGenerator_U3CU3Ef__amU24cache0P21CustomAttributesCache
b$d:_InputField_get_selectionAnchorPosition_m466595604
DUf:__ZL99Thread_t241561612_CustomAttributesCacheGenerator_Thread_t241561612____ExecutionContext_PropertyInfoP21CustomAttributesCache
Wgd:_DecoderReplacementFallback_get_DefaultString_m3399348550
GOi:_UnityAction_4_Invoke_m3312096275_gshared
wmg:__ZL111LayoutUtility_t4076838048_CustomAttributesCacheGenerator_LayoutUtility_U3CGetPreferredHeightU3Em__5_m1524880643P21CustomAttributesCache
V7h:__Z57RuntimeInvoker_ResourceInfo_t3933049236_Int32_t2071877448PK10MethodInfoPvPS2_
pdj:__ZN24dense_hashtable_iteratorINSt3__24pairIK10KeyWrapperINS1_IPK10MethodInfoP11Il2CppClassEEEjEES9_17ReflectionMapHashIS8_EN14dense_hash_mapIS9_jSD_NS9_14EqualsComparerINS0_8equal_toIS8_EEEENS0_9allocatorISB_EEE9SelectKeyESI_SK_E30advance_past_empty_and_deletedEv
gZi:__ZL25UnresolvedVirtualCall_195P12Il2CppObjectfPK10MethodInfo
_7g:_RectTransformUtility_ScreenPointToRay_m1842507230
e1a:__ZN16ReflectionProbes16UpdateSampleDataEv
vNh:__Z71RuntimeInvoker_Int32_t2071877448_Il2CppObject_Il2CppObject_Il2CppObjectPK10MethodInfoPvPS2_
_Cb:__ZN14SafeBinaryRead21TransferSTLStyleArrayI10vector_setI4PPtrI10MonoScriptENSt3__24lessIS4_EE13stl_allocatorIS4_L18MemLabelIdentifier76ELi16EEEEEvRT_17TransferMetaFlags
uRh:__Z103RuntimeInvoker_Il2CppObject_Il2CppObject_StreamingContext_t1417235061_ISurrogateSelectorU26_t2635255864PK10MethodInfoPvPS2_
Hpi:_SafeHandle_Finalize_m1839546519
Pqb:__ZN14Texture2DArray5ResetEv
ksc:__ZN8JSONRead21TransferSTLStyleArrayINSt3__26vectorI10RectOffset13stl_allocatorIS3_L18MemLabelIdentifier1ELi16EEEEEEvRT_S5_17TransferMetaFlags
vFh:_InternalEnumerator_1_MoveNext_m252820768_AdjustorThunk
tsi:_Context_AllocateNamedDataSlot_m3200404053
mzf:_X509EnhancedKeyUsageExtension_Decode_m3866320499
WQe:_NumberFormatter_AppendIntegerStringWithGroupSeparator_m1401773574
qve:_List_1_Remove_m1237648310_gshared
Slf:_CipherSuite_get_ServerHMAC_m3566778727
fLf:__ZL64DebuggerBrowsableState_t944457511_CustomAttributesCacheGeneratorP21CustomAttributesCache
Ve:_JS_Sound_Play
BZd:_Image_IsRaycastLocationValid_m864962354
TPb:__ZN9ShaderLab16SerializedShader8TransferI14SafeBinaryReadEEvRT_
ipa:__ZN5Mutex7TryLockEv
CMh:__Z51RuntimeInvoker_Int16_t4041245914_Decimal_t724701077PK10MethodInfoPvPS2_
At:__ZN7mecanim8skeleton13SkeletonAlignEPKNS0_8SkeletonERKN4math7_float4ES7_i
H0b:__ZN19ShaderPropertySheet16SetVectorIndexedEN9ShaderLab16FastPropertyNameEifRK8Vector4fNS_8SetFlagsE
Aq:__ZN14SafeBinaryRead21TransferSTLStyleArrayIN4core12basic_stringIcNS1_20StringStorageDefaultIcEEEEEEvRT_17TransferMetaFlags
Ypg:_RemotingConfiguration_RegisterWellKnownServiceType_m2491506630
w1f:__ZL89Screen_t786852042_CustomAttributesCacheGenerator_Screen_t786852042____height_PropertyInfoP21CustomAttributesCache
qPf:__ZL55_TypeBuilder_t2783404358_CustomAttributesCacheGeneratorP21CustomAttributesCache
pZi:__ZL25UnresolvedVirtualCall_204P12Il2CppObjectPK10MethodInfo
k7a:__Z29StdTemplateConversionFunctionIayEbPvR14SafeBinaryRead
bpe:_List_1_System_Collections_IEnumerable_GetEnumerator_m2923618987_gshared
_qe:_List_1_System_Collections_IList_IndexOf_m4061554721_gshared
RR:__ZN11UnityEngine15CloudWebService14DataDispatcher4StopEv
TQb:__ZNSt3__26vectorIN9ShaderLab20SerializedSubProgram12UAVParameterENS_9allocatorIS3_EEE8__appendEj
tAe:_Collection_1_GetEnumerator_m434271983_gshared
ifj:__ZNK15dense_hashtableINSt3__24pairIK10KeyWrapperINS1_IPK9EventInfoP11Il2CppClassEEEjEES9_17ReflectionMapHashIS8_EN14dense_hash_mapIS9_jSD_NS9_14EqualsComparerINS0_8equal_toIS8_EEEENS0_9allocatorISB_EEE9SelectKeyESI_SK_E12test_deletedERK24dense_hashtable_iteratorISB_S9_SD_SM_SI_SK_E
O9c:_X509Certificate_ToString_m1582581274
Nbh:_Enumerator_get_Current_m2986380627_gshared
yda:__ZN17ScriptingGCHandle7AcquireE18ScriptingObjectPtr25ScriptingGCHandleWeakness
uri:_LifetimeServices_set_LeaseTime_m1487876644
eAg:_ConstructorBuilder_not_supported_m3687319507
eJf:__ZL48IList_t3321498491_CustomAttributesCacheGeneratorP21CustomAttributesCache
Pcd:_Single_System_IConvertible_ToInt64_m3555853323_AdjustorThunk
uGh:_InternalEnumerator_1__ctor_m3901400705_AdjustorThunk
AMj:dynCall_iifiii
G0h:__Z48RuntimeInvoker_PersistentListenerMode_t857969000PK10MethodInfoPvPS2_
nRh:__Z87RuntimeInvoker_Il2CppObject_Il2CppObject_Il2CppObject_Il2CppObject_StringU26_t638738783PK10MethodInfoPvPS2_
yna:__Z21HasAlphaTextureFormat13TextureFormat
pN:__ZN12AudioManager6UpdateEv
wna:__ZN14ImageReference9BlitImageERKS_NS_8BlitModeE
SHg:_MonoMethod_get_MethodHandle_m1882915015
Yr:__ZN8Animator12AddToManagerEv
tNf:__ZL93ConstructorInfo_t2851816542_CustomAttributesCacheGenerator_ConstructorInfo_Invoke_m2144827141P21CustomAttributesCache
rCb:__ZN23CachedSerializationDataD2Ev
G0a:__ZNK25CameraStackRenderingState31CalculateStereoCameraTargetTypeEv
Ojb:__ZN14RenderSettings23VirtualRedirectTransferER14SafeBinaryRead
kuc:__ZNK13b2CircleShape5CloneEP16b2BlockAllocator
luj:__ZN6il2cpp2os10ThreadImpl15CurrentThreadIdEv
lFe:_Collection_1_System_Collections_IList_get_IsReadOnly_m4005091053_gshared
Jw:__ZN30dense_hashtable_const_iteratorINSt3__24pairIKN11UnityEngine9Animation14GenericBindingENS3_10BoundIndexEEES4_NS3_25GenericBindingHashFunctorEN14dense_hash_mapIS4_S6_S8_NS3_30GenericBindingValueArrayUniqueE13stl_allocatorIS7_L18MemLabelIdentifier1ELi16EEE9SelectKeyESA_SD_E30advance_past_empty_and_deletedEv
c3d:_Array_InternalArray__ICollection_Contains_TisColor32_t874517518_m2818328910_gshared
Jib:__ZN17GlobalGameManager8TransferI17RemapPPtrTransferEEvRT_
Lgf:_AppDomainInitializer_EndInvoke_m4003801172
k6g:_RaycastHit2D_get_point_m442317739
qVh:__Z72RuntimeInvoker_Il2CppObject_Il2CppObject_Decimal_t724701077_Il2CppObjectPK10MethodInfoPvPS2_
Ajb:__ZN16LevelGameManager8TransferI18StreamedBinaryReadILb0EEEEvRT_
aVc:_UNITY_tt_face_load_fpgm
nvb:__ZN12InputManagerD0Ev
eEj:__ZN6il2cpp6icalls8mscorlib6System11Diagnostics10StackTrace9get_traceEP15Il2CppExceptionib
jSe:_NumberFormatInfo_set_NumberNegativePattern_m1050626150
J1i:__ZN15dense_hashtableINSt3__24pairIK10KeyWrapperI13dynamic_arrayIPK10Il2CppTypeLj4EEEPFvvEEES8_N6il2cpp8metadata19Il2CppSignatureHashEN14dense_hash_mapIS8_SB_SF_NS8_14EqualsComparerINSE_22Il2CppSignatureCompareEEENS0_9allocatorISC_EEE9SelectKeyESJ_SL_E8min_sizeEjj
B1h:__Z37RuntimeInvoker_FillMethod_t1640962579PK10MethodInfoPvPS2_
I_g:_GUIStyle_get_overflow_m1125058093
_mi:_AnimatorControllerPlayable_Play_m4092315465
Vma:__ZNK16LightmapSettings14GetLightProbesEv
Uph:_ScrollRect_get_scrollSensitivity_m1160815603
SKg:_UnicodeEncoding_GetBytes_m1337660232
QNb:__Z18Transfer_BlittableI18StreamedBinaryReadILb0EELb1EtEvRK29SerializationCommandArgumentsR31RuntimeSerializationCommandInfo
yJj:_posix_memalign
X0b:__ZN13ProduceHelperI12MeshRendererLb0EE7ProduceE18MemLabelIdentifier18ObjectCreationMode
uxe:_List_1_get_Count_m1249351212_gshared
sGh:_InternalEnumerator_1_get_Current_m747506907_AdjustorThunk
Kdi:_Camera_get_eventMask_m4241372419
xYg:_GUILayoutUtility_LayoutFromEditorWindow_m1847418289
Dsf:_SslClientStream_get_ClientCertSelectionDelegate_m2316959461
ard:_SynchronizedArrayListWrapper_get_SyncRoot_m1466044127
j1:__ZNK15MonoScriptCache7ReleaseEv
uUi:__ZN6il2cpp2vm5Class13HasReferencesEP11Il2CppClass
ig:_glBindTexture
qAe:_Collection_1_ClearItems_m3585785594_gshared
NHj:_snprintf
Clg:__ZL84HorizontalOrVerticalLayoutGroup_t1968298610_CustomAttributesCacheGenerator_m_SpacingP21CustomAttributesCache
Ayg:_Binder__ctor_m1361613966
__d:_InputField_set_caretPosition_m888572237
vDg:_ILGenerator__cctor_m3943061018
rqd:_ArrayListWrapper_Clone_m1506311066
uii:_Event_get_character_m3740896233
Nka:__Z36scripting_liveness_calculation_begin17ScriptingClassPtriPFvPP12Il2CppObjectiPvES3_PFvvES7_
fmf:_CipherSuite_set_Context_m4127897124
$Ea:__ZN16UniformCacheGLES6CreateERK20GpuProgramParameters
kMg:_UTF8Encoding_Fallback_m811555654
UTg:_UInt64_CompareTo_m3513742483
U8g:_ScriptableObject_t1975622470_marshal_pinvoke_cleanup
Whd:_Encoding_GetString_m1894033578
LKe:_ReadOnlyCollection_1_System_Collections_IList_Clear_m1918003010_gshared
BLi:_Nullable_1_Equals_m3860982732_gshared
xQj:_emscripten_glGetProgramInfoLog__wrapper
Q8f:__ZL94Font_t4239498691_CustomAttributesCacheGenerator_Font_InvokeTextureRebuilt_Internal_m2007522718P21CustomAttributesCache
oMg:_UTF8Encoding_InternalGetChars_m373801468
V3:__ZN17PersistentManager23DestroyFromFileInternalEi
A4f:__ZL98Object_t1021602117_CustomAttributesCacheGenerator_Object_DoesObjectWithInstanceIDExist_m2570795274P21CustomAttributesCache
yEi:_ScrollViewState__ctor_m535685782
WHd:_Enum_ToString_m2112979707
iGi:_TextGenerator_ValidatedSettings_m1640214759
QQf:__ZL55SoapServices_t3397513225_CustomAttributesCacheGeneratorP21CustomAttributesCache
sng:_MonoMethodMessage_get_MethodName_m3580519713
uv:__ZN26AnimatorControllerPlayable18PrepareForPlaybackERN7mecanim6memory9AllocatorE
dHd:_Enum_t2459695545_marshal_pinvoke_cleanup
fMg:_UTF8Encoding_GetBytes_m4170182058
Che:_Mesh_GetAllocArrayFromChannel_TisColor32_t874517518_m2030100417_gshared
qea:__ZN22CreateGpuProgramOutputC2Ev
NVg:_Object__ctor_m197157284
z3f:__ZL99SortingLayer_t221838959_CustomAttributesCacheGenerator_SortingLayer_GetLayerValueFromID_m4029056996P21CustomAttributesCache
Y_e:_MemoryStream_InternalConstructor_m2423667240
Jyi:_CapturingGroup_set_Index_m2175936006
NJh:__Z70RuntimeInvoker_Il2CppObject_Il2CppObject_Il2CppObject_SByte_t454417549PK10MethodInfoPvPS2_
qog:_SoapMethodAttribute_SetReflectionObject_m3431595769
xsh:_Slider_set_maxValue_m2951480075
A1b:__ZN8GUILayer12CleanupClassEv
m0d:_InputField_OnSubmit_m2856515494
tUi:__ZN6il2cpp2vm5Class4InitEP11Il2CppClass
ha:invoke_vidi
LIi:_Vector2_op_Subtraction_m1984215297
Aef:_DeriveBytes_Adjust_m105515328
pYc:__ZN2UI14CanvasRenderer17SyncDirtyElementsER8JobFence
NNb:__Z18Transfer_BlittableI18StreamedBinaryReadILb0EELb0ExEvRK29SerializationCommandArgumentsR31RuntimeSerializationCommandInfo
ESd:_ColorBlock_op_Inequality_m1517672458
otj:__ZN6il2cpp5utils11StringUtils15StringDuplicateEPKc
Y2a:__Z15CanAddComponentR10GameObjectPKN5Unity4TypeE
Lda:__ZNK9ShaderLab21ShaderRasterStateDesc16ToGfxRasterStateEPK19ShaderPropertySheetS3_R14GfxRasterState
XT:_tlsf_memalign
Gvg:_CspParameters__ctor_m2480441577
VFj:__ZN6il2cpp2os9EventImplC2Ebb
Wri:_DynamicPropertyCollection_NotifyMessage_m840388347
Tzi:_Uri_ParseUri_m5711497
tB:__ZN4PPtrI13MonoBehaviourE8TransferI19StreamedBinaryWriteILb0EEEEvRT_
Nab:__ZNK5Unity9Component26GetTypeInfoVirtualInternalEv
e_:__Z20IsMatrixBuiltinParamPKcPi
sBe:_Collection_1_CheckWritable_m2467777750_gshared
Ajg:__ZL108MaskableGraphic_t540192618_CustomAttributesCacheGenerator_MaskableGraphic_ParentMaskStateChanged_m3643747340P21CustomAttributesCache
edj:__ZN15dense_hashtableINSt3__24pairIK10KeyWrapperINS1_IPK10MethodInfoP11Il2CppClassEEEjEES9_17ReflectionMapHashIS8_EN14dense_hash_mapIS9_jSD_NS9_14EqualsComparerINS0_8equal_toIS8_EEEENS0_9allocatorISB_EEE9SelectKeyESI_SK_E16reset_thresholdsEv
p0b:__ZN8Renderer19PostInitializeClassEv
uKc:__ZN20TextRenderingPrivate15DynamicFontDataD2Ev
Wwh:_InternalEnumerator_1_get_Current_m1943362081_AdjustorThunk
pJi:_Vector3_get_sqrMagnitude_m1814096310_AdjustorThunk
vCj:__ZN6il2cpp6icalls8mscorlib6System8Delegate23CreateDelegate_internalEP20Il2CppReflectionTypeP12Il2CppObjectP22Il2CppReflectionMethodb
Oyg:_Default_check_type_m2363631305
EBb:__ZN18DelayedCallManager18CancelCallDelayed2E4PPtrI6ObjectEPF15CallObjectStatePS1_PvES7_
Uqe:_List_1__cctor_m911493842_gshared
zli:_AnimatorControllerPlayable_INTERNAL_CALL_GetLayerIndexInternal_m1847150746
L9a:__ZN25ThreadsafeLinearAllocator10ReallocateEPvji
CDb:__Z18Transfer_BlittableI14SafeBinaryReadLb1E11QuaternionfEvRK29SerializationCommandArgumentsR31RuntimeSerializationCommandInfo
zYi:__ZL25UnresolvedVirtualCall_160P12Il2CppObject22UICharInfo_t3056636800S1_PK10MethodInfo
Y7d:_Array_InternalArray__IndexOf_TisRaycastHit2D_t4063908774_m3739817942_gshared
BIg:_MonoProperty_GetAccessors_m3704698731
GQh:__Z146RuntimeInvoker_Il2CppObject_Int32_t2071877448_Il2CppObject_ObjectU5BU5DU26_t3223402458_Il2CppObject_Il2CppObject_Il2CppObject_ObjectU26_t597476745PK10MethodInfoPvPS2_
KBj:_GC_disable
dsb:__ZN10Matrix4x4f8TransferI14SafeBinaryReadEEvRT_
t2e:_UnmanagedMemoryStream_ReadByte_m2501145010
Rrg:_ObjectRecord_UnchainFixup_m3025030310
rv:__ZN14AvatarPlayback8StopTimeEv
o4:__Z6AppendRKN4core12basic_stringIcNS_20StringStorageDefaultIcEEEEPKc
uHf:__ZL60MulticastDelegate_t3201952435_CustomAttributesCacheGeneratorP21CustomAttributesCache
Mka:__ZL14OnWorldStoppedv
mLb:__Z18Transfer_BlittableI18StreamedBinaryReadILb1EELb0E8Vector3fEvRK29SerializationCommandArgumentsR31RuntimeSerializationCommandInfo
Nqd:_ReadOnlyArrayListWrapper_Sort_m2056228524
Dig:__ZL61Image_t2042527209_CustomAttributesCacheGenerator_m_FillCenterP21CustomAttributesCache
aya:__ZN7ApiGLES18ClearBufferSubDataEjN2gl12BufferTargetEll
dHi:_Touch_get_type_m3264731406_AdjustorThunk
wac:__Z37Camera_Get_Custom_PropAllCamerasCountv
irb:__ZN14Texture2DArray8TransferI18StreamedBinaryReadILb0EEEEvRT_
ikj:__ZN6il2cpp6icalls8mscorlib6System5Array9GetLengthEP11Il2CppArrayi
b_a:__Z18ApplyOcclusionMaskR19ProbeOcclusionCacheRK17LightProbeContextRK10RenderNodeb
Pua:__ZN13GfxDeviceGLES13AfterDrawCallEv
q_e:_FileStreamAsyncResult__ctor_m1096228032
DPc:_Split_Cubic
eb:invoke_fiiii
Y3f:__ZL78Time_t31991979_CustomAttributesCacheGenerator_Time_get_unscaledTime_m862335845P21CustomAttributesCache
tDd:_DBNull_System_IConvertible_ToSByte_m1228193074
Zze:_Collection_1__ctor_m2818834331_gshared
Udc:__Z29Mesh_CUSTOM_RecalculateBoundsP12Il2CppObject
Kte:_List_1__ctor_m2168280176_gshared
nuj:__ZN6il2cpp2os10ThreadImpl22CreateForCurrentThreadEv
oDe:_Collection_1_Insert_m3041550124_gshared
SZe:_FileStream_FlushBuffer_m2594140542
Amc:__Z64Register_UnityEngine_GUIStyle_GetFontInternalDuringLoadingThreadv
KGe:_Collection_1_System_Collections_IList_get_Item_m1995028750_gshared
Wxj:__ZN6il2cpp2vm8Profiler12GCHeapResizeEx
RNj:dynCall_viiifi
SBa:__ZN18GfxFramebufferGLES20ActiveContextChangedEPP17RenderSurfaceBaseS2_
wXa:__ZN19ShaderPropertySheet17UpdateTextureInfoEiN9ShaderLab16FastPropertyNameEPK10TextureRef
OBa:__Z19PluginsRenderMarkeri
E4f:__ZL80Object_t1021602117_CustomAttributesCacheGenerator_Object_Instantiate_m2439155489P21CustomAttributesCache
kC:__ZN10HumanTrait18InitializeBoneNameEv
Dzi:__ZN23InterfaceActionInvoker1ItE6InvokeEjP11Il2CppClassP12Il2CppObjectt
Jzd:_Convert_ToSByte_m1570938941
GOb:__Z29Transfer_Blittable_ArrayFieldI18StreamedBinaryReadILb0EEyEvRT_R9ArrayInfoRK23StaticTransferFieldInfo
Sih:_EqualityComparer_1_get_Default_m875724809_gshared
$rj:__ZNSt3__214__split_bufferIN6il2cpp2vm5Image20EmbeddedResourceDataERNS_9allocatorIS4_EEEC2EjjS7_
ePa:__ZN5Image13ReformatImageERK14ImageReferenceii13TextureFormatNS0_8BlitModeE
COf:__ZL57DispIdAttribute_t607560947_CustomAttributesCacheGeneratorP21CustomAttributesCache
zH:__ZN12AudioManager17RemoveAudioSourceEP11AudioSource
ahi:_CullingGroup_Finalize_m3172731580
eLi:_AesManaged_get_KeySize_m2773901127
Gge:_Array_InternalArray__get_Item_TisUInt64_t2909196914_m2580870875_gshared
Zhj:__ZN15dense_hashtableINSt3__24pairIK10KeyWrapperINS1_IP11Il2CppClassjEEES4_EES6_N6il2cpp8metadata14ArrayClassHashEN14dense_hash_mapIS6_S4_SB_NS6_14EqualsComparerINSA_17ArrayClassCompareEEENS0_9allocatorIS8_EEE9SelectKeyESF_SH_E4swapERSK_
F_b:__ZN13ProduceHelperI14SpriteRendererLb0EE7ProduceE18MemLabelIdentifier18ObjectCreationMode
hO:__ZN5physx14PxLightCpuTask12addReferenceEv
qCc:__Z10b2DistanceP16b2DistanceOutputP14b2SimplexCachePK15b2DistanceInput
Snb:__ZN21EnlightenSceneMapping8TransferI19StreamedBinaryWriteILb0EEEEvRT_
Ypj:__ZN6il2cpp2gc16GarbageCollector19InitializeFinalizerEv
Sic:__ZN10GUIManager10DoGUIEventER10InputEventb
xmf:_Context_get_ClientWriteKey_m2235605337
$8g:_Enumerator__ctor_m3597047336_AdjustorThunk
Myj:_GC_bl_init_no_interiors
T_:__Z20CalculateSqrDistanceRK8Vector3fRK4AABB
jTh:__Z48RuntimeInvoker_Byte_t3683104436_Int64_t909078037PK10MethodInfoPvPS2_
ysj:__ZN6il2cpp2vm12GenericClass8GetClassEP18Il2CppGenericClass
vL:__Z32AudioMixerDuckingProcessCallbackP21UnityAudioEffectStatePfS1_jii
Bzg:_CustomAttributeTypedArgument_GetHashCode_m999147081_AdjustorThunk
v$b:__ZN26CustomRenderTextureManagerD2Ev
$Ze:_FileStream_Read_m3880951166
fI:__ZN12AudioManager8TransferI24GenerateTypeTreeTransferEEvRT_
sha:__Z25GetBytesFromTextureFormat13TextureFormat
r_h:__Z105RuntimeInvoker_Void_t1841601450_Int32_t2071877448_Single_t2076509932_Int32_t2071877448_Single_t2076509932PK10MethodInfoPvPS2_
tna:__ZN9Texture3D19UnloadFromGfxDeviceEb
OLj:dynCall_iiffi
lge:_Array_InternalArray__get_Item_TisInt16_t4041245914_m2533263979_gshared
Si:_emscripten_webgl_init_context_attributes
zXf:__ZL67Math_t2022911894_CustomAttributesCacheGenerator_Math_Min_m105057611P21CustomAttributesCache
JB:__ZN16MecanimAnimation25RegisterIAnimationBindingEPKN5Unity4TypeEiP17IAnimationBinding
f2:__Z32scripting_class_get_assemblyname17ScriptingClassPtr
vCc:__ZN9b2Simplex9ReadCacheEPK14b2SimplexCachePK15b2DistanceProxyRK11b2TransformS5_S8_
Odh:_Dictionary_2_Resize_m2532139610_gshared
yFi:_StackTraceUtility__cctor_m1132099289
lve:_List_1_IndexOf_m2019441835_gshared
pPg:_TimeSpan_Equals_m2029123271_AdjustorThunk
D3i:__ZN6il2cpp2vm13MetadataCache23GetInvokerMethodPointerEPK10MethodInfoPK20Il2CppGenericContext
gGa:__ZN9GfxDevice21RegisterNativeTextureE9TextureIDi16TextureDimension
PJd:_CultureInfo__ctor_m456863818
wDj:__ZN6il2cpp6icalls8mscorlib6System10Reflection4Emit11TypeBuilder20create_generic_classEP27Il2CppReflectionTypeBuilder
S6i:__ZNSt3__26vectorIPK10MethodInfoNS_9allocatorIS3_EEE26__swap_out_circular_bufferERNS_14__split_bufferIS3_RS5_EE
rke:_Enumerator_MoveNext_m2504790928_gshared
Ikg:__ZL61Slider_t297367283_CustomAttributesCacheGenerator_m_HandleRectP21CustomAttributesCache
sU:__ZN3WWW20GetCachedErrorStringEv
YEi:_SliderState__ctor_m1096533539
IUb:__ZN12ScriptMapperD2Ev
ufg:__ZL85AxisEventData_t1524870173_CustomAttributesCacheGenerator_U3CmoveDirU3Ek__BackingFieldP21CustomAttributesCache
y4c:_KeyedHashAlgorithm_Dispose_m1864300576
_Bi:_X509Certificate_PEM_m49854707
$ef:_PKCS12_get_RNG_m3620550062
pzf:_X509BasicConstraintsExtension__ctor_m3320418592
iBi:_ExtendedKeyUsageExtension_Decode_m901297139
PRb:__Z32TransferEnumWithNameForceIntSizeI14SafeBinaryRead7FogModeEvRT_RT0_PKc17TransferMetaFlags
wgc:__Z52Register_UnityEngine_RenderTexture_Internal_GetWidthv
$Jf:__ZL89SafeWaitHandle_t481461830_CustomAttributesCacheGenerator_SafeWaitHandle__ctor_m1710231470P21CustomAttributesCache
uAj:_GC_check_leaked
qTb:__ZN9ShaderLab20SerializedSubProgram16TextureParameter8TransferI19StreamedBinaryWriteILb0EEEEvRT_
tbe:_Array_InternalArray__Insert_TisVector4_t2243707581_m1643342708_gshared
fmh:_Mask_OnSiblingGraphicEnabledDisabled_m865494155
Uvf:_KeysCollection_System_Collections_ICollection_get_SyncRoot_m2289369147
ZR:__ZN11UnityEngine15CloudWebService16SessionContainer8AddEventEPNS0_14CloudEventInfoE
bFa:__Z4TrimRKN4core12basic_stringIcNS_20StringStorageDefaultIcEEEES5_
Fth:_Text_set_resizeTextMaxSize_m4034967714
HJf:__ZL55GuidAttribute_t222072359_CustomAttributesCacheGeneratorP21CustomAttributesCache
uWg:_GUIStyle_SetDefaultFont_m2095841351
mzg:_CustomAttributeNamedArgument_Equals_m2691468532
EGf:__ZL74String_t_CustomAttributesCacheGenerator_String_Concat_m3881798623____args0P21CustomAttributesCache
IRf:__ZL103CryptoConfig_t896479599_CustomAttributesCacheGenerator_CryptoConfig_CreateFromName_m2169102076____args1P21CustomAttributesCache
gqb:__ZN10VertexData8TransferI14SafeBinaryReadEEvRT_
yJ:__ZN4FMOD8ChannelI8setDelayE14FMOD_DELAYTYPEjj
vvd:_Stack__ctor_m2410583781
oBj:_GC_malloc_atomic
Myg:_Default_GetBetterMethod_m4255740863
OD:__Z93Register_UnityEngine_Experimental_Director_AnimationClipPlayable_INTERNAL_CALL_SetApplyFootIKv
JFi:_StateMachineBehaviour_OnStateExit_m4064436078
P9h:__Z48RuntimeInvoker_UIVertex_t1204258818_Il2CppObjectPK10MethodInfoPvPS2_
bsj:__ZNSt3__214__split_bufferIN6il2cpp2vm5Image20EmbeddedResourceDataERNS_9allocatorIS4_EEED2Ev
ocb:__ZN15dense_hashtableINSt3__24pairIKN4core12basic_stringIcNS2_20StringStorageDefaultIcEEEEP11AssetBundleEES6_20StringHash32FunctionIS6_EN14dense_hash_mapIS6_S9_SC_NS0_8equal_toIS6_EENS0_9allocatorISA_EEE9SelectKeyESF_SH_E4findERS7_
m0:__ZL20SortItemByInstanceIDRKN18AwakeFromLoadQueue4ItemES2_
VEg:_TypeBuilder_create_runtime_class_m2719530260
C6c:_RNGCryptoServiceProvider_RngClose_m2921734810
Mbg:__ZL85GUIStyle_t1799908754_CustomAttributesCacheGenerator_GUIStyle_set_richText_m1853532836P21CustomAttributesCache
dv:__ZNK34AnimationStateMachineMixerPlayable26GetInterruptedPosePlayableEv
s2c:__ZN20UnityConnectSettings8TransferI24GenerateTypeTreeTransferEEvRT_
at:__ZN34BlobWriteTransferSTLStyleArrayImplI22OffsetPtrArrayTransferIbEEclERS1_17TransferMetaFlagsR9BlobWrite
t8h:__Z37RuntimeInvoker_LabelFixup_t4090909514PK10MethodInfoPvPS2_
jpi:_GCHandle_GetHashCode_m1664905595_AdjustorThunk
j7e:_SimpleCollator_IsHalfKana_m4255579023
Jtf:_InternalAsyncResult_get_Count_m1291942796
Xxe:_Collection_1_System_Collections_IList_Contains_m3365884450_gshared
Jwj:__ZNK15dense_hashtableINSt3__24pairIK10KeyWrapperIPK19Il2CppGenericMethodEP10MethodInfoEES6_N6il2cpp8metadata23Il2CppGenericMethodHashEN14dense_hash_mapIS6_S9_SD_NS6_14EqualsComparerINSC_26Il2CppGenericMethodCompareEEENS0_9allocatorISA_EEE9SelectKeyESH_SJ_E10test_emptyERK30dense_hashtable_const_iteratorISA_S6_SD_SL_SH_SJ_E
XKa:__Z16FlaggedAsSkippedIN4core12basic_stringIcNS0_20StringStorageDefaultIcEEEEEbRK13FileEntryInfoRKT_19FileEnumerationFlag
EFe:_Collection_1_set_Item_m3440986310_gshared
Q5:__ZL31InitializeRendererUpdateManagerPv
MQd:_BaseMeshEffect__ctor_m2843647600
Kif:_ASN1__ctor_m3688855288
cN:__ZN13AudioListener12CleanupClassEv
oof:_ClientSessionInfo_Dispose_m2571428025
v1d:_LayoutGroup_DelayedSetDirty_m4276695617
Arf:_RecordProtocol_decryptRecordFragment_m2510859489
ubg:__ZL105GUIStyle_t1799908754_CustomAttributesCacheGenerator_GUIStyle_INTERNAL_set_Internal_clipOffset_m2024478897P21CustomAttributesCache
tcb:__Z28GetAbsoluteAssetBundlePrefixRKN4core12basic_stringIcNS_20StringStorageDefaultIcEEEE
zLd:_BaseRaycaster_get_sortOrderPriority_m3340181311
cwb:__ZN11TimeManager8TransferI19StreamedBinaryWriteILb0EEEEvRT_
H_e:_DelegatePInvokeWrapper_ReadDelegate_t3184826381
A_f:__ZL91HashSet_1_t2624254809_CustomAttributesCacheGenerator_HashSet_1_OnDeserialization_m627602129P21CustomAttributesCache
CQc:_compare_uni_maps
REe:_Collection_1_get_Count_m804306016_gshared
J0c:__ZN11UnityEngine15PlatformWrapper27GetGraphicsCapsSupportFlagsEv
KWc:__ZNSt3__218__insertion_sort_3IRPFbPN2UI6CanvasES3_EPS3_EEvT0_S8_T_
WGf:__ZL80Decimal_t724701077_CustomAttributesCacheGenerator_Decimal_op_Explicit_m714968249P21CustomAttributesCache
KEd:_Decimal_Equals_m1115043331
_Kb:__ZN12NativeBufferI16Converter_StringE15SetupForWritingER9ArrayInfo
uPd:_StandaloneInputModule_DeactivateModule_m2952848884
zPj:___cxa_end_catch__wrapper
Geg:__ZL119RenderPipelineManager_t984453155_CustomAttributesCacheGenerator_RenderPipelineManager_CleanupRenderPipeline_m2242901458P21CustomAttributesCache
Nch:_ValueCollection_System_Collections_Generic_ICollectionU3CTValueU3E_Clear_m231380274_gshared
zMd:_Entry__ctor_m1176697586
lYe:_BinaryReader_ReadUInt32_m1363572147
IWf:__ZL79Convert_t2607082565_CustomAttributesCacheGenerator_Convert_ToUInt32_m3391339025P21CustomAttributesCache
U9h:__Z37RuntimeInvoker_Enumerator_t1147558387PK10MethodInfoPvPS2_
pjb:__ZThn268_N31CanvasBatchIntermediateRenderer20OnAssetBoundsChangedEv
S2a:__ZN13MonoBehaviour22DoScriptRebuildWarningEv
yac:__Z38Camera_CUSTOM_INTERNAL_CALL_RaycastTryP12Il2CppObjectRK3Rayfi
Oth:_Text_get_verticalOverflow_m3134063496
dkj:__ZN6il2cpp6icalls8mscorlib6System5Array13ClearInternalEP11Il2CppArrayii
api:_GCHandle_get_Target_m2327042781
mDe:_Collection_1_GetEnumerator_m1417525918_gshared
nLj:_llvm_cttz_i32
Kzf:_PublicKey_DecodeDSA_m1169363495
akc:__ZN11IMGUIModule25GetGUIStyleScriptingClassEv
ATc:_tt_get_interface
ovg:_AsymmetricKeyExchangeFormatter__ctor_m3362140205
glj:__ZN6il2cpp5utils9PathUtils7CombineIcEENSt3__212basic_stringIT_NS3_11char_traitsIS5_EENS3_9allocatorIS5_EEEERKSA_SC_
Lvf:_NameObjectCollectionBase_BaseGet_m667273025
Eqc:__ZN9JSONWrite8TransferI13dynamic_arrayIiLj4EEEEvRT_PKc17TransferMetaFlags
RY:__Z18ConvertUTF16toUTF8PPKtS0_PPhS2_15ConversionFlags
Fvj:__ZN6il2cpp2os20PathErrnoToErrorCodeERKNSt3__212basic_stringIcNS1_11char_traitsIcEENS1_9allocatorIcEEEEi
GQg:_TypeLoadException__ctor_m1903359728
GPi:__ZL16my_g_bit_nth_msfj
hbh:_Transform_1_BeginInvoke_m3014766640_gshared
z4c:_KeySizes__ctor_m3526899007
Dij:__ZN15dense_hashtableINSt3__24pairIK10KeyWrapperIP11Il2CppClassES4_EES5_N6il2cpp8metadata16SZArrayClassHashEN14dense_hash_mapIS5_S4_SA_NS5_14EqualsComparerINS9_19SZArrayClassCompareEEENS0_9allocatorIS7_EEE9SelectKeyESE_SG_E12expand_arrayEjN21dense_hash_map_traits17integral_constantIbLb0EEE
vUb:__ZNK12ShaderErrors11ShaderErrorltERKS0_
Bdg:__ZL69ArgumentCache_t4810721_CustomAttributesCacheGenerator_m_FloatArgumentP21CustomAttributesCache
Wye:_Collection_1_CopyTo_m1578267616_gshared
rhd:_EncoderReplacementFallback__ctor_m2208438262
JSa:__Z23SetupStereoFlareElementP11FlareVertexRK8Vector2fS3_S3_RK11ColorRGBA32RK10Matrix4x4fRK8Vector3fb
HUi:__ZN6il2cpp2vm5Class15GetInstanceSizeEPK11Il2CppClass
ua:invoke_iiiifiiii
hgh:_Dictionary_2_CopyTo_m1495142643_gshared
Etc:__ZN9rapidjson8internal6u64toaEyPc
log:_SoapFieldAttribute_IsInteropXmlElement_m4243409842
hQi:_EventFunction_1_BeginInvoke_m3064802067_gshared
qXf:__ZL67IndexOutOfRangeException_t3527622107_CustomAttributesCacheGeneratorP21CustomAttributesCache
kij:__ZNK15dense_hashtableINSt3__24pairIK10KeyWrapperINS1_IP11Il2CppClassjEEES4_EES6_N6il2cpp8metadata14ArrayClassHashEN14dense_hash_mapIS6_S4_SB_NS6_14EqualsComparerINSA_17ArrayClassCompareEEENS0_9allocatorIS8_EEE9SelectKeyESF_SH_E12test_deletedERK30dense_hashtable_const_iteratorIS8_S6_SB_SJ_SF_SH_E
RYe:_Directory_GetFiles_m4036267478
sHd:_Enum_System_IConvertible_ToType_m2669300536
fSe:_NumberFormatInfo_get_CurrencyNegativePattern_m3972163809
tCa:__ZL19BlitFramebufferImplRN4gles23BlitFramebufferDrawQuadER9GfxDevice9TextureIDRK8Vector4f
tGb:__Z18Transfer_BlittableI17RemapPPtrTransferLb0EhEvRK29SerializationCommandArgumentsR31RuntimeSerializationCommandInfo
PJh:__Z44RuntimeInvoker_Byte_t3683104436_Il2CppObjectPK10MethodInfoPvPS2_
jcj:__ZN15dense_hashtableINSt3__24pairIK10KeyWrapperIPK10Il2CppTypeEjEES6_N6il2cpp8metadata14Il2CppTypeHashEN14dense_hash_mapIS6_jSB_NS6_14EqualsComparerINSA_26Il2CppTypeEqualityComparerEEENS0_9allocatorIS8_EEE9SelectKeyESF_SH_E4findERS7_
yIe:_ReadOnlyCollection_1_System_Collections_IList_Add_m2333231354_gshared
yJc:_UNITY_FT_List_Add
LEg:_OpCodes__cctor_m939885911
S$b:__ZN14Texture2DArray11InitTextureEiii13TextureFormatb
rkf:_PKCS1_RSASP1_m1748738009
dsf:_RSASslSignatureDeformatter_SetHashAlgorithm_m4048969080
bBi:_UriParser_InitializeAndValidate_m251943319
X8c:_SymmetricAlgorithm_set_Padding_m3081984460
ahj:__ZN15dense_hashtableINSt3__24pairIK10KeyWrapperINS1_IPK11Il2CppImageP11Il2CppClassEEEjEES9_17ReflectionMapHashIS8_EN14dense_hash_mapIS9_jSD_NS9_14EqualsComparerINS0_8equal_toIS8_EEEENS0_9allocatorISB_EEE9SelectKeyESI_SK_E14squash_deletedEv
Nvb:__ZN9InputAxis8TransferI18StreamedBinaryReadILb0EEEEvRT_
ARf:__ZL91X509Certificate_t283079845_CustomAttributesCacheGenerator_X509Certificate_Reset_m1676863543P21CustomAttributesCache
Epd:_ArrayList_RemoveAt_m2578928333
dEb:__Z18Transfer_BlittableI14SafeBinaryReadLb0EaEvRK29SerializationCommandArgumentsR31RuntimeSerializationCommandInfo
Fki:_AnimatorControllerPlayable_INTERNAL_CALL_GetBoolString_m538178071
V1i:__ZN30dense_hashtable_const_iteratorINSt3__24pairIK10KeyWrapperI13dynamic_arrayIPK10Il2CppTypeLj4EEEPFvvEEES8_N6il2cpp8metadata19Il2CppSignatureHashEN14dense_hash_mapIS8_SB_SF_NS8_14EqualsComparerINSE_22Il2CppSignatureCompareEEENS0_9allocatorISC_EEE9SelectKeyESJ_SL_E30advance_past_empty_and_deletedEv
$mg:__ZL69U3CSpawnObsU3Ec__Iterator0_t1960410261_CustomAttributesCacheGeneratorP21CustomAttributesCache
EHe:_ReadOnlyCollection_1_System_Collections_IList_set_Item_m1233322304_gshared
pBi:_GeneralNames_get_DNSNames_m2721668874
iHd:_Enum_System_IConvertible_ToByte_m38374586
mHe:_ReadOnlyCollection_1_System_Collections_Generic_IListU3CTU3E_RemoveAt_m1592158292_gshared
qxg:_PlatformNotSupportedException__ctor_m3301654967
MOj:_emscripten_glFrustum__wrapper
Srf:_ReceiveRecordAsyncResult_get_CompletedWithError_m2670396551
vEd:_Decimal_Equals_m1798565377
Fib:__ZN17GlobalGameManager8TransferI24GenerateTypeTreeTransferEEvRT_
Yig:__ZL66InputField_t1631627530_CustomAttributesCacheGenerator_m_CaretColorP21CustomAttributesCache
BBg:_TypeBuilder_check_created_m2929267877
tPa:__Z20SyncFenceCullResultsR11CullResults
UDa:__ZN15TextureTFMethod20IsBoneCountSupportedEi
jD:__ZN26AnimatorControllerPlayable9GotoStateEiifff
BZg:_GUISkin_set_horizontalScrollbarThumb_m2119687595
Njb:__ZN14RenderSettings23VirtualRedirectTransferER24GenerateTypeTreeTransfer
wBd:_DateTime_System_IConvertible_ToSByte_m2575078084_AdjustorThunk
CHb:__Z22TransferField_NonArrayI17RemapPPtrTransfer27Converter_SimpleNativeClassI8GUIStyleEEvRK23StaticTransferFieldInfoR31RuntimeSerializationCommandInfoRT0_
Dbi:_AnimatorStateInfo_IsTag_m1529621725_AdjustorThunk
$Zb:__ZNK17AnimationCurveTplIfE20EvaluateWithoutCacheEfRf
cwj:__ZN6il2cpp2os6Thread12QueueUserAPCEPFvPvES2_
X4d:_Array_InternalArray__IEnumerable_GetEnumerator_TisDictionaryEntry_t3048875398_m3498834924_gshared
l0g:_GUIStyleState__ctor_m3611888666
FAe:_Collection_1_IsValidItem_m1304951912_gshared
d5b:__ZN4Mesh10SetNormalsEPK8Vector3fj
rIg:_PropertyInfo__ctor_m1808219471
bGc:__Z66Register_UnityEngine_Physics2D_INTERNAL_CALL_GetRayIntersectionAllv
Kxd:_Convert_ToDateTime_m4161927553
OWh:__Z76RuntimeInvoker_Void_t1841601450_RegexOptionsU26_t3063574985_SByte_t454417549PK10MethodInfoPvPS2_
umi:_AnimatorControllerPlayable_CrossFadeInFixedTime_m246216837
HBg:_TypeBuilder_GetConstructors_m774120094
k9f:__ZL87Canvas_t209405766_CustomAttributesCacheGenerator_Canvas_set_overrideSorting_m3982973573P21CustomAttributesCache
ftj:__ZNSt3__212basic_stringIDsNS_11char_traitsIDsEENS_9allocatorIDsEEE9__grow_byEjjjjjj
pr:__ZN17AnimationCurveTplIfE8TransferI14SafeBinaryReadEEvRT_
uzi:_RegularExpression_set_GroupCount_m2991393456
GXb:__ZN9Polygon2D5ResetEv
OId:_Calendar_get_EraNames_m452820602
Apb:__ZNSt3__26vectorIN15QualitySettings14QualitySettingENS_9allocatorIS2_EEE6assignIPS2_EENS_9enable_ifIXaasr21__is_forward_iteratorIT_EE5valuesr16is_constructibleIS2_NS_15iterator_traitsIS9_E9referenceEEE5valueEvE4typeES9_S9_
Vab:__ZNK5Unity9Component10GetEnabledEv
JQa:__ZNK19ShaderPropertySheet11HasPropertyERKN9ShaderLab16FastPropertyNameE
hBd:_DateTime_System_IConvertible_ToByte_m2670443498_AdjustorThunk
g8i:_il2cpp_class_get_image
r3:__Z16AsyncReadRequestP16AsyncReadCommand
LZf:__ZL81BigInteger_t925946153_CustomAttributesCacheGenerator_BigInteger__ctor_m4013661868P21CustomAttributesCache
iif:_BigInteger_op_Addition_m1734797151
g1h:__Z110RuntimeInvoker_Boolean_t3825574718_Vector2_t2243707579_Vector2_t2243707579_Single_t2076509932_SByte_t454417549PK10MethodInfoPvPS2_
Ape:_List_1_CheckMatch_m1814522134_gshared
Cze:_Collection_1_System_Collections_IList_set_Item_m3488446830_gshared
aCg:_EnumBuilder_CreateNotSupportedException_m62763134
UAf:_X509Chain_CheckRevocation_m2480313486
P5c:_RijndaelManagedTransform_TransformBlock_m2558865851
IWg:_GUILayoutUtility_Layout_m3812180708
Evb:__ZN9InputAxis8TransferI14SafeBinaryReadEEvRT_
B0:__ZNK21ExecutionOrderManager30GetCustomAwakeFromLoadQueueForEPKN5Unity4TypeE
x3c:__Z27RegisterModule_UnityConnectv
Lke:_Enumerator_Dispose_m3717265706_AdjustorThunk
mOg:_Scheduler_Remove_m1930366072
pdi:_Bounds_get_size_m1728027642_AdjustorThunk
xpg:_RealProxy__ctor_m3041043303
oQe:_NumberFormatter_Init_m2654758994
b4c:_HMACSHA1__ctor_m1168389339
k2f:__ZL100Input_t1785128008_CustomAttributesCacheGenerator_Input_INTERNAL_get_compositionCursorPos_m2426914348P21CustomAttributesCache
UK:__ZN10ObjectPoolIN4FMOD12ChannelGroupENS0_13ChannelGroupIEE7SetSizeEi
caf:_PrimalityTest_BeginInvoke_m966469054
dLe:_ReadOnlyCollection_1_System_Collections_Generic_ICollectionU3CTU3E_Clear_m1785953911_gshared
ETg:_UInt64_System_IConvertible_ToInt16_m2797150165_AdjustorThunk
jNa:__ZN5Image13ReformatImageEii13TextureFormatN14ImageReference8BlitModeE
sge:_Array_InternalArray__get_Item_TisLabelData_t3712112744_m863115768_gshared
NVe:_Int32_Parse_m753946802
eBc:__ZN19CollisionListener2D15ProcessContactsEP10Collider2Db
DXb:__ZN9Polygon2D7SetPathEiRK13dynamic_arrayI8Vector2fLj4EE
PT:__Z22ValidateTlsfAllocationPvjiS_
sve:_List_1_RemoveAt_m2331128844_gshared
ghj:__ZN14dense_hash_mapI10KeyWrapperINSt3__24pairIPK9EventInfoP11Il2CppClassEEEj17ReflectionMapHashIS8_ENS9_14EqualsComparerINS1_8equal_toIS8_EEEENS1_9allocatorINS2_IKS9_jEEEEE15set_deleted_keyERSH_
rFg:_UnmanagedMarshal_ToMarshalAsAttribute_m3695569337
xFb:__Z14resize_trimmedINSt3__26vectorI17AnimationCurveTplIfE13stl_allocatorIS3_L18MemLabelIdentifier1ELi16EEEEEvRT_j
F0a:__ZN25CameraStackRenderingState19SetupLastEyeCamerasERK11CameraStack
afb:__Z12GUIDToStringRK9UnityGUID
V0d:_LayoutElement_get_minHeight_m2070403283
_G:__ZN11SoundHandleC2ERKS_
gmh:_Mask_OnEnable_m501850981
kkf:_RSASslSignatureFormatter__ctor_m2530528184
tei:_Canvas_get_targetDisplay_m316548313
lDg:_GenericTypeParameterBuilder_GetGenericTypeDefinition_m2936287336
J9e:_BigInteger_op_Addition_m1196561843
M6a:__Z29StdTemplateConversionFunctionItxEbPvR14SafeBinaryRead
Ari:_FormatterData__ctor_m3974986124
ULf:__ZL64FileNotFoundException_t4200667904_CustomAttributesCacheGeneratorP21CustomAttributesCache
O5c:_RijndaelManagedTransform_get_CanReuseTransform_m3735256596
Gsd:_Comparer__cctor_m1327316974
MYe:_MonoIO_ExistsFile_m1421941572
GCd:_DateTime_op_GreaterThanOrEqual_m3818963848
Dra:__ZNSt3__26__treeINS_12__value_typeI18VertexChannelsInfoP17VertexDeclarationEENS_19__map_value_compareIS2_S5_NS_4lessIS2_EELb1EEE13stl_allocatorIS5_L18MemLabelIdentifier14ELi16EEE12__find_equalIS2_EERPNS_16__tree_node_baseIPvEENS_21__tree_const_iteratorIS5_PNS_11__tree_nodeIS5_SG_EEiEESJ_RKT_
ty:__ZN17AnimationPlayable18DeallocateBindingsEv
QTd:_DefaultControls_SetDefaultTextValues_m1707718380
PPd:_TouchInputModule_UseFakeInput_m2112019004
RLd:_EventSystem_get_baseEventDataCache_m4294741599
Tjb:__ZN14RenderSettings18TransferDeprecatedI14SafeBinaryReadEEvRT_
Nbg:__ZL85GUIStyle_t1799908754_CustomAttributesCacheGenerator_GUIStyle_Internal_Draw_m694122665P21CustomAttributesCache
vW:__ZN12TLSAllocatorI14StackAllocatorE8AllocateEji
z1:__ZN16ScriptingManager18GetMonoScriptCacheEi
MXg:_GUIStyle_get_stretchHeight_m3396762700
r1i:__ZN13dynamic_arrayIPK10Il2CppTypeLj4EEC2ERKS3_
V_i:__ZN15dense_hashtableINSt3__24pairIK10KeyWrapperIPK11Il2CppClassEPKcEES6_N6il2cpp5utils11PointerHashIS3_EEN14dense_hash_mapIS6_S9_SE_NS6_14EqualsComparerINS0_8equal_toIS5_EEEENS0_9allocatorISA_EEE9SelectKeyESJ_SL_E15set_deleted_keyERKSA_
WXd:_GridLayoutGroup_CalculateLayoutInputHorizontal_m2355123124
x_f:__ZL84Locale_t4255929017_CustomAttributesCacheGenerator_Locale_GetText_m512920887____args1P21CustomAttributesCache
iEb:__Z18Transfer_BlittableI14SafeBinaryReadLb1EyEvRK29SerializationCommandArgumentsR31RuntimeSerializationCommandInfo
Ceg:__ZL89U3CInvokeMessageIdSubscribersU3Ec__AnonStorey0_t1899782350_CustomAttributesCacheGeneratorP21CustomAttributesCache
snc:__ZN8JSONRead8TransferIfEEvRT_PKc17TransferMetaFlagsb
mvh:_U3CGetEnumeratorU3Ec__Iterator0_Reset_m2980566576_gshared
Wgi:_Coroutine__ctor_m1253937571
XLe:_ReadOnlyCollection_1_System_Collections_ICollection_get_IsSynchronized_m4063596282_gshared
sld:__ZN21InterfaceFuncInvoker2IP12Il2CppObjectP6Type_tS1_E6InvokeEjP11Il2CppClassS1_S3_S1_
YJj:__ZNSt3__212basic_stringIcNS_11char_traitsIcEENS_9allocatorIcEEE6appendEPKcj
MMf:__ZL54TypeBuilder_t3308873219_CustomAttributesCacheGeneratorP21CustomAttributesCache
cja:__ZN6prcoreL17RemapGenericFloatI18TexFormatARGBFloat17TexFormatRGBAHalfEEvPKNS_9InnerInfoE
dCe:_Collection_1_CheckWritable_m691269733_gshared
ECg:_GenericTypeParameterBuilder_GetAttributeFlagsImpl_m3338182267
FO:__ZN13Simd4iFactoryIN6detail9FourTupleEEC2Eiiii
j1e:_SynchronizedReader__ctor_m1408327515
j_h:__Z67RuntimeInvoker_AnimatorTransitionInfo_t2410896200_Int32_t2071877448PK10MethodInfoPvPS2_
e9h:__Z54RuntimeInvoker_KeyValuePair_2_t3716250094_Il2CppObjectPK10MethodInfoPvPS2_
XMe:_ReadOnlyCollection_1_System_Collections_IList_Clear_m1858417639_gshared
nud:_Slot_t2022531261_marshal_pinvoke_cleanup
qMa:__ZZ23InitPlayerLoopCallbacksvEN38PostLateUpdateShaderHandleErrorsstruct7ForwardEv
qnb:__ZN15SerializeTraitsI33EnlightenTerrainChunksInformationE8TransferI14SafeBinaryReadEEvRS0_RT_
yDc:__ZN6b2Body12SetTransformERK6b2Vec2f
E0b:__ZNK32RendererMaterialAnimationBinding9BindValueER6ObjectRKN11UnityEngine9Animation14GenericBindingERNS3_10BoundCurveE
aPh:__Z112RuntimeInvoker_Int32_t2071877448_Il2CppObject_Int32_t2071877448_Int32_t2071877448_Il2CppObject_Int32_t2071877448PK10MethodInfoPvPS2_
Stb:__Z13GetIAnimationv
Pna:__ZL18stbir__support_onef
joe:_List_1_System_Collections_IList_Remove_m2040310137_gshared
jvi:_Match_get_Regex_m3526002767
eMf:__ZL49Stream_t3255436806_CustomAttributesCacheGeneratorP21CustomAttributesCache
qpc:__Z26Transfer_UnityEngineObjectI9JSONWriteLb0EEvRK29SerializationCommandArgumentsR31RuntimeSerializationCommandInfo
baa:__ZN9ShaderLab4Pass9ApplyPassEjPK19ShaderPropertySheetR17ShaderPassContextP6ShaderiPKNS_10GrabPassesEPNS_11SubProgramsE
xhd:_EncoderReplacementFallback_CreateFallbackBuffer_m3579126537
LSg:_UInt32_System_IConvertible_ToInt16_m2251335934_AdjustorThunk
DXc:__ZNSt3__27__sort5IRNS_6__lessIN2UI14DepthSortEntryES3_EEPS3_EEjT0_S7_S7_S7_S7_T_
q$i:__ZN14dense_hash_mapI10KeyWrapperIPKcEP11Il2CppClassN6il2cpp5utils11StringUtils12StringHasherIS2_EENS3_14EqualsComparerINS8_21CaseSensitiveComparerEEENSt3__29allocatorINSE_4pairIKS3_S5_EEEEE13set_empty_keyERSH_
DJh:__Z31RuntimeInvoker_Void_t1841601450PK10MethodInfoPvPS2_
cld:_Boolean_System_IConvertible_ToType_m3990189691
Udj:__ZNSt3__218uninitialized_copyIPNS_4pairIK10KeyWrapperINS1_IPK11Il2CppImageP11Il2CppClassEEEjEESC_EET0_T_SE_SD_
Da:invoke_vdd
Bn:FUNCTION_TABLE_fiii
ZCh:_InternalEnumerator_1_Dispose_m3838127340_AdjustorThunk
X$h:__Z36RuntimeInvoker_FontStyle_t2764949590PK10MethodInfoPvPS2_
IGd:_Double_System_IConvertible_ToUInt32_m624993430
En:FUNCTION_TABLE_fiif
Qfg:__ZL89PointerEventData_t1599784723_CustomAttributesCacheGenerator_U3CdraggingU3Ek__BackingFieldP21CustomAttributesCache
V_b:__ZNK30SpriteRendererAnimationBinding12GetPPtrValueERKN11UnityEngine9Animation10BoundCurveE
kOg:_Scheduler_Add_m376749205
jrj:__ZN15dense_hashtableINSt3__24pairIK10KeyWrapperINS1_IPKcS4_EEEiEES6_24NamespaceAndNamePairHashN14dense_hash_mapIS6_iS9_NS6_14EqualsComparerI26NamespaceAndNamePairEqualsEENS0_9allocatorIS8_EEE9SelectKeyESD_SF_E12resize_deltaEjj
G$b:__Z14RandomRotationP9Texture2DPhiiii
yqg:_SingleCallIdentity__ctor_m1512303454
BBh:_InternalEnumerator_1_MoveNext_m1594563423_AdjustorThunk
s7e:_SimpleCollator_IsIgnorable_m2485013022
o9f:__ZL86Canvas_t209405766_CustomAttributesCacheGenerator_Canvas_get_sortingLayerID_m1396307660P21CustomAttributesCache
LPh:__Z35RuntimeInvoker_TimeSpan_t3430258949PK10MethodInfoPvPS2_
Vse:_List_1_System_Collections_IList_Insert_m2036969360_gshared
w$d:_InputField_GetUnclampedCharacterLineFromPosition_m1912794077
g_e:_ReadDelegate__ctor_m885671467
dDd:_DateTimeOffset_ToString_m2121173678_AdjustorThunk
g_f:__ZL50X509Crl_t1699034837_CustomAttributesCacheGeneratorP21CustomAttributesCache
p3i:__ZN24dense_hashtable_iteratorINSt3__24pairIK10KeyWrapperIPKcEP11Il2CppClassEES5_N6il2cpp5utils11StringUtils12StringHasherIS4_EEN14dense_hash_mapIS5_S8_SE_NS5_14EqualsComparerINSC_21CaseSensitiveComparerEEENS0_9allocatorIS9_EEE9SelectKeyESI_SK_E30advance_past_empty_and_deletedEv
XYi:__ZL25UnresolvedVirtualCall_184P12Il2CppObject6Guid_tPK10MethodInfo
lj:_JS_WebRequest_SetResponseHandler
HS:__ZNK13EmscriptenWWW14GetPartialDataEv
RUj:_glDeleteProgram__wrapper
Fac:__Z50Register_UnityEngine_Camera_INTERNAL_get_pixelRectv
eki:_AnimationOffsetPlayable_set_position_m3583285645
b4h:__Z53RuntimeInvoker_UIVertex_t1204258818_Int32_t2071877448PK10MethodInfoPvPS2_
uia:__ZN6prcoreL18BlitFloatToIntegerERK14ImageReferenceRS0_
K7h:__Z57RuntimeInvoker_KeyValuePair_2_t38854645_Int32_t2071877448PK10MethodInfoPvPS2_
Dff:_X509CertificateCollection_get_Item_m410866272
TXg:_Rect_get_yMax_m2915146103
RDc:__ZN7b2Timer5ResetEv
pR:__ZN11UnityEngine15CloudWebService14RestDownloader17OnCompleteContentEv
oYd:_LayoutGroup_SetChildAlongAxis_m1615929339
Ra:invoke_viffi
Hs:__ZN11UnityEngine9Animation40SetFlattenedSkeletonTransformsMainThreadER9TransformRKNS0_21AvatarBindingConstantEb
NZ:__ZNSt3__26vectorI20ProcessCallbackGroupNS_9allocatorIS1_EEEC2ERKS4_
kA:__ZN17AnimationPlayable28UpdateInternalStateRecursiveILi1ELb0EEEvPK35AnimationPlayableEvaluationConstant
Qve:_List_1_System_Collections_ICollection_get_SyncRoot_m1429670979_gshared
Ua:invoke_vifff
kdc:__Z53Register_UnityEngine_Input_INTERNAL_get_mousePositionv
qvi:_MatchCollection_get_SyncRoot_m2567236647
Ue:_emscripten_request_fullscreen
C6g:_Rect_get_xMin_m1161102488
BV:__ZN20LocalFileSystemWebGL6DeleteER13FileEntryDatab
hEd:_Decimal_System_IConvertible_ToUInt16_m1621568250
We:_emscripten_glDisableVertexAttribArray
C4f:__ZL79Object_t1021602117_CustomAttributesCacheGenerator_Object_Instantiate_m938141395P21CustomAttributesCache
Zm:FUNCTION_TABLE_iiiifiiii
fPg:_TimeSpan_get_TotalMinutes_m1645177229_AdjustorThunk
qc:invoke_fifffi
Pbh:_Enumerator__ctor_m3539306986_gshared
Eya:__ZN4gles23ClearCurrentFramebufferEP7ApiGLESbbbRK10ColorRGBAffi
ez:__ZN7mecanim12statemachine20CreateStateWorkspaceEjjjRNS_6memory9AllocatorE
Saf:__ZN21InterfaceFuncInvoker3IP22ByteU5BU5D_t3397334013S1_iiE6InvokeEjP11Il2CppClassP12Il2CppObjectS1_ii
B_c:__Z64Register_UnityEngine_CanvasRenderer_SplitIndiciesStreamsInternalv
rYh:__Z34RuntimeInvoker_Vector3_t2243707580PK10MethodInfoPvPS2_
ff:_emscripten_glDeleteObjectARB
ag:_IMG_Load
b2e:_UnexceptionalStreamReader_Read_m3839775235
Lja:__ZN6prcoreL27StretchGenericFloatBilinearI18TexFormatARGBFloatEEvPKNS_9InnerInfoE
xgc:__Z53Register_UnityEngine_RenderTexture_Internal_GetHeightv
Lpg:_RealProxy_SetTargetDomain_m3940877656
vja:__ZN6prcoreL17RemapGenericFloatI17TexFormatRGBAHalf18TexFormatARGBFloatEEvPKNS_9InnerInfoE
oHd:_Enum_System_IConvertible_ToInt32_m2459904362
Ejc:__ZNK8GUIStyle21DrawWithTextSelectionER8GUIStateRK5RectTIfER10GUIContentbbbbbiiRK10ColorRGBAfSA_
Sjc:__Z14GetBuiltinSkini
hlf:_ContentInfo__ctor_m3871771681
XDh:_InternalEnumerator_1_MoveNext_m607849555_AdjustorThunk
OKd:_BaseInput_set_compositionCursorPos_m2632248731
CSi:_Enumerator_System_Collections_IEnumerator_Reset_m2573763156_gshared
AYe:_DirectoryInfo_Initialize_m2216118894
Bbd:_WindowsIdentity_Dispose_m2649088337
sVb:__ZN2UI13RectTransform23VirtualRedirectTransferER14SafeBinaryRead
iNi:_InvokableCall_1__ctor_m54675381_gshared
t4e:_MonoType_GetMethodImpl_m593754598
xle:_List_1_System_Collections_ICollection_get_SyncRoot_m3733894943_gshared
Fre:_List_1_Reverse_m302978607_gshared
uN:__ZZL31InitializeAudioManagerCallbacksvEN33FixedUpdateAudioFixedUpdatestruct7ForwardEv
ZRb:__ZNSt3__26vectorIN9ShaderLab20SerializedSubProgramENS_9allocatorIS2_EEE6assignIPS2_EENS_9enable_ifIXaasr21__is_forward_iteratorIT_EE5valuesr16is_constructibleIS2_NS_15iterator_traitsIS9_E9referenceEEE5valueEvE4typeES9_S9_
jrc:__Z18Transfer_BlittableI8JSONReadLb0E8BitFieldEvRK29SerializationCommandArgumentsR31RuntimeSerializationCommandInfo
Kqg:_SoapServices_RegisterInteropXmlType_m2949236705
Lcj:__ZNK15dense_hashtableINSt3__24pairIK10KeyWrapperIPK10Il2CppTypeEjEES6_N6il2cpp8metadata14Il2CppTypeHashEN14dense_hash_mapIS6_jSB_NS6_14EqualsComparerINSA_26Il2CppTypeEqualityComparerEEENS0_9allocatorIS8_EEE9SelectKeyESF_SH_E10test_emptyERK24dense_hashtable_iteratorIS8_S6_SB_SJ_SF_SH_E
O5a:__ZN17PersistentManagerC2Eii
aMb:__ZL17Transfer_GUIStyleI18StreamedBinaryReadILb1EELb0EEvRK29SerializationCommandArgumentsR31RuntimeSerializationCommandInfo
Xfd:_String_CharCopy_m2550399897
aYb:__ZN11TypeManager20RegisterNonClassTypeEiP4RTTIPKcS3_
mQb:__ZN9ShaderLab14SerializedPass8TransferI14SafeBinaryReadEEvRT_
Kkc:__Z71Register_UnityEngine_GUILayoutUtility_INTERNAL_CALL_Internal_MoveWindowv
nN:__ZN12AudioManager16SetListenerPauseEb
wzc:__ZNSt3__26__sortIRN10ClipperLib12LocMinSorterEPNS1_12LocalMinimumEEEvT0_S6_T_
plj:__ZN6il2cpp2vm9Exception25RaiseOutOfMemoryExceptionERKNS_5utils10StringViewIDsEE
Uze:_Collection_1_IsValidItem_m2254106115_gshared
QBg:_TypeBuilder_GetEvent_m3876348075
Vsh:_Slider_OnMove_m641164662
ea:invoke_viiiiiiiiiii
yGj:___syscall_ret
nOg:_Scheduler__ctor_m3716265742
Hcf:_MACAlgorithm_Final_m4076939925
JXb:__ZN14qsort_internal30FindAndMovePivotToLastPositionIP8Vector2fi26PointDistanceSortPredicateEEvT_S4_T0_T1_
Uqf:_TlsServerKeyExchange_ProcessAsSsl3_m462106368
Fqb:__ZN11ChannelInfo8TransferI19StreamedBinaryWriteILb0EEEEvRT_
ixh:_InternalEnumerator_1_System_Collections_IEnumerator_get_Current_m3583252352_gshared
Yzb:__ZN23ArchiveStorageConverter24ReadHeaderFromMemoryFileEv
rBg:_EnumBuilder_get_FullName_m2818393911
ETa:__ZN14qsort_internal13Partition3WayIP17RODataReplacementi19ROSorterReplacementEENSt3__24pairIT_S6_EES6_S6_T0_T1_
d0e:_StreamAsyncResult_get_Done_m2858832609
Acc:__Z34Register_UnityEngine_Gradient_Initv
zRi:_ObjectPool_1_set_countAll_m1742773675_gshared
gtg:_SerializationEntry_get_Value_m1628109884_AdjustorThunk
pLd:_BaseInputModule_GetAxisEventData_m3903709281
Hge:_Array_InternalArray__get_Item_TisUriScheme_t1876590943_m1821482697_gshared
Gde:_Array_Sort_TisIl2CppObject_m1954851512_gshared
lhf:_BigInteger__ctor_m3239748086
YU:__ZN13ScreenManager23SetIsOrientationEnabledE18EnabledOrientationb
EWi:__ZL24UnresolvedVirtualCall_57P12Il2CppObjectiPK10MethodInfo
iWf:__ZL79Convert_t2607082565_CustomAttributesCacheGenerator_Convert_ToUInt16_m1043031438P21CustomAttributesCache
Ovb:__ZN9InputAxis8TransferI19StreamedBinaryWriteILb0EEEEvRT_
VZb:__ZN13ProduceHelperI9TransformLb0EE7ProduceE18MemLabelIdentifier18ObjectCreationMode
Bmc:__Z45Register_UnityEngine_GUIStyle_GetFontInternalv
Sai:_AnimationEvent_set_floatParameter_m4139544688
Qxi:_Alternation_get_Alternatives_m1445219249
Ngh:_DefaultComparer_GetHashCode_m2506382068_gshared
zgi:_Component_SendMessageUpwards_m19741277
tkh:_EqualityComparer_1_System_Collections_IEqualityComparer_GetHashCode_m1012273405_gshared
k9d:_Array_InternalArray__ICollection_Add_TisHitInfo_t1761367055_m2956071622_gshared
n3f:__ZL74Random_t1170710517_CustomAttributesCacheGenerator_Random_Range_m2884721203P21CustomAttributesCache
tDh:_InternalEnumerator_1_MoveNext_m470170271_AdjustorThunk
r3a:__ZN10GameObject23VirtualRedirectTransferER18StreamedBinaryReadILb0EE
Xie:_Enumerator_get_Current_m2577424081_gshared
fGh:_InternalEnumerator_1_Dispose_m2270401482_AdjustorThunk
wg:_glFrontFace
Fsg:_ObjectRecord_get_IsUnsolvedObjectReference_m2202692850
vDf:_FactoryCache_Cleanup_m4130035987
iYi:__ZL25UnresolvedVirtualCall_143P12Il2CppObjectssPK10MethodInfo
UC:__ZN26AnimatorControllerPlayable14SetLayerWeightEif
XYb:__ZN13ProduceHelperI19LowerResBlitTextureLb0EE7ProduceE18MemLabelIdentifier18ObjectCreationMode
RYa:__ZNSt3__26vectorI16ShadowCasterData13stl_allocatorIS1_L18MemLabelIdentifier2ELi16EEE21__push_back_slow_pathIKS1_EEvRT_
p6i:__ZN6il2cpp6icalls8mscorlib6SystemL16GetFieldFromTypeINS_5utils10functional6FilterINSt3__212basic_stringIcNS7_11char_traitsIcEENS7_9allocatorIcEEEENS4_11StringUtils23CaseInsensitiveComparerEEEEEP21Il2CppReflectionFieldP11Il2CppClassSK_iRKT_
YNi:_UnityAction_1_Invoke_m1279802577_gshared
nTg:_UInt32_ToString_m1783596809
IHi:_Vector3_get_forward_m1201659139
rwe:_List_1_Sort_m269561757_gshared
Qbg:__ZL110GUIStyle_t1799908754_CustomAttributesCacheGenerator_GUIStyle_INTERNAL_CALL_Internal_DrawPrefixLabel_m557487542P21CustomAttributesCache
bWc:__Z51Register_UnityEngine_TextGenerator_GetLinesInternalv
XSi:_HashSet_1_Init_m1258286688_gshared
Fff:_X509CertificateEnumerator_System_Collections_IEnumerator_get_Current_m1643583406
EIe:_ReadOnlyCollection_1_System_Collections_IList_RemoveAt_m525136953_gshared
I6d:__ZN21InterfaceFuncInvoker1Ii19Vector4_t2243707581E6InvokeEjP11Il2CppClassP12Il2CppObjectS0_
Ffi:_Collision2D_get_gameObject_m4234358314
Mia:__ZN6prcoreL17RemapGenericFloatI17TexFormatRGBFloat18TexFormatRGBAFloatEEvPKNS_9InnerInfoE
sTg:_UInt64_System_IConvertible_ToBoolean_m3012279573_AdjustorThunk
xRh:__Z48RuntimeInvoker_Il2CppObject_StringU26_t638738783PK10MethodInfoPvPS2_
gRg:_Type_get_IsGenericTypeDefinition_m2147901038
FJa:__ZN12HandlerChain10ToAbsoluteEPKc
SYi:__ZL25UnresolvedVirtualCall_179P12Il2CppObject20UIVertex_t1204258818S1_PK10MethodInfo
Bsi:_ContextAttribute_Freeze_m4133346275
MPe:_GregorianCalendar__ctor_m3794576475
iTg:_UInt32_TryParse_m4283512434
Ooj:__ZN15dense_hashtableI10KeyWrapperIP18Il2CppGenericClassES3_N6il2cpp8metadata22Il2CppGenericClassHashEN14dense_hash_setIS3_S6_NS3_14EqualsComparerINS5_25Il2CppGenericClassCompareEEENSt3__29allocatorIS3_EEE8IdentityESA_SD_E8min_sizeEjj
RG:__ZN9AudioClip11CreateSoundEv
Y9g:_ShimEnumerator_MoveNext_m3313047792_gshared
GAe:_Collection_1_ConvertItem_m2185647560_gshared
MPg:_TimeSpan_op_Inequality_m257547441
ZMg:_ExecutionContext_GetObjectData_m1456913356
uhj:__ZN14dense_hash_mapI10KeyWrapperINSt3__24pairIPK9FieldInfoP11Il2CppClassEEEj17ReflectionMapHashIS8_ENS9_14EqualsComparerINS1_8equal_toIS8_EEEENS1_9allocatorINS2_IKS9_jEEEEEC2EjRKSB_RKSF_
Z3g:_Object_set_hideFlags_m2204253440
Wcj:__ZNK15dense_hashtableINSt3__24pairIK10KeyWrapperINS1_IPK10MethodInfoP11Il2CppClassEEEjEES9_17ReflectionMapHashIS8_EN14dense_hash_mapIS9_jSD_NS9_14EqualsComparerINS0_8equal_toIS8_EEEENS0_9allocatorISB_EEE9SelectKeyESI_SK_E13find_positionERSA_
jBg:_EnumBuilder_get_Assembly_m4285228003
eWb:__Z10tesvertLeqP10TESSvertexS0_
IJb:__Z18Transfer_BlittableI19StreamedBinaryWriteILb0EELb0E8Vector2fEvRK29SerializationCommandArgumentsR31RuntimeSerializationCommandInfo
FRe:_DateTimeFormatInfo_get_RoundtripPattern_m562440017
V2c:__ZN11UnityEngine7Connect16PersistentValues13RestoreValuesER8JSONRead
lLa:__ZN20ArchiveStorageReader31TryToReadDirectoryFromBlockDataEyPKvj
Mhh:_DefaultComparer__ctor_m3947565964_gshared
nGd:_Double_System_IConvertible_ToByte_m3004284950_AdjustorThunk
Oqg:_TypeEntry_get_AssemblyName_m1762285107
coj:__ZN6il2cpp2vmL11GetIdentityEP14Il2CppIUnknown
gcf:_SmallXmlParser_ReadCDATASection_m2558307107
dAj:_GC_push_gc_structures
wQd:_AspectRatioFitter_get_aspectRatio_m3023618874
n7i:__ZN6il2cpp6icalls8mscorlib6SystemL8IsPublicEPK9EventInfo
tFf:_Enumerator__ctor_m3782962052
pvd:_Enumerator_get_Current_m1271212567
Jxj:__ZThn4_N6il2cpp2vm13ComObjectBase18ReleaseMarshalDataEP13Il2CppIStream
eFa:__Z22GetShaderCachePathGLESv
f1g:_Input_set_compositionCursorPos_m1615567306
ZFc:__Z41Rigidbody2D_CUSTOM_INTERNAL_CALL_AddForceP12Il2CppObjectRK13Vector2fIcallN11Rigidbody2D9ForceModeE
gxf:_IPAddress_ParseIPV6_m2209709575
zph:_U3CClickRepeatU3Ec__Iterator0_MoveNext_m1747924386
WOe:_Comparison_1_Invoke_m1670081898_gshared
ouh:_Toggle_set_group_m3833595685
O1d:_LayoutRebuilder_ForceRebuildLayoutImmediate_m566681977
TEa:__ZNSt3__26vectorIPN19ConstantBuffersGLES11ConstBufferENS_9allocatorIS3_EEE21__push_back_slow_pathIKS3_EEvRT_
r9d:_Array_InternalArray__ICollection_Add_TisVector4_t2243707581_m698578249_gshared
i$:__ZN8keywords6CreateEPKc
PLh:__Z89RuntimeInvoker_Il2CppObject_Il2CppObject_Int32_t2071877448_Int32_t2071877448_Il2CppObjectPK10MethodInfoPvPS2_
eJb:__ZN24GenerateTypeTreeTransfer8TransferINSt3__26vectorI17AnimationCurveTplIfE13stl_allocatorIS4_L18MemLabelIdentifier1ELi16EEEEEEvRT_PKc17TransferMetaFlags
S:Math_imul
r_g:_GUIStyle_set_active_m2896743432
hvb:__ZN14SpriteRenderer15SetupPropertiesEv
Opb:__ZN11PlayerPrefs6GetIntERKN4core12basic_stringIcNS0_20StringStorageDefaultIcEEEEi
dcd:_SecurityFrame_t1002202659_marshal_pinvoke_back
LVc:__Z45TextGenerator_CUSTOM_INTERNAL_get_rectExtentsP12Il2CppObjectP5RectTIfE
jni:_PlayableHandle_Equals_m1435096530
MVe:_Int32_Equals_m321398519_AdjustorThunk
Rbg:__ZL102GUIStyle_t1799908754_CustomAttributesCacheGenerator_GUIStyle_Internal_GetCursorFlashOffset_m3177259302P21CustomAttributesCache
y4d:_SetPropertyUtility_SetStruct_TisChar_t3454481338_m2333420724_gshared
dXd:_Graphic_Raycast_m3582517890
Ktd:_Hashtable_ContainsKey_m2716576664
Mvi:_PatternCompiler_EmitCategory_m1696942454
sEd:_Decimal_decimalFloorAndTrunc_m3655683429
K9d:_Array_InternalArray__ICollection_CopyTo_TisInt32_t2071877448_m984622488_gshared
GY:__ZN18ScriptingArguments9AddObjectE18ScriptingObjectPtr
LZc:__Z39CanvasGroup_Get_Custom_PropInteractableP12Il2CppObject
aP:__ZN11UnityEngine15CloudWebService16SessionContainerD2Ev
MQj:_emscripten_glStencilOpSeparate__wrapper
xSc:_cf2_getLanguageGroup
Rya:__ZN17GenericDynamicVBOC2ER9GfxDevice13GfxBufferModejj
_ri:_Context_get_HasDynamicSinks_m1998518649
rDc:__Z28GetPhysics2DScriptingClassesv
K2i:__ZN15dense_hashtableINSt3__24pairIK10KeyWrapperIPKcEP11Il2CppClassEES5_N6il2cpp5utils11StringUtils12StringHasherIS4_EEN14dense_hash_mapIS5_S8_SE_NS5_14EqualsComparerINSC_21CaseSensitiveComparerEEENS0_9allocatorIS9_EEE9SelectKeyESI_SK_E6insertERKS9_
tQ:__ZN11UnityEngine15CloudWebService17SessionEventQueue10PurgeItemsEj
o8g:_UpdatedEventHandler_BeginInvoke_m4238510153
tKd:_AbstractEventData_get_used_m4208553917
S1a:__ZN6Camera16StandaloneRenderENS_10RenderFlagEP6ShaderRKN4core12basic_stringIcNS3_20StringStorageDefaultIcEEEE
sid:_Array_System_Collections_IList_get_Item_m2088124007
Mid:_Array_GetLength_m2083296647
jTf:__ZL58SecurityElement_t2325568386_CustomAttributesCacheGeneratorP21CustomAttributesCache
mlb:__ZNK12CubemapArray13GetIsReadableEv
trd:_SynchronizedArrayListWrapper_ToArray_m1522185111
FVh:__Z55RuntimeInvoker_TimeSpan_t3430258949_DateTime_t693205669PK10MethodInfoPvPS2_
BLb:__Z18Transfer_BlittableI18StreamedBinaryReadILb1EELb1EtEvRK29SerializationCommandArgumentsR31RuntimeSerializationCommandInfo
Gbd:_SecurityContext_get_FlowSuppressed_m420202521
Ota:__ZN9GfxDevice20DeallocRenderSurfaceEP17RenderSurfaceBase
gVg:_ValueType_ToString_m3796301715
hpj:__ZNK15dense_hashtableI10KeyWrapperIP18Il2CppGenericClassES3_N6il2cpp8metadata22Il2CppGenericClassHashEN14dense_hash_setIS3_S6_NS3_14EqualsComparerINS5_25Il2CppGenericClassCompareEEENSt3__29allocatorIS3_EEE8IdentityESA_SD_E12test_deletedEj
dTh:__Z62RuntimeInvoker_Int64_t909078037_Il2CppObject_Int32_t2071877448PK10MethodInfoPvPS2_
Edc:__Z53Register_UnityEngine_Quaternion_INTERNAL_CALL_Inversev
Lce:_Array_qsort_TisUICharInfo_t3056636800_m2607408901_gshared
VWg:_GUILayoutGroup__ctor_m992523271
a7f:__ZL139AnimatorControllerPlayable_t4078305555_CustomAttributesCacheGenerator_AnimatorControllerPlayable_CrossFadeInFixedTime_m1082259778____layer2P21CustomAttributesCache
ygb:__ZN12BaseRenderer23RendererBecameInvisibleEv
PHc:__ZN20TextRenderingPrivate8FontImpl13CharacterInfo8TransferI18StreamedBinaryReadILb0EEEEvRT_
vJb:__Z29Transfer_Blittable_ArrayFieldI24GenerateTypeTreeTransferfEvRT_R9ArrayInfoRK23StaticTransferFieldInfo
VTh:__Z51RuntimeInvoker_Single_t2076509932_Int16_t4041245914PK10MethodInfoPvPS2_
K4a:__ZN19CustomRenderTexture9AddParentE4PPtrIS_E
cpb:__ZN8Gradient8TransferI14SafeBinaryReadEEvRT_
zQh:__Z41RuntimeInvoker_StackBehaviour_t1390406961PK10MethodInfoPvPS2_
wPi:_UnityEvent_1_Invoke_m1533100983_gshared
Lfa:__ZNSt3__26vectorIN4core12basic_stringIcNS1_20StringStorageDefaultIcEEEE13stl_allocatorIS5_L18MemLabelIdentifier1ELi16EEE7reserveEj
wwf:_FileWebRequest__ctor_m4003648606
Rkg:__ZL71SpriteState_t1353336012_CustomAttributesCacheGenerator_m_DisabledSpriteP21CustomAttributesCache
H8h:__Z34RuntimeInvoker_HitInfo_t1761367055PK10MethodInfoPvPS2_
qHd:_Enum_System_IConvertible_ToSByte_m3488526280
hFg:_TypeBuilder_ToString_m1952363535
dti:_Identity_set_Disposed_m628843469
N3g:_MonoBehaviour_StopAllCoroutines_m1675795839
bpa:__ZN18IDCollectorFunctorD0Ev
w4f:__ZL82Object_t1021602117_CustomAttributesCacheGenerator_Object_DestroyObject_m2343493981P21CustomAttributesCache
uV:__ZNK20LocalFileSystemPosix9IsSymLinkERK13FileEntryData
Zyj:_GC_new_free_list_inner
zgh:_DefaultComparer_Equals_m85211180_gshared
KDe:_Collection_1_System_Collections_IList_IndexOf_m1950953062_gshared
l4e:_MonoType_InternalGetEvent_m532443236
DCe:_Collection_1_IndexOf_m2700825189_gshared
KHh:_Comparer_1_get_Default_m2605397692_gshared
Vrc:__ZN8JSONRead8TransferI10RectOffsetEEvRT_PKc17TransferMetaFlagsb
crj:__ZNK15dense_hashtableINSt3__24pairIK10KeyWrapperINS1_IPKcS4_EEEiEES6_24NamespaceAndNamePairHashN14dense_hash_mapIS6_iS9_NS6_14EqualsComparerI26NamespaceAndNamePairEqualsEENS0_9allocatorIS8_EEE9SelectKeyESD_SF_E12test_deletedERK24dense_hashtable_iteratorIS8_S6_S9_SH_SD_SF_E
bQ:__ZN9JSONWrite8TransferIN11UnityEngine15CloudWebService14DataErrorEvent15FileErrorDetailEEEvRT_PKc17TransferMetaFlags
Bgd:_Decoder__ctor_m2623573910
Poa:__Z21ClearFenceWithoutSyncR8JobFence
yJe:_ReadOnlyCollection_1_System_Collections_Generic_IListU3CTU3E_RemoveAt_m1731148677_gshared
NJ:__ZN12SoundManager20RegisterModifiedClipEP10SampleClip
yNh:__Z108RuntimeInvoker_Void_t1841601450_Il2CppObject_Int64_t909078037_Il2CppObject_Int64_t909078037_Int64_t909078037PK10MethodInfoPvPS2_
nsj:__ZN6il2cpp2vm6Object16GetVirtualMethodEP12Il2CppObjectPK10MethodInfo
py:__ZN22AnimationMixerPlayable11DerivesFromE17ScriptingClassPtr
n0i:__ZN15dense_hashtableI10KeyWrapperIPK17Il2CppGenericInstES4_N6il2cpp8metadata21Il2CppGenericInstHashEN14dense_hash_setIS4_S7_NS4_14EqualsComparerINS6_24Il2CppGenericInstCompareEEENSt3__29allocatorIS4_EEE8IdentityESB_SE_E13set_empty_keyERKS4_
tV:__ZNK20LocalFileSystemPosix8IsHiddenERK13FileEntryData
ojh:_EqualityComparer_1_System_Collections_IEqualityComparer_Equals_m3589836321_gshared
scf:_SmallXmlParser_IsNameChar_m1561000202
JCi:_X501__cctor_m2610532554
c9g:_Enumerator_VerifyState_m3173176371_gshared
Zfd:_StringComparer__ctor_m2275216983
xaj:__ZNSt3__214__split_bufferINS_12basic_stringIcNS_11char_traitsIcEENS_9allocatorIcEEEERNS4_IS6_EEED2Ev
pve:_List_1_CheckCollection_m2220107869_gshared
Mlb:__ZN7Cubemap23VirtualRedirectTransferER18StreamedBinaryReadILb0EE
Unf:_RecordProtocol_EncodeRecord_m3884270352
T7c:_SHA256_Create_m896954069
eUc:_Read_CVT
vAd:_Convert_ToUInt32_m776714429
fIa:__ZN12FileAccessor4SeekEx10FileOrigin
vIb:__ZL26Transfer_SimpleNativeClassI24GenerateTypeTreeTransfer17AnimationCurveTplIfELb0EEvRK29SerializationCommandArgumentsR31RuntimeSerializationCommandInfo
OYh:__Z77RuntimeInvoker_Vector3_t2243707580_Quaternion_t4030073918_Vector3_t2243707580PK10MethodInfoPvPS2_
z0h:__Z54RuntimeInvoker_Boolean_t3825574718_Vector2_t2243707579PK10MethodInfoPvPS2_
L1i:__ZN15dense_hashtableINSt3__24pairIK10KeyWrapperI13dynamic_arrayIPK10Il2CppTypeLj4EEEPFvvEEES8_N6il2cpp8metadata19Il2CppSignatureHashEN14dense_hash_mapIS8_SB_SF_NS8_14EqualsComparerINSE_22Il2CppSignatureCompareEEENS0_9allocatorISC_EEE9SelectKeyESJ_SL_E4swapERSO_
Tgi:_Coroutine_t2299508840_marshal_pinvoke
Y5:__ZN16LightmapSettings20DidChangeActiveSceneEP10UnitySceneS1_
Kyg:_Default_ReorderParameters_m1877749093
Smg:__ZL59g_AssemblyU2DCSharp_Assembly_CustomAttributesCacheGeneratorP21CustomAttributesCache
bjb:__ZNK17InstancedPropInfo15RenderInstancesERK15RenderNodeQueuePK17BatchInstanceDataj17ShaderChannelMask
z5i:__ZN6il2cpp5utils9PathUtils8BasenameIcEENSt3__212basic_stringIT_NS3_11char_traitsIS5_EENS3_9allocatorIS5_EEEERKSA_
eL:__ZN10AudioMixer11SetupGroupsEv
q3f:__ZL91Resources_t339470017_CustomAttributesCacheGenerator_Resources_GetBuiltinResource_m582410469P21CustomAttributesCache
wkc:__Z35Register_UnityEngine_Event_get_typev
fdf:_PrivateKeyInfo_DecodeRSA_m1427048948
Blj:__ZN6il2cpp2vm9Exception23GetInvalidCastExceptionERKNS_5utils10StringViewIDsEE
sif:_BigInteger_op_GreaterThanOrEqual_m2643115413
Oxg:_Assembly_FillName_m1934025015
LNa:_UNITY_png_free
DXe:_IntPtr_op_Explicit_m1073656736
OOj:_emscripten_glDepthRange__wrapper
zed:_String_IndexOf_m2126171214
aXe:_Int64_ToString_m1544341651_AdjustorThunk
jA:__ZN8Animator28BuildControllerPlayableCacheEv
$Se:_Guid_CheckNull_m2903986431
nYf:__ZL62CrossContextDelegate_t754146990_CustomAttributesCacheGeneratorP21CustomAttributesCache
edi:_Bounds__ctor_m1202659404
q0:__Z63ThreadAndSerializationSafeCheckGetMonoBehaviourBeingTransferredv
JBj:_GC_enable
Ppf:_TlsClientCertificateVerify_ProcessAsSsl3_m3377063356
QNh:__Z97RuntimeInvoker_Il2CppObject_Il2CppObject_Int32_t2071877448_Il2CppObject_Il2CppObject_Il2CppObjectPK10MethodInfoPvPS2_
hPd:_StandaloneInputModule_set_repeatDelay_m2820945738
dZe:_EndOfStreamException__ctor_m4268387737
sSg:_UInt16_ToString_m4213290405
fdc:__Z37Register_UnityEngine_Input_GetAxisRawv
dxe:_List_1_GetIndex_m433539411_gshared
tRf:__ZL59StreamingContext_t1417235061_CustomAttributesCacheGeneratorP21CustomAttributesCache
uqi:_ChannelServices_RegisterChannel_m3832858065
xHd:_Enum_GetName_m1226611481
IPe:_Func_2_Invoke_m4121137703_gshared
P$f:__ZL92Camera_t189460977_CustomAttributesCacheGenerator_Camera_INTERNAL_CALL_RaycastTry_m1030092423P21CustomAttributesCache
Tqb:__ZN14Texture2DArray23VirtualRedirectTransferER18StreamedBinaryReadILb0EE
pyi:_Literal_CompileLiteral_m276843152
jVb:__ZN2UI13RectTransform13AwakeFromLoadE17AwakeFromLoadMode
lyi:_Reference__ctor_m4110013284
nYa:__ZN14qsort_internal30FindAndMovePivotToLastPositionIP20ShadowCasterSortDatai26ShadowCasterSortDataSorterEEvT_S4_T0_T1_
qDb:__Z18Transfer_BlittableI14SafeBinaryReadLb1EiEvRK29SerializationCommandArgumentsR31RuntimeSerializationCommandInfo
Apa:__ZN17PersistentManager13GetAllFileIDsERKN4core12basic_stringIcNS0_20StringStorageDefaultIcEEEER13dynamic_arrayIxLj8EE
eTh:__Z72RuntimeInvoker_Il2CppObject_IntPtr_t_Int32_t2071877448_Int32_t2071877448PK10MethodInfoPvPS2_
vKe:_ReadOnlyCollection_1_GetEnumerator_m713393110_gshared
Epg:_ProxyAttribute_GetPropertiesForNewContext_m3587421540
Mjd:_Array_LastIndexOf_m4096535198
upd:_ArrayList_Add_m1719188324
DGd:_Double_System_IConvertible_ToSByte_m1653690240_AdjustorThunk
Fk:_glGetStringi
i0g:_GUIStyleState_t3801000545_marshal_pinvoke
Msg:_ObjectManager_AddFixup_m4148241867
gKd:_CultureInfo_set_NumberFormat_m1618950525
qrb:__ZN18StreamedBinaryReadILb0EE21TransferSTLStyleArrayI13dynamic_arrayI8Vector4fLj4EEEEvRT_17TransferMetaFlags
dBf:_X509Store__ctor_m1573680316
sBf:_X509Chain_get_CertificateCollection_m324631835
Gjh:_EqualityComparer_1__cctor_m1011898363_gshared
fQd:_AnimationTriggers__ctor_m2623627182
f7d:_Array_InternalArray__IndexOf_TisClientCertificateType_t4001384466_m1168139450_gshared
w5h:__Z49RuntimeInvoker_Int32_t2071877448_Link_t2723257478PK10MethodInfoPvPS2_
rCg:_FieldBuilder_get_Name_m2243491233
iSa:__ZN9Coroutine16SetCurrentMethodE18ScriptingMethodPtr
zs:__ZN8Animator9WriteStepEv
Qpb:__ZNSt3__23mapIN4core12basic_stringIcNS1_20StringStorageDefaultIcEEEE9PrefValueNS_4lessIS5_EENS_9allocatorINS_4pairIKS5_S6_EEEEEixERSB_
eic:__ZN15DirectorManager22ConstructPlayableGraphEv
JU:__ZN13ScreenManager16SetScreenTimeoutEi
lHb:__Z18Transfer_BlittableI17RemapPPtrTransferLb0EdEvRK29SerializationCommandArgumentsR31RuntimeSerializationCommandInfo
Q8c:_SymmetricAlgorithm_set_IV_m4262655606
oth:_StencilMaterial__cctor_m2963056855
glh:_EqualityComparer_1_System_Collections_IEqualityComparer_Equals_m315020809_gshared
vzg:_CustomAttributeNamedArgument_GetHashCode_m3715408876_AdjustorThunk
SVc:__Z38Register_UnityEngine_Font_HasCharacterv
xAf:_X509Certificate2_AppendBuffer_m3517242299
k0a:__Z35IntersectSpherePlaneBoundsOptimizedRKN4math7_float4EPS1_i
cKd:_CultureInfo_get_IsNeutralCulture_m3874876470
gFd:_Delegate_CreateDelegate_m3813023227
ARh:__Z46RuntimeInvoker_WellKnownObjectMode_t2630225581PK10MethodInfoPvPS2_
AAi:_Uri_get_AbsoluteUri_m2120317928
Usj:__ZN6il2cpp2os5posix15PosixWaitObject13InterruptWaitEv
hTd:_ColorTween_TweenValue_m3279916815
wLd:_BaseInputModule_IsModuleSupported_m4272494372
B5:__Z22CleanupLODGroupManagerPv
l9d:_Array_InternalArray__ICollection_Add_TisContentType_t1028629049_m2984242302_gshared
skc:__Z21Event_CUSTOM_PopEventP12Il2CppObject
opj:__ZN6il2cpp8metadata15GenericMetadata20RegisterGenericClassEP18Il2CppGenericClass
nl:_glUniform3fv
Kxb:__ZNSt3__218__insertion_sort_3IRN15ResourceManager10Dependency6SorterEPS2_EEvT0_S6_T_
Tke:_Enumerator_System_Collections_IEnumerator_Reset_m3796537546_AdjustorThunk
pVc:_UNITY_FT_Init_Class_tt_service_gx_multi_masters
VCh:_InternalEnumerator_1_System_Collections_IEnumerator_Reset_m3249248421_AdjustorThunk
W3e:_IntComparer_Compare_m3057931085
WWa:__ZNK16LightmapSettings31GetRealtimeLightmapDecodeValuesEv
BL:__ZN5audio5mixer12SetSuspendedERNS0_16AudioMixerMemoryEb
qla:__ZN17PersistentManager21UnloadNonDirtyStreamsEv
uMh:__Z78RuntimeInvoker_Int32_t2071877448_DecimalU26_t1613489971_DecimalU26_t1613489971PK10MethodInfoPvPS2_
rmj:__ZN6il2cpp2vm13LivenessStateC2EP11Il2CppClassjPFvPP12Il2CppObjectiPvES7_PFvvESB_
l1h:__Z41RuntimeInvoker_ColorTweenMode_t1328781136PK10MethodInfoPvPS2_
kig:__ZL61Graphic_t2426225576_CustomAttributesCacheGenerator_m_MaterialP21CustomAttributesCache
Nyf:_Oid__ctor_m1936781897
q4g:_Object_INTERNAL_CALL_Internal_InstantiateSingleWithParent_m1401308849
hoi:_ResourceSet__ctor_m1222864106
EUg:_UIntPtr_op_Explicit_m1113914169
eye:_Collection_1_System_Collections_IList_get_Item_m3376056117_gshared
VJh:__Z44RuntimeInvoker_Int64_t909078037_Il2CppObjectPK10MethodInfoPvPS2_
Kl:_emscripten_glDepthMask
CMd:__ZN23InterfaceActionInvoker1IP28PointerEventData_t1599784723E6InvokeEjP11Il2CppClassP12Il2CppObjectS1_
kGf:__ZL76UInt16_t986882611_CustomAttributesCacheGenerator_UInt16_TryParse_m1818885113P21CustomAttributesCache
Ske:_Enumerator_VerifyState_m3639069574_gshared
Wza:__ZN4crnd25static_huffman_data_model22prepare_decoder_tablesEv
Exe:_Enumerator_MoveNext_m689054299_gshared
zde:_Array_Sort_TisIl2CppObject_TisIl2CppObject_m1915706600_gshared
Rhf:_ModulusRing_Difference_m662924064
wCh:_InternalEnumerator_1_MoveNext_m1869236997_gshared
LRd:_CanvasUpdateRegistry_ObjectValidForUpdate_m855695984
z_d:_InputField_set_onValueChanged_m2406388125
M5f:__ZL95Physics2D_t2540166467_CustomAttributesCacheGenerator_Physics2D_Raycast_m2303387255____maxDepth5P21CustomAttributesCache
AHe:_ReadOnlyCollection_1_System_Collections_ICollection_get_SyncRoot_m2702046016_gshared
JX:__ZL22CleanupUnityWebStreamsPv
ivi:_Regex_get_RightToLeft_m529734879
HNb:__Z18Transfer_BlittableI18StreamedBinaryReadILb0EELb0E10ColorRGBAfEvRK29SerializationCommandArgumentsR31RuntimeSerializationCommandInfo
nvf:_ListDictionary_Add_m4276262662
FZi:__ZL25UnresolvedVirtualCall_220P12Il2CppObjectiPK10MethodInfo
b6:__Znaj
o6c:_RIPEMD160Managed_GGG_m1639995340
pVj:_emscripten_glEnableClientState__wrapper
WX:__ZN17MessageIdentifierC2EPKcNS_7OptionsEPKN5Unity4TypeES1_
yE:__Z76AnimatorControllerPlayable_CUSTOM_INTERNAL_CALL_CrossFadeInFixedTimeInternalR9HPlayableifif
tbh:_Enumerator_System_Collections_IEnumerator_get_Current_m1648049763_gshared
sEj:__ZN6il2cpp6icalls8mscorlib4Mono8Security12Cryptography18KeyPairPersistence15_ProtectMachineEP12Il2CppString
s4d:_Enumerable_Any_TisIl2CppObject_m2208185096_gshared
UOh:__Z57RuntimeInvoker_DSAParameters_t1872138834_SByte_t454417549PK10MethodInfoPvPS2_
sgb:__ZN11GameManager15ThreadedCleanupEv
Jte:_List_1__ctor_m1337392449_gshared
Fid:_Array_System_Collections_IList_Remove_m2438892375
J0e:_TextWriter__ctor_m2225796097
gri:__ZN21InterfaceFuncInvoker0IP24StringU5BU5D_t1642385972E6InvokeEjP11Il2CppClassP12Il2CppObject
tbb:__ZN14SafeBinaryRead8TransferI14ConstantStringEEvRT_PKc17TransferMetaFlags
NYg:_ScriptableObject_Internal_CreateScriptableObject_m1778903390
Sca:__ZNK6Camera16GetStereoEnabledEv
g0b:__ZN12LightManager15InitializeClassEv
Sda:__ZN9ShaderLab11shaderprops16GetComputeBufferEPK19ShaderPropertySheetS3_NS_16FastPropertyNameE
W1:__ZN23ManagedAttributeManager35CallManagedGetDefaultExecutionOrderE17ScriptingClassPtr
i8b:__ZN18ScriptingArgumentsC2Ev
UPg:_TimeZone_IsDaylightSavingTime_m875882154
pwh:_ArrayReadOnlyList_1_Insert_m503707439_gshared
KQj:_emscripten_glBlendFuncSeparate__wrapper
LMh:__Z52RuntimeInvoker_Single_t2076509932_Decimal_t724701077PK10MethodInfoPvPS2_
Gmf:_CipherSuiteCollection_System_Collections_IList_set_Item_m750275607
QRa:__ZNK25CameraStackRenderingState27GetStereoImageEffectTextureEb
y7c:_SHA1CryptoServiceProvider__ctor_m3127563759
Up:__ZN8Vector3f8TransferI14SafeBinaryReadEEvRT_
Gmg:__ZL103BaseVertexEffect_t2504093552_CustomAttributesCacheGenerator_BaseVertexEffect_ModifyVertices_m3446986347P21CustomAttributesCache
Eo:FUNCTION_TABLE_ii
gch:_Enumerator_MoveNext_m335649778_AdjustorThunk
PR:__ZNSt3__26__treeINS_12__value_typeIN4core12basic_stringIcNS2_20StringStorageDefaultIcEEEES6_EENS_19__map_value_compareIS6_S7_NS_4lessIS6_EELb1EEENS_9allocatorIS7_EEE16__construct_nodeERKNS_4pairIKS6_S6_EE
Woc:__Z18Transfer_BlittableI9JSONWriteLb0E8BitFieldEvRK29SerializationCommandArgumentsR31RuntimeSerializationCommandInfo
mTg:_UInt32_ToString_m3894907091_AdjustorThunk
wMi:_Predicate_1__ctor_m2863314033_gshared
dPj:b44
YJd:_CultureInfo_get_TextInfo_m1582311326
T$g:_GUIStyle_get_contentOffset_m1904924583
fah:_ShimEnumerator_get_Key_m616785465_gshared
Ybf:_SmallXmlParser_Error_m1832158746
rEf:_RepeatContext_get_IsLazy_m1620488045
Ek:_glDeleteVertexArrays
K7a:__Z24CreateDirectoryRecursiveRKN4core12basic_stringIcNS_20StringStorageDefaultIcEEEE
aPj:b41
USb:__ZN9ShaderLab20SerializedSubProgram8TransferI18StreamedBinaryReadILb0EEEEvRT_
h0e:_StreamAsyncResult_get_AsyncWaitHandle_m4218169359
zbg:__ZL89GUIStyle_t1799908754_CustomAttributesCacheGenerator_GUIStyle_get_stretchWidth_m1223411161P21CustomAttributesCache
Lic:__Z22MonoGUIContentToNative18ScriptingObjectPtrR10GUIContent
V_a:__Z9EndJobSetR8JobFence11JobPriority
Kge:_Array_InternalArray__get_Item_TisContactPoint2D_t3659330976_m825151777_gshared
uWc:__ZN2UI13CanvasManager9AddCanvasEPNS_6CanvasE
noa:__ZN9Texture3D8TransferI19StreamedBinaryWriteILb0EEEEvRT_
fTa:__ZNK6Camera22CalculateRenderingPathEv
kqc:__ZN9JSONWrite8TransferI5RectTIfEEEvRT_PKc17TransferMetaFlags
ku:__ZN11UnityEngine9Animation37SetGenericRootTransformPropertyValuesERKNS0_30AnimatorGenericBindingConstantERKN7mecanim10ValueArrayER9Transformbb
Rli:_AnimatorControllerPlayable_INTERNAL_CALL_GetCurrentAnimatorClipInfoInternal_m3542665271
klf:_ContentInfo_get_Content_m1802070908
pHb:__ZL12InvokeMethodI17RemapPPtrTransferEvRK29SerializationCommandArgumentsR31RuntimeSerializationCommandInfo
uff:_X509Certificate_get_PublicKey_m714501701
G0d:_U3CMouseDragOutsideRectU3Ec__Iterator1_System_Collections_IEnumerator_get_Current_m561728752
INc:_tt_sbit_decoder_load_image
Oed:_String_LastIndexOf_m290475879
qvc:__ZN15b2DistanceJointD0Ev
x6d:__ZN21InterfaceFuncInvoker1Ii22UILineInfo_t3621277874E6InvokeEjP11Il2CppClassP12Il2CppObjectS0_
AZd:_Image_get_layoutPriority_m2151045813
Oij:__ZN15dense_hashtableINSt3__24pairIK10KeyWrapperIP11Il2CppClassES4_EES5_N6il2cpp8metadata16SZArrayClassHashEN14dense_hash_mapIS5_S4_SA_NS5_14EqualsComparerINS9_19SZArrayClassCompareEEENS0_9allocatorIS7_EEE9SelectKeyESE_SG_EC2EjRKSA_RKSE_RKSI_
nUf:__ZL58ManualResetEvent_t926074657_CustomAttributesCacheGeneratorP21CustomAttributesCache
H3h:__Z71RuntimeInvoker_Void_t1841601450_CornerU26_t4129226442_Int32_t2071877448PK10MethodInfoPvPS2_
E1e:_TextReader_Read_m975794707
$ic:__ZNSt3__24listIN10GUIManager12SortedScriptE11memory_poolIS2_EE6__sortI13OldSortScriptEENS_15__list_iteratorIS2_PvEESA_SA_jRT_
wTg:_UInt64_System_IConvertible_ToChar_m1930853313_AdjustorThunk
Kpf:_TlsClientCertificate_SendCertificates_m1096074091
dQd:_UIBehaviour_OnCanvasHierarchyChanged_m762109874
wud:_SyncHashtable_get_Item_m408601391
PRf:__ZL45DSA_t903174880_CustomAttributesCacheGeneratorP21CustomAttributesCache
DJe:_ReadOnlyCollection_1_System_Collections_IEnumerable_GetEnumerator_m1401363518_gshared
Zab:__ZNK9Behaviour26GetTypeInfoVirtualInternalEv
Kxe:_Stack_1_System_Collections_ICollection_CopyTo_m2104527616_gshared
IKg:_StringBuilder_AppendFormat_m1666670800
mZa:__ZN18DeferredRenderLoop13RenderGBufferEP13RenderTexturePS1_b8JobFencePK25DeferredRenderLoopScratchRi
YGb:__Z18Transfer_BlittableI17RemapPPtrTransferLb1E8BitFieldEvRK29SerializationCommandArgumentsR31RuntimeSerializationCommandInfo
Akj:__ZN6il2cpp6icalls8mscorlib6System9ThreadingL11ThreadStartEPv
_Z:__ZN15DirectorManager12OnSampleTimeEv
VLe:_ReadOnlyCollection_1_System_Collections_IList_Remove_m3878418841_gshared
E_d:_InputField_EnforceContentType_m1902926812
iA:__ZN8Animator13ClearBindingsEv
uca:__ZN12CachedReader10Align4ReadEv
IBc:__ZN15b2WorldManifold10InitializeEPK10b2ManifoldRK11b2TransformfS5_f
RGe:_Collection_1_CopyTo_m42272870_gshared
IZh:__Z154RuntimeInvoker_RaycastHit2D_t4063908774_Vector2_t2243707579_Vector2_t2243707579_Single_t2076509932_Int32_t2071877448_Single_t2076509932_Single_t2076509932PK10MethodInfoPvPS2_
Vlj:__ZN6il2cpp2vm9Exception28GetMarshalDirectiveExceptionEPKc
$4e:_MulticastDelegate_GetObjectData_m3187757658
kRd:_CanvasScaler_set_referencePixelsPerUnit_m1188599784
DMe:_ReadOnlyCollection_1_System_Collections_IList_get_Item_m887129009_gshared
IOe:_Comparison_1_EndInvoke_m179917407_gshared
xZb:__ZNK28MonoBehaviourPropertyBinding12SetPPtrValueERKN11UnityEngine9Animation10BoundCurveEi
tUa:__Z21GetScriptingArraySize17ScriptingArrayPtr
gHc:__ZN20TextRenderingPrivate8FontImpl8TransferI14SafeBinaryReadEEvRT_
f3h:__Z59RuntimeInvoker_Boolean_t3825574718_KeyValuePair_2_t38854645PK10MethodInfoPvPS2_
Vxi:__ZN23InterfaceActionInvoker1IP19LinkRef_t2090853131E6InvokeEjP11Il2CppClassP12Il2CppObjectS1_
sga:__Z35UnityPropertySheet_MakeSortedColorsRKNSt3__23mapIN9ShaderLab16FastPropertyNameE10ColorRGBAfNS_4lessIS2_EENS_9allocatorINS_4pairIKS2_S3_EEEEEER10vector_mapIS2_S3_S5_NS6_INS7_IS2_S3_EEEEE
Y_g:_GUIStyle_Draw_m4006459684
Gua:__ZN9GfxDevice17ImmediateTexCoordEifff
Jwi:_Parser_ParseRegularExpression_m2390577313
mPc:_ft_black_new
aAc:__ZN10ClipperLib7Clipper13AppendPolygonEPNS_5TEdgeES2_
jkd:_Array_double_swapper_m1175307080
j1f:__ZL102GameObject_t1756533147_CustomAttributesCacheGenerator_GameObject_Internal_CreateGameObject_m3428198595P21CustomAttributesCache
Sxi:_Alternation_AddAlternative_m623421443
UBf:_X509CertificateEnumerator_System_Collections_IEnumerator_Reset_m327358896
F9h:__Z36RuntimeInvoker_Enumerator_t402048720PK10MethodInfoPvPS2_
Yad:_Hash__ctor_m2554411450
LQe:_NumberFormatter_AppendDigits_m1308372770
heb:__ZN17FileSystemHandler4CopyER13FileEntryDataS1_
Fcd:_Single_System_IConvertible_ToDateTime_m2510003459_AdjustorThunk
zFd:_Delegate_RemoveImpl_m3666700529
EOj:_emscripten_glUniform4f__wrapper
Hvf:_NameObjectCollectionBase_OnDeserialization_m3478980442
pbi:_AnimatorControllerParameter_get_name_m1366583724
q_d:_InputField_set_caretColor_m2252440840
aB:__ZN8Animator8TransferI19StreamedBinaryWriteILb0EEEEvRT_
PVa:__ZNK6Camera16GetProjectionFarEv
$1a:__Z24InverseTransformRotationRK23TransformAccessReadOnlyRKN4math7_float4E
iTf:__ZL68SecurityCriticalAttribute_t2312050089_CustomAttributesCacheGeneratorP21CustomAttributesCache
Z2e:_MissingFieldException__ctor_m1161042282
r7d:_Array_InternalArray__IndexOf_TisSlot_t2267560602_m1912863273_gshared
soa:__ZN7Texture34CreateFileTextureUploadInstructionE18TextureUploadFlagsj
CFi:_StateMachineBehaviour_OnStateExit_m1490844990
uua:__ZN9GfxDevice21ResetDynamicResourcesEv
lQa:__ZN13ComputeShader14SetBufferParamEjRKN9ShaderLab16FastPropertyNameE15ComputeBufferID
FEj:__ZN6il2cpp2os9FastMutex4LockEv
ePe:_Comparison_1_EndInvoke_m4174686984_gshared
Atg:_StreamingContext__ctor_m3063421596_AdjustorThunk
ILe:_ReadOnlyCollection_1_System_Collections_Generic_IListU3CTU3E_Insert_m3054305464_gshared
aZb:__ZN19LowerResBlitTexture13ApplySettingsEv
kHf:__ZL70IntPtr_t_CustomAttributesCacheGenerator_IntPtr_op_Explicit_m3896766622P21CustomAttributesCache
VXi:__ZL25UnresolvedVirtualCall_128P12Il2CppObject17Color_t2020392075PK10MethodInfo
TA:__ZN8Animator8TransferI14SafeBinaryReadEEvRT_
yij:__ZN15dense_hashtableINSt3__24pairIK10KeyWrapperIP11Il2CppClassES4_EES5_N6il2cpp8metadata16SZArrayClassHashEN14dense_hash_mapIS5_S4_SA_NS5_14EqualsComparerINS9_19SZArrayClassCompareEEENS0_9allocatorIS7_EEE9SelectKeyESE_SG_E4swapERSJ_
Ffb:__ZN17GlobalGameManager23VirtualRedirectTransferER18StreamedBinaryReadILb0EE
I7d:_Array_InternalArray__IndexOf_TisTypeTag_t141209596_m2882894956_gshared
Ash:_Slider_get_value_m4182660424
Ttc:__ZNK14b2CapsuleShape5CloneEP16b2BlockAllocator
hx:__ZN17AnimationPlayable34CollectAnimatorControllerPlayablesER13dynamic_arrayIP26AnimatorControllerPlayableLj4EE
VN:__ZN16BaseVideoTexture19UpdateVideoTexturesEv
ejb:__Z28BuildSingleStreamChannelInfo17ShaderChannelMaskRK20VertexChannelsLayoutS_S2_P11ChannelInfo
HZh:__Z79RuntimeInvoker_RaycastHit2D_t4063908774_Vector2_t2243707579_Vector2_t2243707579PK10MethodInfoPvPS2_
Xma:__ZNK16LightmapSettings23HasLightProbeTetrahedraEv
Xof:_Context_get_WriteSequenceNumber_m243492531
Ypb:__ZN6Sprite23VirtualRedirectTransferER19StreamedBinaryWriteILb0EE
YMf:__ZL51Assembly_t4268412390_CustomAttributesCacheGeneratorP21CustomAttributesCache
Ged:_String_LastIndexOfAny_m1473637802
Jgc:__Z38Transform_CUSTOM_INTERNAL_set_positionP12Il2CppObjectRK8Vector3f
Zpe:_List_1_System_Collections_ICollection_CopyTo_m3062449209_gshared
Zbj:__ZNK15dense_hashtableINSt3__24pairIK10KeyWrapperINS1_IPK9FieldInfoP11Il2CppClassEEEjEES9_17ReflectionMapHashIS8_EN14dense_hash_mapIS9_jSD_NS9_14EqualsComparerINS0_8equal_toIS8_EEEENS0_9allocatorISB_EEE9SelectKeyESI_SK_E5beginEv
iea:__ZNK9ShaderLab7Program19HasMatchingVariantsERK13dynamic_arrayI16ShaderKeywordSetLj4EE
rt:__ZN15SerializeTraitsIN4math4trsXEE8TransferI8BlobSizeEEvRS1_RT_
Vxa:__ZN14DataBufferGLES11CopySubDataEPKS_jjj
me:_emscripten_glVertexPointer
jHa:__ZNSt3__26__treeI20DeviceDepthStateGLES11memcmp_lessIS1_S1_ENS_9allocatorIS1_EEE7destroyEPNS_11__tree_nodeIS1_PvEE
iYc:__ZN2UI13PrepareOutputERNS_7BatchesEjjNS_30AdditionalCanvasShaderChannelsE
koe:_List_1_System_Collections_Generic_ICollectionU3CTU3E_get_IsReadOnly_m1614481629_gshared
M5i:__ZN6il2cpp2vm7Runtime47RaiseExecutionEngineExceptionIfMethodIsNotFoundEPK10MethodInfo
VYa:__Z17GetFrustumPortionPK8Vector3fffPS_
LUg:_UnauthorizedAccessException__ctor_m259001183
Anj:__ZN15dense_hashtableINSt3__24pairIK10KeyWrapperIP14Il2CppIUnknownEjEES5_N6il2cpp5utils11PointerHashIS3_EEN14dense_hash_mapIS5_jSB_NS5_14EqualsComparerINS0_8equal_toIS4_EEEENS0_9allocatorIS7_EEE9SelectKeyESG_SI_E14squash_deletedEv
iHi:_TouchScreenKeyboard_set_text_m3456054179
oF:__Z96Register_UnityEngine_Experimental_Director_AnimatorControllerPlayable_INTERNAL_CALL_PlayInternalv
eUd:_DefaultControls_CreateDropdown_m1384069408
$Nd:_PointerEventData_get_clickCount_m4064532478
dKe:_ReadOnlyCollection_1_System_Collections_Generic_ICollectionU3CTU3E_get_IsReadOnly_m3508872969_gshared
mId:_EventArgs__cctor_m1350395667
y6g:_Rect_get_position_m24550734_AdjustorThunk
hPi:_UnityEvent_1_GetDelegate_m4062537313_gshared
xEi:_X509Stores_Open_m2057354563
SId:_CCGregorianCalendar_is_leap_year_m567513478
szf:_Oid_get_Value_m2271181078
Kkd:_Attribute_IsDefined_m2118467641
DQa:__ZN14GraphicsHelper8DrawQuadER9GfxDevice17ShaderChannelMaskbRK5RectTIfE
edf:_PrivateKeyInfo_Normalize_m3959595934
sxh:_InternalEnumerator_1_System_Collections_IEnumerator_get_Current_m3125080595_gshared
rEe:_Collection_1_System_Collections_IList_Add_m2091889616_gshared
N3b:__ZN16StreamedResource8TransferI24GenerateTypeTreeTransferEEvRT_
Ivc:__ZN11b2GearJoint4DumpEv
AVd:_DropdownItem_OnPointerEnter_m761897861
d_h:__Z75RuntimeInvoker_Int32_t2071877448_PlayableHandleU26_t3483893774_Il2CppObjectPK10MethodInfoPvPS2_
oEa:__ZN10Matrix3x3f15InvertTransposeEv
iaj:__ZNSt3__213__vector_baseIN6il2cpp2vm17TypeNameParseInfoENS_9allocatorIS3_EEED2Ev
y3d:_Array_InternalArray__ICollection_Remove_TisKeyValuePair_2_t1174980068_m2768765894_gshared
Pyb:__ZN24GenerateTypeTreeTransfer8TransferINSt3__26vectorIN4core12basic_stringIcNS3_20StringStorageDefaultIcEEEE13stl_allocatorIS7_L18MemLabelIdentifier12ELi16EEEEEEvRT_PKc17TransferMetaFlags
$Be:_Collection_1_set_Item_m2199807215_gshared
f1f:__ZL96GameObject_t1756533147_CustomAttributesCacheGenerator_GameObject_SendMessage_m71956653____value1P21CustomAttributesCache
hGb:__Z29Transfer_Blittable_ArrayFieldI14SafeBinaryRead8Vector3fEvRT_R9ArrayInfoRK23StaticTransferFieldInfo
ySg:_UInt32_System_IConvertible_ToBoolean_m91295134
ln:FUNCTION_TABLE_vfii
fNg:_Monitor_Monitor_test_synchronised_m1542589500
Z0f:__ZL85GameObject_t1756533147_CustomAttributesCacheGenerator_GameObject_get_layer_m725607808P21CustomAttributesCache
Vcg:__ZL68RuntimePlatform_t1869584967_CustomAttributesCacheGenerator_WP8PlayerP21CustomAttributesCache
aIc:__ZN20TextRenderingPrivate8FontImpl18ResetCachedTextureEv
FGf:__ZL75String_t_CustomAttributesCacheGenerator_String_Concat_m626692867____values0P21CustomAttributesCache
g1f:__ZL98GameObject_t1756533147_CustomAttributesCacheGenerator_GameObject_SendMessage_m71956653____options2P21CustomAttributesCache
Tdf:_SymmetricTransform_TransformFinalBlock_m4192185386
OSe:_TextInfo__ctor_m1263401274
oVg:_Version_get_Major_m3385239713
eRi:_ListPool_1_Release_m3047738410_gshared
gHi:_TouchScreenKeyboard_Open_m913506328
Hzj:_GC_print_finalization_stats
Lof:_Context_get_SecurityProtocolFlags_m3295551796
Lch:_ValueCollection__ctor_m927733289_gshared
$ca:__ZN11NamedObject15ThreadedCleanupEv
bxc:__ZNK12b2WheelJoint10GetAnchorBEv
eci:_LowMemoryCallback__ctor_m4181659636
cDh:_InternalEnumerator_1__ctor_m2981879621_AdjustorThunk
iac:__Z53Register_UnityEngine_Behaviour_get_isActiveAndEnabledv
cBb:__ZNK13MonoBehaviour26GetTypeInfoVirtualInternalEv
Qkh:_EqualityComparer_1__ctor_m3971803374_gshared
yq:__ZNSt3__26vectorIN4core12basic_stringIcNS1_20StringStorageDefaultIcEEEENS_9allocatorIS5_EEE8__appendEj
t8i:_il2cpp_gc_collect
hxb:__ZN26PlayerSettingsSplashScreen8TransferI17RemapPPtrTransferEEvRT_
MHc:__ZN20TextRenderingPrivate8FontImpl8TransferI17RemapPPtrTransferEEvRT_
VAh:_InternalEnumerator_1_get_Current_m3922357178_gshared
x6i:__ZN6il2cpp6icalls8mscorlib6SystemL17CollectTypeFieldsINS_5utils10functional10TrueFilterEEEvP11Il2CppClassPKS7_iRNSt3__26vectorIP9FieldInfoNSB_9allocatorISE_EEEERKT_
uhg:__ZL72ColorBlock_t2652774230_CustomAttributesCacheGenerator_m_HighlightedColorP21CustomAttributesCache
kQg:_Type_get_IsValueType_m1733572463
AZg:_GUISkin_get_horizontalScrollbarThumb_m4062590908
sXb:__Z13GetTagManagerv
hyh:_InternalEnumerator_1_Dispose_m1748410190_AdjustorThunk
VPh:__Z127RuntimeInvoker_Void_t1841601450_IntPtr_t_Int32_t2071877448_SByte_t454417549_Int32_t2071877448_SByte_t454417549_SByte_t454417549PK10MethodInfoPvPS2_
_3d:_Array_InternalArray__ICollection_Remove_TisUInt16_t986882611_m65494986_gshared
wKe:_ReadOnlyCollection_1_IndexOf_m3054637117_gshared
ju:__ZN11UnityEngine9Animation37HasGenericRootTransformPropertyValuesERKNS0_30AnimatorGenericBindingConstantEb
MO:__ZN11UnityEngine15CloudWebService17CloudJobSchedulerD0Ev
Bdd:_String_System_IConvertible_ToBoolean_m2696751322
zla:__ZN18LoadSceneOperation7PerformEv
rXg:_GUILayer_INTERNAL_CALL_HitTest_m693512502
vG:__ZL16FMOD_ErrorString11FMOD_RESULT_468
Jed:_String_LastIndexOfAny_m4281325295
_zc:__ZN10ClipperLib7Clipper14IntersectEdgesEPNS_5TEdgeES2_RNS_8IntPointE
VE:__Z113Register_UnityEngine_Experimental_Director_AnimatorControllerPlayable_INTERNAL_CALL_GetAnimatorControllerInternalv
OOg:_TimeSpan__ctor_m1888018443_AdjustorThunk
rud:_SyncHashtable_get_Count_m3694444082
laj:__ZNSt3__26vectorINS_12basic_stringIcNS_11char_traitsIcEENS_9allocatorIcEEEENS4_IS6_EEE8allocateEj
JFa:__ZN22VertexDeclarationCache5ClearEv
iUj:_emscripten_glUniform2i__wrapper
I5a:__ZN17PersistentManager12SetPathRemapERKN4core12basic_stringIcNS0_20StringStorageDefaultIcEEEES6_
z_a:__ZN6Camera24PrepareCullingParametersERK23CameraCullingParameters13RenderingPathR11CullResults
Lla:__ZN19RuntimeSceneManager22EndIntegrateMainThreadEP10UnitySceneNS_11LoadingModeE
RSf:__ZL84Evidence_t1407710183_CustomAttributesCacheGenerator_Evidence_GetHashCode_m1260371757P21CustomAttributesCache
nKe:_ReadOnlyCollection_1_System_Collections_ICollection_get_IsSynchronized_m2344337514_gshared
rHb:__Z26Transfer_UnityEngineObjectI17RemapPPtrTransferLb0EEvRK29SerializationCommandArgumentsR31RuntimeSerializationCommandInfo
Qed:_String_IsNullOrEmpty_m2802126737
vnd:_Byte_Parse_m1442736478
gwa:__ZN13GfxDeviceGLES15OnDeviceCreatedEb
KWe:_Int64_Parse_m3258022240
Aed:_String_IndexOfOrdinal_m3591623977
OGi:_Texture2D_get_whiteTexture_m1979591766
zvg:_CryptoConfig_EncodeLongNumber_m2352037787
QQg:_Type_GetMethod_m475234662
ldd:_Single_GetHashCode_m3102305584
hie:_KeyValuePair_2__ctor_m1877755778_AdjustorThunk
Spi:_ActivationServices_get_ConstructionActivator_m1726426854
oJb:__Z29Transfer_Blittable_ArrayFieldI24GenerateTypeTreeTransfer4AABBEvRT_R9ArrayInfoRK23StaticTransferFieldInfo
tVf:__ZL76Convert_t2607082565_CustomAttributesCacheGenerator_Convert_ToChar_m245844937P21CustomAttributesCache
OUf:__ZL52Activator_t1850728717_CustomAttributesCacheGeneratorP21CustomAttributesCache
JAj:_GC_adj_bytes_allocd
dth:_SpriteState_t1353336012_marshal_pinvoke_cleanup
h9d:_Array_InternalArray__ICollection_Add_TisKeyframe_t1449471340_m887263954_gshared
mIi:_UIVertex__cctor_m803910084
Hae:_Array_InternalArray__Insert_TisDateTime_t693205669_m1484996356_gshared
dqe:_List_1_System_Collections_IList_Remove_m3933652540_gshared
Nhh:_DefaultComparer_GetHashCode_m926674183_gshared
u$e:_MonoIO_get_ConsoleInput_m2976499023
HEg:_OpCode_get_Size_m481593949_AdjustorThunk
Nrd:_BitArrayEnumerator_checkVersion_m3839504595
_id:_Array_GetUpperBound_m1352329707
wMa:__ZZ23InitPlayerLoopCallbacksvEN36UpdateScriptRunBehaviourUpdatestruct7ForwardEv
Dfe:_Mesh_SetListForChannel_TisIl2CppObject_m2261448912_gshared
GXh:__Z61RuntimeInvoker_Void_t1841601450_Byte_t3683104436_Il2CppObjectPK10MethodInfoPvPS2_
led:_String_TrimEnd_m3153143011
WCd:_DateTimeOffset_Equals_m3728302791_AdjustorThunk
j0g:_GUIStyleState_t3801000545_marshal_pinvoke_back
GYa:__ZN20SphericalHarmonicsL219AddDirectionalLightERKN4math7_float3ERKNS0_7_float4E
LPg:_TimeSpan_op_GreaterThanOrEqual_m3997050520
kWf:__ZL77Convert_t2607082565_CustomAttributesCacheGenerator_Convert_ToUInt16_m36213644P21CustomAttributesCache
PZ:__Z26ScheduleJobForEachInternalR8JobFencePFvPvjES1_iPFvS1_E11JobPriority
Dzf:_OidEnumerator_MoveNext_m1889267785
H6b:__ZN9Scripting18RaiseMonoExceptionEPKcz
Bmb:__ZN9Texture2D8TransferI19StreamedBinaryWriteILb0EEEEvRT_
jAb:__ZN24RingBufferMemoryFileData6UnlockEPv
dZg:_GUISkin_set_box_m877476512
DVd:_OptionData__ctor_m3070653720
VQi:_TweenRunner_1_StartTween_m3792842064_gshared
F0b:__ZN9ShaderLab16FastPropertyName15InitBy28BitHashEj
Ncd:_Single_System_IConvertible_ToInt32_m3269519527_AdjustorThunk
OUi:__ZN6il2cpp2vm5Class7GetNameEP11Il2CppClass
E7c:_SHA1Internal_ProcessBlock_m4070037334
rCj:__ZN6il2cpp6icalls8mscorlib6System10Reflection14MonoMethodInfo15get_method_infoE12Il2CppIntPtrP16Il2CppMethodInfo
G1f:__ZL87RectOffset_t3387826427_CustomAttributesCacheGenerator_RectOffset_get_bottom_m4112328858P21CustomAttributesCache
Kbe:_Array_InternalArray__set_Item_TisDouble_t4078015681_m24756265_gshared
$og:_ObjRef_GetObjectData_m3081609242
FZb:__ZN13ProduceHelperIN2UI13RectTransformELb0EE7ProduceE18MemLabelIdentifier18ObjectCreationMode
Zrb:__ZN17PackedFloatVector12UnpackFloatsEPfiiii
zTf:__ZL113EncoderReplacementFallback_t4228544112_CustomAttributesCacheGenerator_EncoderReplacementFallback__ctor_m517300448P21CustomAttributesCache
LHe:_ReadOnlyCollection_1__ctor_m3671019970_gshared
Jv:__ZN17AnimationPlayable28UpdateInternalStateRecursiveILi3ELb0EEEvPK35AnimationPlayableEvaluationConstant
zva:__ZN13GfxDeviceGLES21DestroyComputeProgramER12ObjectHandleI18ComputeProgram_TagPvE
ayd:_Convert_ToDecimal_m2007036836
E5:__ZN17UniqueIDGenerator16DestroyPureIndexEj
g2:__ZL21AppendNestedClassName17ScriptingClassPtrRN4core17string_with_labelILi1EEE
OQb:__ZN14SafeBinaryRead21TransferSTLStyleArrayINSt3__26vectorIN9ShaderLab20SerializedSubProgram12UAVParameterENS1_9allocatorIS5_EEEEEEvRT_17TransferMetaFlags
Zri:_Context_NotifyDynamicSinks_m1367144344
AT:__ZNK13BaseAllocator10IsAssignedEv
VP:__ZN24TextDOMTransferWriteBaseI9JSONWriteE12PushMetaFlagEi
UJh:__Z45RuntimeInvoker_Int16_t4041245914_Il2CppObjectPK10MethodInfoPvPS2_
jDi:_X509Certificate_GetSubjectName_m1189079906
ynf:_TlsClientCertificateVerify__ctor_m110646389
Pja:__ZN6prcoreL26RemapGenericIntegerToFloatI17TexFormatARGB888815TexFormatRFloatEEvPKNS_9InnerInfoE
qT:__ZN5Mutex6UnlockEv
gsi:_Context_GetServerContextSinkChain_m390126977
_9i:__ZN6il2cpp2vm17TypeNameParseInfoD2Ev
Fde:_Array_Sort_TisIl2CppObject_m143182644_gshared
kbg:__ZL89GUIStyle_t1799908754_CustomAttributesCacheGenerator_GUIStyle_set_imagePosition_m327170707P21CustomAttributesCache
f1e:_StringReader_Read_m513112775
job:__ZNK8Renderer8GetLayerEv
_xe:_Collection_1_System_Collections_IList_Insert_m266942173_gshared
cib:__ZN12FlareManager11DeleteFlareEi
Dze:_Collection_1_Add_m2613548553_gshared
bA:__ZN7mecanim9animation22DestroyBlendTreeOutputEPNS0_15BlendTreeOutputERNS_6memory9AllocatorE
aVa:__ZNK6Camera20GetReplacementShaderEv
lQj:_glProgramBinary__wrapper
GDd:_Decimal__ctor_m569480123_AdjustorThunk
WJa:__ZN12HandlerChain11MoveToTrashER13FileEntryData
Qwf:_HttpWebRequest__cctor_m3013631978
PDj:__ZNSt3__26__treeINS_12__value_typeINS_12basic_stringIcNS_11char_traitsIcEENS_9allocatorIcEEEEPFvvEEENS_19__map_value_compareIS7_SA_NS_4lessIS7_EELb1EEENS5_ISA_EEE4findIS7_EENS_15__tree_iteratorISA_PNS_11__tree_nodeISA_PvEEiEERKT_
WQb:__ZNSt3__26vectorIN9ShaderLab20SerializedSubProgram14ConstantBufferENS_9allocatorIS3_EEE7reserveEj
Fna:__ZL23stbir__calculate_memoryP11stbir__info
wWh:__Z90RuntimeInvoker_Boolean_t3825574718_Int32_t2071877448_Int32U26_t455636984_Int32_t2071877448PK10MethodInfoPvPS2_
rdj:__ZNK15dense_hashtableINSt3__24pairIK10KeyWrapperINS1_IPK10MethodInfoP11Il2CppClassEEEjEES9_17ReflectionMapHashIS8_EN14dense_hash_mapIS9_jSD_NS9_14EqualsComparerINS0_8equal_toIS8_EEEENS0_9allocatorISB_EEE9SelectKeyESI_SK_E12test_deletedERK24dense_hashtable_iteratorISB_S9_SD_SM_SI_SK_E
HLf:__ZL90BinaryReader_t2491843768_CustomAttributesCacheGenerator_BinaryReader_ReadSByte_m1712621355P21CustomAttributesCache
qph:_Scrollbar_FindSelectableOnRight_m3219495255
iyb:__ZNK30RuntimeInitializeOnLoadManager26GetTypeInfoVirtualInternalEv
LWc:__ZNSt3__227__insertion_sort_incompleteIRPFbPN2UI6CanvasES3_EPS3_EEbT0_S8_T_
otc:__ZNK9rapidjson12GenericValueINS_4UTF8IcEE13JSONAllocatorE6AcceptINS_12PrettyWriterI16TempBufferWriterS2_S2_S3_EEEEbRT_
rae:_Array_InternalArray__ICollection_CopyTo_TisVector3_t2243707580_m509487340_gshared
fnc:__Z59Register_UnityEngine_GUIUtility_Internal_GetKeyboardControlv
amf:_CipherSuite_get_KeyBlockSize_m2993514247
TE:__Z82AnimatorControllerPlayable_CUSTOM_INTERNAL_CALL_IsParameterControlledByCurveStringR9HPlayableP12Il2CppString
src:__ZL26Transfer_SimpleNativeClassI8JSONRead10RectOffsetLb1EEvRK29SerializationCommandArgumentsR31RuntimeSerializationCommandInfo
TZc:__Z44CanvasRenderer_CUSTOM_INTERNAL_CALL_SetColorP12Il2CppObjectRK10ColorRGBAf
izj:_GC_should_collect
eqi:_UrlAttribute_Equals_m1587451932
Vuj:__ZNSt3__26__treeINS_12basic_stringIcNS_11char_traitsIcEENS_9allocatorIcEEEENS_4lessIS6_EENS4_IS6_EEE12__find_equalIS6_EERPNS_16__tree_node_baseIPvEESG_RKT_
Joc:__Z18Transfer_BlittableI9JSONWriteLb1EsEvRK29SerializationCommandArgumentsR31RuntimeSerializationCommandInfo
Szc:__ZN10ClipperLib8JoinHorzEPNS_5OutPtES1_S1_S1_NS_8IntPointEb
yXi:__ZL25UnresolvedVirtualCall_105P12Il2CppObjectS0_aPK10MethodInfo
$Ue:_Int16_ToString_m4099416068_AdjustorThunk
Bwg:_DSAParameters_t1872138834_marshal_pinvoke_cleanup
bda:__ZN6ObjectD2Ev
Z8b:__ZN9Transform16SetLocalRotationERK11Quaternionf
Wwd:_DateTime_Parse_m1628430317
fPa:__ZN13RenderManager37RenderCamerasWithScriptableRenderLoopEi
uaf:_ASN1_Element_m2600236165
lX:__GLOBAL__sub_I_runtime_graphics5_lump_cpp
S6:__ZN23InstancedPropInfoStaticL16RegisterCallbackEPv
k9h:__Z37RuntimeInvoker_Enumerator_t2983962278PK10MethodInfoPvPS2_
Bt:__ZN7mecanim8skeleton25SkeletonPoseComputeLocalQEPKNS0_8SkeletonEPKNS0_13SkeletonPoseTIN4math4trsXEEEPS7_ii
Dui:_MethodCall_Init_m3987198685
tqj:__ZN6il2cpp2os19ReleaseSocketHandleEj
OSf:__ZL59ApplicationTrust_t3968282840_CustomAttributesCacheGeneratorP21CustomAttributesCache
_Jf:__ZL128SafeHandleZeroOrMinusOneIsInvalid_t1177681199_CustomAttributesCacheGenerator_SafeHandleZeroOrMinusOneIsInvalid__ctor_m3340306667P21CustomAttributesCache
Bwj:__ZN15dense_hashtableINSt3__24pairIK10KeyWrapperIPK19Il2CppGenericMethodEP10MethodInfoEES6_N6il2cpp8metadata23Il2CppGenericMethodHashEN14dense_hash_mapIS6_S9_SD_NS6_14EqualsComparerINSC_26Il2CppGenericMethodCompareEEENS0_9allocatorISA_EEE9SelectKeyESH_SJ_E5clearEv
_Eg:_TypeBuilder_GetPropertyImpl_m1854119335
AAg:_TypeBuilder_get_next_table_index_m1415870184
$Kj:___cxa_can_catch
Cif:_SequentialSearchPrimeGeneratorBase_GenerateNewPrime_m296245934
Aod:_Char_GetUnicodeCategory_m4273361321
h3h:__Z68RuntimeInvoker_Boolean_t3825574718_Il2CppObject_ObjectU26_t597476745PK10MethodInfoPvPS2_
uVa:__ZN6Camera28DefaultPerformRenderFunctionD0Ev
M2e:_Math_Round_m565516458
Qri:_Identity_get_ClientDynamicProperties_m767245959
qxh:_InternalEnumerator_1__ctor_m675130983_AdjustorThunk
Qdh:_Dictionary_2_Clear_m899854001_gshared
Nsj:__ZN6il2cpp2os5posix15PosixWaitObjectC2ENS2_4TypeE
Lzb:__Z23AppendPathNameExtensionRKN4core12basic_stringIcNS_20StringStorageDefaultIcEEEES5_
d9f:__ZL83Canvas_t209405766_CustomAttributesCacheGenerator_Canvas_get_scaleFactor_m1115379735P21CustomAttributesCache
REg:_TypeBuilder_create_generic_class_m986834171
hWi:__ZL24UnresolvedVirtualCall_34P12Il2CppObjectS0_PK10MethodInfo
BQj:_emscripten_glVertexPointer__wrapper
Mqa:__ZN23ShaderVariantCollection13WarmupShadersEv
Kof:_Context_set_ProtocolNegotiated_m1177527245
Oli:_AnimatorControllerPlayable_INTERNAL_CALL_GetAnimatorTransitionInfoInternal_m2259454958
CSg:_UInt32_System_IConvertible_ToChar_m1056040486
mhe:_ScriptableObject_CreateInstance_TisIl2CppObject_m926060499_gshared
ruf:_TlsStream_get_Length_m1562309511
$la:__Z27scripting_gc_collect_unsafei
EN:__ZN11AudioModule20SuspendVideoTexturesEv
Qrd:_CaseInsensitiveComparer__ctor_m1125492797
b0b:__ZN12CubemapArrayC2E18MemLabelIdentifier18ObjectCreationMode
Bwd:_Convert_ToByte_m395020137
NIb:__Z26Transfer_UnityEngineObjectI24GenerateTypeTreeTransferLb0EEvRK29SerializationCommandArgumentsR31RuntimeSerializationCommandInfo
CSc:_UNITY_FT_GlyphLoader_CheckPoints
Qse:_List_1_System_Collections_ICollection_CopyTo_m1995866425_gshared
Fxc:__ZN16b2PolygonContact7DestroyEP9b2ContactP16b2BlockAllocator
W1e:_TextWriter_WriteLine_m1754475888
_hb:__ZN15SharedLightData7PrecalcEv
Kma:__ZN10Matrix4x4fmLERKS_
aNi:_InvokableCall_1_Invoke_m769918017_gshared
Wp:__ZN4PPtrI9TransformE8TransferI18StreamedBinaryReadILb0EEEEvRT_
kge:_Array_InternalArray__get_Item_TisDouble_t4078015681_m2215331088_gshared
XSf:__ZL57PrincipalPolicy_t289802916_CustomAttributesCacheGeneratorP21CustomAttributesCache
Qbb:__ZN19StreamedBinaryWriteILb0EE19TransferSTLStyleMapINSt3__28multimapIN4core12basic_stringIcNS4_20StringStorageDefaultIcEEEEN11AssetBundle9AssetInfoENS2_4lessIS8_EENS2_9allocatorINS2_4pairIKS8_SA_EEEEEEEEvRT_17TransferMetaFlags
jDe:_Collection_1_ClearItems_m3446813399_gshared
Idh:_Dictionary_2_Init_m3666073812_gshared
gue:_List_1_AsReadOnly_m1681105545_gshared
ZKa:__ZN15ArchiveReadFileD0Ev
Mdf:_SymmetricTransform_TransformBlock_m1524716432
N6:__ZN18ConcurrentFreeListI28FileTextureUploadInstructionE7CleanUpEv
n6d:_Array_compare_TisColor32_t874517518_m3842009370_gshared
P0c:__ZN11UnityEngine15PlatformWrapper18GetOperatingSystemEv
QAa:__ZNSt3__26vectorIP14DataBufferGLESNS_9allocatorIS2_EEE21__push_back_slow_pathIKS2_EEvRT_
oFh:_InternalEnumerator_1__ctor_m2458691472_AdjustorThunk
PMe:_ReadOnlyCollection_1_System_Collections_Generic_ICollectionU3CTU3E_Remove_m974176789_gshared
dFd:_Delegate_return_type_match_m4278947849
e0d:_InputField_GenerateHightlight_m1346735465
$zi:_Uri_ParseNoExceptions_m1151989845
Uvd:_GC_SuppressFinalize_m953228702
ySc:_FT_MSB
ltf:_InternalAsyncResult_get_ProceedAfterHandshake_m552962842
R$g:_GUIStyle_get_clipping_m2754700641
ejj:__ZN15dense_hashtableINSt3__24pairIK10KeyWrapperINS1_IP11Il2CppClassjEEES4_EES6_N6il2cpp8metadata14ArrayClassHashEN14dense_hash_mapIS6_S4_SB_NS6_14EqualsComparerINSA_17ArrayClassCompareEEENS0_9allocatorIS8_EEE9SelectKeyESF_SH_E3endEv
MTh:__Z50RuntimeInvoker_SByte_t454417549_Double_t4078015681PK10MethodInfoPvPS2_
Jag:__ZL72GUISkin_t1436893342_CustomAttributesCacheGenerator_m_verticalSliderThumbP21CustomAttributesCache
qEj:__ZN6il2cpp6icalls8mscorlib4Mono8Security12Cryptography18KeyPairPersistence10_CanSecureEP12Il2CppString
evh:_Action_1_Invoke_m4180501989_gshared
ish:_Slider__ctor_m3124136916
$Gh:_DefaultComparer__ctor_m3180706193_gshared
Jue:_List_1_System_Collections_Generic_IEnumerableU3CTU3E_GetEnumerator_m3625278020_gshared
msa:__ZN13GfxDeviceGLES14SetRasterStateEPK17DeviceRasterState
cxa:__ZNK13TranslateGLES11BlendFactorE9BlendMode
oEb:__Z30TransferField_LinearCollectionI14SafeBinaryReadEvRK29SerializationCommandArgumentsR31RuntimeSerializationCommandInfo
W_d:_InputField_set_caretPositionInternal_m231166704
bIi:_Transform_InverseTransformPoint_m2648491174
eof:_TlsServerHello__ctor_m3032108168
Nba:__ZN14SafeBinaryRead11EndTransferEv
BMf:__ZL98ILGenerator_t99948092_CustomAttributesCacheGenerator_ILGenerator_Mono_GetCurrentOffset_m3553856682P21CustomAttributesCache
aT:__ZNK3WWW12GetAudioClipEv
DEb:__ZN14SafeBinaryRead8TransferI8MonoPPtrEEvRT_PKc17TransferMetaFlags
Wfh:_Dictionary_2_System_Collections_Generic_ICollectionU3CSystem_Collections_Generic_KeyValuePairU3CTKeyU2CTValueU3EU3E_Remove_m1705959559_gshared
vLa:__ZN24dense_hashtable_iteratorINSt3__24pairIKN4core12basic_stringIcNS2_20StringStorageDefaultIcEEEEP20ArchiveStorageReaderEES6_20StringHash32FunctionIS6_EN14dense_hash_mapIS6_S9_SC_NS0_8equal_toIS6_EE13stl_allocatorISA_L18MemLabelIdentifier54ELi16EEE9SelectKeyESF_SI_EppEv
YEh:_InternalEnumerator_1_System_Collections_IEnumerator_get_Current_m1533037706_gshared
d3f:__ZL111MonoBehaviour_t1158329972_CustomAttributesCacheGenerator_MonoBehaviour_StartCoroutine_Auto_Internal_m1014513456P21CustomAttributesCache
YDa:__ZN21UniformBufferTFMethod13MapBoneBufferEj
Wrf:_RecordProtocol_SendChangeCipherSpec_m3542001341
tce:_Array_InternalArray__set_Item_TisVector3_t2243707580_m1390667454_gshared
Hic:__ZN12GUIClipState10BeginOnGUIER10InputEvent
Ykj:__ZNSt3__26vectorIcNS_9allocatorIcEEEC2Ej
ddc:__Z40Register_UnityEngine_Input_GetKeyDownIntv
Jbf:_KeyPairPersistence_CanSecure_m2251009700
ZLa:__ZZ23InitPlayerLoopCallbacksvEN27FixedUpdateClearLinesstruct7ForwardEv
OAb:__ZN9TextAsset15ThreadedCleanupEv
Vng:_ReturnMessage_get_Properties_m531965085
BCg:_GenericTypeParameterBuilder_IsSubclassOf_m563999142
DId:_Exception_ToString_m627574695
HIc:__ZNSt3__26vectorIN20TextRenderingPrivate8FontImpl7IntRectE13stl_allocatorIS3_L18MemLabelIdentifier34ELi16EEE21__push_back_slow_pathIKS3_EEvRT_
QZ:__Z21CompleteFenceInternalR8JobFence
mkc:__Z30Event_Get_Custom_PropModifiersP12Il2CppObject
acj:__ZN30dense_hashtable_const_iteratorINSt3__24pairIK10KeyWrapperINS1_IPK9FieldInfoP11Il2CppClassEEEjEES9_17ReflectionMapHashIS8_EN14dense_hash_mapIS9_jSD_NS9_14EqualsComparerINS0_8equal_toIS8_EEEENS0_9allocatorISB_EEE9SelectKeyESI_SK_E30advance_past_empty_and_deletedEv
mgh:_Dictionary_2_ContainsValue_m2375979648_gshared
vx:__ZN7mecanim9animation16CreateClipOutputEPKNS0_4ClipERNS_6memory9AllocatorE
su:__ZN7mecanim9animation23ClearAnimationNodeStateEPNS0_18AnimationNodeStateEb
Iae:_Array_InternalArray__Insert_TisDecimal_t724701077_m1429254816_gshared
pRi:_ListPool_1_Get_m2998644518_gshared
HOb:__ZN18StreamedBinaryReadILb0EE21TransferSTLStyleArrayI13dynamic_arrayIyLj8EEEEvRT_17TransferMetaFlags
_za:__ZN18AsyncUploadManager17DoScaledPaddedJobEP28FileTextureUploadInstruction
pqa:__ZNSt3__218__stable_sort_moveIRN10vector_mapI17ScriptingClassPtrPKN5Unity4TypeENS_4lessIS2_EENS_9allocatorINS_4pairIS2_S6_EEEEE13value_compareENS_11__wrap_iterIPSB_EEEEvT0_SJ_T_NS_15iterator_traitsISJ_E15difference_typeEPNSM_10value_typeE
IPb:__ZN6Shader21AwakeFromLoadThreadedEv
Qia:__ZN6prcoreL17RemapGenericFloatI17TexFormatRGBFloat17TexFormatRGBAHalfEEvPKNS_9InnerInfoE
Uig:__ZL70InputField_t1631627530_CustomAttributesCacheGenerator_m_CharacterLimitP21CustomAttributesCache
yve:_List_1_get_Capacity_m2443158653_gshared
$sc:__ZN8JSONRead21TransferSTLStyleArrayI13dynamic_arrayI8Vector2fLj4EEEEvRT_18MemLabelIdentifier17TransferMetaFlags
z1g:_LayerMask_op_Implicit_m2135076047
V3c:__ZN13RuntimeStaticINSt3__26vectorIjNS0_9allocatorIjEEEELb0EE16StaticInitializeEPv
uFj:__ZN6il2cpp2os9SemaphoreC2Eii
oxh:_InternalEnumerator_1_get_Current_m2960188445_AdjustorThunk
FEb:__ZNSt3__26vectorI8MonoPPtr13stl_allocatorIS1_L18MemLabelIdentifier1ELi16EEE8__appendEj
Jth:_Text_set_alignByGeometry_m1514652028
GTa:__ZN14qsort_internal30FindAndMovePivotToLastPositionIP17RODataReplacementi19ROSorterReplacementEEvT_S4_T0_T1_
hEa:__ZN15UniformTFMethod20IsBoneCountSupportedEi
H9c:_X509Certificate_GetExpirationDateString_m2351894475
UZe:_FileStream_get_Position_m465478322
H0i:__ZN14dense_hash_setI10KeyWrapperIPK19Il2CppGenericMethodEN6il2cpp8metadata23Il2CppGenericMethodHashENS4_14EqualsComparerINS6_26Il2CppGenericMethodCompareEEENSt3__29allocatorIS4_EEEC2EjRKS7_RKSA_
TMj:dynCall_viidi
Mae:_Array_InternalArray__Insert_TisInt64_t909078037_m3039874636_gshared
Kld:_Convert_ToInt16_m1787678274
tuh:_ToggleGroup_NotifyToggleOn_m997426227
esf:_RSASslSignatureDeformatter_SetKey_m1150106904
X9f:__ZL74Event_t3028476042_CustomAttributesCacheGenerator_Event_Cleanup_m1195902101P21CustomAttributesCache
aZ:__ZN24ScriptingMethodFiltering17FilterOnSignatureENS_18MethodSearchFilterE
Tzg:_TypeBuilder_get_Module_m1668298460
aph:_Scrollbar_ClickRepeat_m3403943364
WM:__ZN13ProduceHelperI9AudioClipLb0EE7ProduceE18MemLabelIdentifier18ObjectCreationMode
FU:__ZN18ScreenManagerWebGL13SetLockCursorE14CursorLockMode
WRc:_cf2_arrstack_finalize
r4e:_MonoType_GetMethodsByName_m1854415088
JAg:_DerivedType_GetMethods_m165266904
rdf:_RSAManaged_EncryptValue_m4089823119
qZb:__ZN13MonoBehaviour19HandleNotificationsEPviR11MessageData
XFj:__ZN6il2cpp2os9EventImpl5ResetEv
ahh:_DefaultComparer_GetHashCode_m926363525_gshared
z_g:_GUIStyle_set_focused_m1547304893
aqh:_ScrollRect_get_verticalScrollbar_m2455612493
u0h:__Z69RuntimeInvoker_Void_t1841601450_Int32_t2071877448_HitInfo_t1761367055PK10MethodInfoPvPS2_
eda:__ZNK11NamedObject26GetTypeInfoVirtualInternalEv
I_e:_ReadDelegate_Invoke_m2091885836
SBg:_TypeBuilder_GetField_m2112455315
LPj:b58
MPj:b59
tPj:b52
uPj:b53
rPj:b50
C1h:__Z51RuntimeInvoker_Vector4_t2243707581_SByte_t454417549PK10MethodInfoPvPS2_
JPj:b56
KPj:b57
FPj:b54
IPj:b55
n9e:_Kernel_Multiply_m3585610531
Dlf:_CertificateSelectionCallback_EndInvoke_m3525317639
OLh:__Z67RuntimeInvoker_Void_t1841601450_Int32_t2071877448_Int16_t4041245914PK10MethodInfoPvPS2_
bBd:_DateTime__ctor_m3604679583_AdjustorThunk
U4f:__ZL96Transform_t3275118058_CustomAttributesCacheGenerator_Transform_INTERNAL_get_position_m1881704498P21CustomAttributesCache
pkd:_SimpleEnumerator_Reset_m1341779532
vaj:__ZNSt3__214__split_bufferINS_12basic_stringIcNS_11char_traitsIcEENS_9allocatorIcEEEERNS4_IS6_EEEC2EjjS8_
Gcf:_MACAlgorithm_Core_m2390605245
aEh:_InternalEnumerator_1_System_Collections_IEnumerator_get_Current_m30488070_gshared
kYb:__ZN10GameObject12CleanupClassEv
JAh:_InternalEnumerator_1_System_Collections_IEnumerator_Reset_m2624612805_AdjustorThunk
ZIf:__ZL108ArrayReadOnlyList_1_t3367196019_CustomAttributesCacheGenerator_ArrayReadOnlyList_1_GetEnumerator_m3031680693P21CustomAttributesCache
Voi:_DllImportAttribute__ctor_m1165454237
Rsa:__ZN9GfxDevice25SetShaderPropertiesSharedERK19ShaderPropertySheet
nQi:_IndexedSet_1_GetEnumerator_m3646001838_gshared
uAb:__ZN10MonoScript17MainThreadCleanupEv
mza:__ZN18AsyncUploadManager19AsyncResourceUploadER9GfxDeviceii9TextureID
wnh:_VertexHelper_AddUIVertexTriangleStream_m4009409241
HHh:_Comparer_1__ctor_m844571340_gshared
n1b:__ZL25InitializeDefaultMaterialv
Feb:__ZN21ArchiveStorageCreatorD2Ev
FOg:_WaitHandle_Dispose_m441403862
zIa:__ZN19FileAccessorHandlerD2Ev
pIh:_Comparer_1__ctor_m2941434245_gshared
Xuh:_VertexHelper_AddVert_m3290455716
ASf:__ZL56SHA256Managed_t2029745292_CustomAttributesCacheGeneratorP21CustomAttributesCache
xMf:__ZL126GenericTypeParameterBuilder_t1370236603_CustomAttributesCacheGenerator_GenericTypeParameterBuilder_MakeGenericType_m2955814622P21CustomAttributesCache
xpa:__ZN17PersistentManager12UnloadStreamERKN4core12basic_stringIcNS0_20StringStorageDefaultIcEEEEb
wU:__ZN13ScreenManager17RequestResolutionEiibi
Wvg:_DESTransform__ctor_m4096028381
E8i:_il2cpp_unity_liveness_calculation_from_statics
fOg:_Scheduler_get_Instance_m1989471839
bYh:__Z61RuntimeInvoker_Void_t1841601450_CullingGroupEvent_t1057617917PK10MethodInfoPvPS2_
Hyf:_WebRequest_System_Runtime_Serialization_ISerializable_GetObjectData_m3377822910
Mob:__ZN8Renderer8TransferI17RemapPPtrTransferEEvRT_
ACe:_Collection_1_Contains_m1299140035_gshared
HPj:_glBlitFramebuffer__wrapper
Mhe:_ExecuteEvents_ExecuteHierarchy_TisIl2CppObject_m2541874163_gshared
m9d:_Array_InternalArray__ICollection_Add_TisUICharInfo_t3056636800_m968274080_gshared
xRi:_ObjectPool_1__ctor_m1532275833_gshared
Qva:__ZN13GfxDeviceGLES19SetSinglePassStereoE16SinglePassStereo
SWi:__ZL24UnresolvedVirtualCall_71P12Il2CppObjectS0_S0_iS0_S0_S0_PK10MethodInfo
dHf:__ZL64IntPtr_t_CustomAttributesCacheGenerator_IntPtr__ctor_m3803259710P21CustomAttributesCache
mue:_List_1_GetIndex_m3262928832_gshared
Dpi:_SafeHandle_DangerousRelease_m2167699172
G1a:__Z24LookRotationToQuaternionRK8Vector3fS1_P11Quaternionf
E1a:__ZN16ReflectionProbes9GetCameraEv
XTb:__ZL18IsGpuProgramUsable20ShaderGpuProgramTypePK6Shader
Vgf:_ArgumentException__ctor_m2105824819
UYc:__ZN2UI6Canvas17SetSortingLayerIDEi
NQd:_BaseMeshEffect_get_graphic_m3358796463
Ksj:__ZN6il2cpp2vm11MethodStack23CleanupForCurrentThreadEv
LLi:_Predicate_1_Invoke_m695569038_gshared
Uie:_Enumerator_VerifyState_m825848279_AdjustorThunk
Hib:__ZN20TierGraphicsSettings8TransferI24GenerateTypeTreeTransferEEvRT_
$Fb:__ZN14SafeBinaryRead21TransferSTLStyleArrayI13dynamic_arrayI4AABBLj4EEEEvRT_17TransferMetaFlags
nga:__ZN18UnityPropertySheet8TransferI19StreamedBinaryWriteILb0EEEEvRT_
sqf:_TlsServerCertificate_checkServerIdentity_m3836435780
F7:__ZNSt3__26__treeINS_12__value_typeIiN11TypeManager18TypeCallbackStructEEENS_19__map_value_compareIiS4_NS_4lessIiEELb1EEENS_9allocatorIS4_EEE7destroyEPNS_11__tree_nodeIS4_PvEE
tef:_PKCS12_Decrypt_m2353135969
iji:_PersistentCallGroup_Initialize_m3908067069
dHg:_MonoEvent_ToString_m386956596
Rcg:__ZL70RuntimePlatform_t1869584967_CustomAttributesCacheGenerator_FlashPlayerP21CustomAttributesCache
rAb:__ZN39AssetBundleLoadFromStreamAsyncOperationC2ERKN4core12basic_stringIcNS0_20StringStorageDefaultIcEEEE
iOd:_PointerEventData_get_pointerPress_m880101744
Tca:__ZL19GetCameraTargetRectRK6Camerabb
Dah:_Transform_1_BeginInvoke_m1786442111_gshared
EUe:_Int32_GetFormatException_m1729046182
tye:_Collection_1_get_Count_m3834276648_gshared
Y9a:__ZN21UnityDefaultAllocatorI17LowLevelAllocatorE10DeallocateEPv
aX:__GLOBAL__sub_I_runtime_camera2_lump_cpp
vr:__ZN15PackedIntVector8TransferI14SafeBinaryReadEEvRT_
CFg:_FieldInfo_get_IsLiteral_m267898096
zAa:__ZN17SharedTextureDataD0Ev
stf:_SslStreamBase_EndNegotiateHandshake_m1732321201
Pah:_Transform_1_BeginInvoke_m1167293475_gshared
PH:__ZN13AudioListener8DoUpdateEv
cGf:__ZL71SByte_t454417549_CustomAttributesCacheGenerator_SByte_Parse_m1620039654P21CustomAttributesCache
wwd:__Z13bankers_roundd
cqb:__ZN14SafeBinaryRead8TransferI5RectTIfEEEvRT_PKc17TransferMetaFlags
wi:_emscripten_glGenFramebuffers
Ctd:_Hashtable_CopyTo_m2778915805
A7:__ZN17BaseObjectManager16StaticInitializeEPv
Zzg:_ConstructorBuilder_get_IsCompilerContext_m2796899803
a0f:__ZL97Component_t3819376471_CustomAttributesCacheGenerator_Component_GetComponentsInChildren_m843288020P21CustomAttributesCache
I8h:__Z37RuntimeInvoker_UICharInfo_t3056636800PK10MethodInfoPvPS2_
a7d:_Array_IndexOf_TisUIVertex_t1204258818_m613887160_gshared
byb:__ZN18StreamedBinaryReadILb0EE19TransferSTLStyleMapINSt3__28multimapIN4core12basic_stringIcNS4_20StringStorageDefaultIcEEEE4PPtrI6ObjectENS2_4lessIS8_EE13stl_allocatorINS2_4pairIKS8_SB_EEL18MemLabelIdentifier51ELi16EEEEEEvRT_17TransferMetaFlags
KTd:_FloatTween_GetDuration_m1757342579_AdjustorThunk
Xwd:_DateTime_CoreParse_m2014268103
Qre:_List_1__ctor_m3698273726_gshared
DCc:__ZN24ParticleIntersectQuery2D18ReportFixtureProxyEPK14b2FixtureProxy
ipc:__Z18Transfer_BlittableI9JSONWriteLb0EyEvRK29SerializationCommandArgumentsR31RuntimeSerializationCommandInfo
Zca:__ZN13RenderTexture15ThreadedCleanupEv
flb:__ZN12CubemapArray23VirtualRedirectTransferER14SafeBinaryRead
Bvg:_CryptographicException__ctor_m1012314467
WMe:_ReadOnlyCollection_1_System_Collections_IList_Add_m616574295_gshared
FUe:_Int32_ProcessTrailingWhitespace_m2812079777
hma:__ZN18ProceduralMaterial9ReloadAllEbb
ffc:__Z43RectTransform_CUSTOM_INTERNAL_set_sizeDeltaP12Il2CppObjectRK13Vector2fIcall
vyf:_WebProxy__ctor_m3679722173
Hzh:_InternalEnumerator_1_Dispose_m2743309309_AdjustorThunk
Zqj:__ZN15dense_hashtableINSt3__24pairIK10KeyWrapperINS1_IPKcS4_EEEiEES6_24NamespaceAndNamePairHashN14dense_hash_mapIS6_iS9_NS6_14EqualsComparerI26NamespaceAndNamePairEqualsEENS0_9allocatorIS8_EEE9SelectKeyESD_SF_E6insertERKS8_
hca:__ZN24GenerateTypeTreeTransfer18BeginArrayTransferEPKcS1_Ri17TransferMetaFlags
tza:__Z16DecompressCrunchPKhRjR13TextureFormatiiii18MemLabelIdentifier
Awe:_List_1__ctor_m2082969060_gshared
om:___syscall51
sm:___syscall54
Urj:__ZNSt3__26__treeINS_12__value_typeIP24Il2CppReflectionAssemblyPvEENS_19__map_value_compareIS3_S5_NS_4lessIS3_EELb1EEENS_9allocatorIS5_EEE12__find_equalIS3_EERPNS_16__tree_node_baseIS4_EESH_RKT_
bKh:__Z107RuntimeInvoker_Boolean_t3825574718_SByte_t454417549_Il2CppObject_Int32_t2071877448_ExceptionU26_t1467204777PK10MethodInfoPvPS2_
qOi:_UnityAction_2_Invoke_m1994351568_gshared
vZi:__ZL25UnresolvedVirtualCall_210P12Il2CppObjectiiPK10MethodInfo
pKb:__Z18Transfer_BlittableI19StreamedBinaryWriteILb0EELb1EjEvRK29SerializationCommandArgumentsR31RuntimeSerializationCommandInfo
hs:__ZNK8Animator20IsAnyRendererVisibleEv
DSc:_cff_builder_add_point1
csj:__ZN6il2cpp2vm5Image21GetCachedResourceDataEPK11Il2CppImageRKNSt3__212basic_stringIcNS5_11char_traitsIcEENS5_9allocatorIcEEEE
xYd:_HorizontalOrVerticalLayoutGroup_set_childControlWidth_m4209477792
a9d:_Array_InternalArray__ICollection_Add_TisUInt32_t2149682021_m2629016323_gshared
DDb:__Z18Transfer_BlittableI14SafeBinaryReadLb0E10ColorRGBAfEvRK29SerializationCommandArgumentsR31RuntimeSerializationCommandInfo
BIf:__ZL65Il2CppArray_CustomAttributesCacheGenerator_Array_Sort_m3002148658P21CustomAttributesCache
Ba:invoke_iiiiiiiiii
zM:__ZNK7Texture10GetVRUsageEv
Ala:__ZN18LoadSceneOperation19IntegrateTimeSlicedEi
qOg:_Scheduler_SchedulerThread_m2209572785
y7e:_SortKeyBuffer_GetResultAndReset_m2516956577
H7a:__ZN10FileSystem19SetCurrentDirectoryERKN4core12basic_stringIcNS0_20StringStorageDefaultIcEEEE
yRi:_ObjectPool_1_get_countAll_m4217365918_gshared
i2:__ZN16ScriptingManager24NotifyScriptCacheReleaseEi
IZf:__ZL85UriParser_t1012511323_CustomAttributesCacheGenerator_UriParser_OnRegister_m4010407891P21CustomAttributesCache
kMf:__ZL63UnmanagedMemoryStream_t822875729_CustomAttributesCacheGeneratorP21CustomAttributesCache
$9b:__Z47Register_UnityEngine_Coroutine_ReleaseCoroutinev
BI:__ZN15AudioReverbZone13SetFMODValuesEv
jgi:_Component_GetComponentInChildren_m3925629424
z$:__ZL19StaticDestroyShaderPv
he:_glRenderbufferStorageMultisample
Eog:_SoapTypeAttribute_get_XmlTypeName_m2546866572
fA:__ZN23AnimationPlayableOutput17SetTargetAnimatorEP8Animator
HIe:_ReadOnlyCollection_1_System_Collections_IList_get_IsFixedSize_m158012227_gshared
zDi:_X509Chain__ctor_m1113875360
mGb:__Z35Transfer_Blittable_SingleValueFieldI14SafeBinaryReadfEvRT_R17GeneralMonoObjectRK23StaticTransferFieldInfo
Nqf:_TlsServerHello_processProtocol_m1241336522
WZf:__ZL79ModulusRing_t80355992_CustomAttributesCacheGenerator_ModulusRing_Pow_m661630322P21CustomAttributesCache
Vxh:_InternalEnumerator_1_System_Collections_IEnumerator_Reset_m324760031_AdjustorThunk
Esi:_ContextAttribute_IsContextOK_m3281216012
T$e:_PathTooLongException__ctor_m3212099251
WVj:_pthread_cond_broadcast__wrapper
Jsg:_ObjectManager_RaiseDeserializationEvent_m1611173032
Er:__ZN17PackedFloatVector8TransferI18StreamedBinaryReadILb0EEEEvRT_
v1f:__ZL88Screen_t786852042_CustomAttributesCacheGenerator_Screen_t786852042____width_PropertyInfoP21CustomAttributesCache
Nlb:__ZN7Cubemap23VirtualRedirectTransferER17RemapPPtrTransfer
aOa:_longest_match_fast
oVd:_DropdownItem_get_image_m2752143412
HWi:__ZL24UnresolvedVirtualCall_60P12Il2CppObjectaPK10MethodInfo
E4b:__ZN22BlockMemoryCacheWriter11GetPathNameEv
PWd:_Graphic_Rebuild_m2617722358
TOf:__ZL86SafeHandle_t2733794115_CustomAttributesCacheGenerator_SafeHandle_SetHandle_m1980208835P21CustomAttributesCache
dNi:_InvokableCall_1__ctor_m563785030_gshared
BCd:_DateTime_ToString_m3108726445_AdjustorThunk
ZO:__ZN19CloudServiceHandlerD2Ev
Z3a:__ZN13dynamic_arrayIN23ReflectionProbesContext23ReflectionProbeCubeInfoELj4EE18resize_initializedEjRKS1_12ResizePolicy
Wfe:_Array_InternalArray__get_Item_TisTableRange_t2011406615_m602485977_gshared
Z$d:_InputField_Append_m2623574152
aF:__Z116Register_UnityEngine_Experimental_Director_AnimatorControllerPlayable_INTERNAL_CALL_GetNextAnimatorStateInfoInternalv
Ogf:_ApplicationException__ctor_m1120437222
JHg:_MonoMethod__ctor_m4091684020
ip:stackAlloc
tac:__Z44Camera_CUSTOM_INTERNAL_CALL_ScreenPointToRayP12Il2CppObjectRK8Vector3fR3Ray
iJa:__ZN25SingleBlockMemoryFileData4LockEPPv
cKa:__ZN12HandlerChain5TouchER13FileEntryData
ZDg:_MethodBuilder_GetHashCode_m1713271764
O0g:_Input_GetKeyDown_m1771960377
npi:_Marshal__cctor_m802981325
Aye:_Collection_1_IsSynchronized_m1319022347_gshared
I6e:_MSCompatUnicodeTable_GetResource_m3816716847
Ebc:__Z32RectOffset_Get_Custom_PropBottomP12Il2CppObject
$Th:__Z49RuntimeInvoker_UInt16_t986882611_Int64_t909078037PK10MethodInfoPvPS2_
njd:_Array_CreateInstance_m15016505
K3f:__ZL103DataUtility_t4181890362_CustomAttributesCacheGenerator_DataUtility_INTERNAL_CALL_GetPadding_m1621366113P21CustomAttributesCache
zFb:__ZNSt3__26vectorI17AnimationCurveTplIfE13stl_allocatorIS2_L18MemLabelIdentifier1ELi16EEE6assignINS_11__wrap_iterIPS2_EEEENS_9enable_ifIXaasr21__is_forward_iteratorIT_EE5valuesr16is_constructibleIS2_NS_15iterator_traitsISC_E9referenceEEE5valueEvE4typeESC_SC_
ZHj:_stat
W5c:_RijndaelTransform_Decrypt128_m1282993908
VYh:__Z72RuntimeInvoker_Boolean_t3825574718_Bounds_t3033363703_Bounds_t3033363703PK10MethodInfoPvPS2_
aae:_Array_InternalArray__ICollection_CopyTo_TisUInt16_t986882611_m3228377237_gshared
yme:_List_1_Add_m4157722533_gshared
Djg:__ZL68Navigation_t1571958496_CustomAttributesCacheGenerator_m_SelectOnDownP21CustomAttributesCache
zdi:_Bounds_op_Inequality_m2315096783
rvc:__ZN15b2DistanceJoint23InitVelocityConstraintsERK12b2SolverData
ara:__ZNSt3__218__insertion_sort_3IRNS_4lessIN22BuiltinResourceManager8ResourceEEEPS3_EEvT0_S7_T_
Fgi:_Component_BroadcastMessage_m1308086896
o5c:_RC2_set_KeySize_m2015782960
ma:invoke_iiiiiiiiiiii
hEe:_Collection_1_SetItem_m3715941382_gshared
dSe:_NumberFormatInfo_get_CurrencyGroupSeparator_m2480433019
hef:_StrongName_get_PublicKey_m3777577320
X_f:__ZL120AssetBundleCreateRequest_t1038783543_CustomAttributesCacheGenerator_AssetBundleCreateRequest_get_assetBundle_m2931245245P21CustomAttributesCache
Coi:_RuntimeCompatibilityAttribute__ctor_m1331212510
vcc:__Z43Register_UnityEngine_GameObject_SendMessagev
_4:__ZNSt3__26__treeINS_12__value_typeIN4core12basic_stringIcNS2_20StringStorageDefaultIcEEEES6_EENS_19__map_value_compareIS6_S7_NS_4lessIS6_EELb1EEE13stl_allocatorIS7_L18MemLabelIdentifier12ELi16EEE7destroyEPNS_11__tree_nodeIS7_PvEE
mUi:__ZN6il2cpp2vm17SetupFieldsLockedEP11Il2CppClassRKNS_2os12FastAutoLockE
GSd:_ColorBlock_GetHashCode_m649325222_AdjustorThunk
Vei:_CanvasRenderer_set_hasPopInstruction_m1388844875
doe:_List_1_System_Collections_ICollection_CopyTo_m1530390632_gshared
OFe:_Collection_1_System_Collections_IEnumerable_GetEnumerator_m1452790461_gshared
tzh:_InternalEnumerator_1_System_Collections_IEnumerator_Reset_m3194282029_AdjustorThunk
h8a:__ZN16MemoryFileSystem4NameEv
qqe:__ZN21InterfaceFuncInvoker0I18Color32_t874517518E6InvokeEjP11Il2CppClassP12Il2CppObject
CLd:_BaseRaycaster_OnEnable_m3641767070
twe:_List_1_ToArray_m2810936944_gshared
d3e:_MissingMemberException_get_Message_m2763732423
xif:_PrimeGeneratorBase_get_PrimalityTest_m308005118
OHf:__ZL71Enum_t2459695545_CustomAttributesCacheGenerator_Enum_Format_m2294492821P21CustomAttributesCache
A$g:_GUIStyle_Internal_CalcSize_m1309259680
Pjc:__ZNK8GUIStyle8CalcSizeER10GUIContent
Lne:_List_1_CheckIndex_m2328469916_gshared
Ywe:_List_1_AddRange_m3345533268_gshared
AJc:_UNITY_FT_New_Size
A7b:__Z42ScriptingGetComponentsOfTypeFromGameObjectRK26ScriptingGetComponentsArgs
vxe:_List_1_get_Item_m3157283227_gshared
f6d:__ZN21InterfaceFuncInvoker2Ii38CustomAttributeNamedArgument_t94157543S0_E6InvokeEjP11Il2CppClassP12Il2CppObjectS0_S0_
NNi:_InvokableCall_4_Invoke_m1555001411_gshared
$zd:_Convert_ToString_m2915777777
Qga:__ZNSt3__27__sort4IRPFbRKNS_4pairIN9ShaderLab16FastPropertyNameEN18UnityPropertySheet11UnityTexEnvEEES8_EPS6_EEjT0_SD_SD_SD_T_
SRc:_cf2_hintmap_build
g_h:__Z92RuntimeInvoker_AnimatorStateInfo_t2577870592_PlayableHandleU26_t3483893774_Int32_t2071877448PK10MethodInfoPvPS2_
GPc:_Line_Up
_4e:_MonoType_GetGenericTypeDefinition_m2363776160
SNf:__ZL62ParameterAttributes_t1266705348_CustomAttributesCacheGeneratorP21CustomAttributesCache
Uof:_Context_set_SentConnectionEnd_m2641458842
oe:_emscripten_glBufferSubData
ymd:_Buffer_BlockCopyInternal_m2627156229
kHb:__Z18Transfer_BlittableI17RemapPPtrTransferLb1EyEvRK29SerializationCommandArgumentsR31RuntimeSerializationCommandInfo
IWd:_Graphic_set_material_m329335629
lLd:_ExecuteEvents_get_pointerExitHandler_m3250605428
Wha:__ZN6prcoreL12RemapGenericI15TexFormatRGB88817TexFormatARGB8888EEvPKNS_9InnerInfoE
vD:__Z17CalculateGlobalRS23TransformAccessReadOnly
fsg:__ZN21InterfaceFuncInvoker1IP12Il2CppObject28StreamingContext_t1417235061E6InvokeEjP11Il2CppClassS1_S2_
Sdi:_Camera_ScreenPointToRay_m614889538
h9e:_Kernel_multiByteDivide_m735279869
Efh:_Dictionary_2_ToTValue_m542772656_gshared
Z2c:__ZN23UnityPurchasingSettings10InitializeER6Object
fZi:__ZL25UnresolvedVirtualCall_194P12Il2CppObject6Guid_tS1_PK10MethodInfo
QNg:_Thread_GetNewManagedId_internal_m3211695465
jOa:_unity_z_deflateReset
vWg:_SkinChangedDelegate_Invoke_m2801964040
$ya:__ZN17GenericDynamicVBO17DrawChunkInternalERK21DynamicVBOChunkHandle17ShaderChannelMaskS3_P17VertexDeclarationP16DrawBuffersRangeij
T3c:__ZN13RuntimeStaticINSt3__26vectorIN5physx25PxVehicleWheelQueryResultENS0_9allocatorIS3_EEEELb0EE16StaticInitializeEPv
vPb:__ZN22MemoryCacherReadBlocks14LockCacheBlockEjPPhS1_
zld:_Boolean_System_IConvertible_ToChar_m2637404801_AdjustorThunk
Fbd:_SecurityContext_Capture_m2535194991
URg:_UInt16_System_IConvertible_ToSByte_m3044765342_AdjustorThunk
OAg:_DerivedType_IsArrayImpl_m684825803
aGf:__ZL47Byte_t3683104436_CustomAttributesCacheGeneratorP21CustomAttributesCache
ntj:__ZN4utf88internal15increase_safelyIPKcEENS0_9utf_errorERT_S5_
yIc:__ZN20TextRenderingPrivate8FontImpl16CacheFontForTextEPtiifjPK13dynamic_arrayINS_16TextFormatChangeELj4EE
Oce:_Array_qsort_TisUIVertex_t1204258818_TisUIVertex_t1204258818_m512606409_gshared
i5c:__Z21ArrayElementTypeCheckP11Il2CppArrayPv
aTj:_emscripten_glTexSubImage2D__wrapper
awf:_NameValueCollection_AsSingleString_m10599052
WJj:__ZNSt3__212basic_stringIcNS_11char_traitsIcEENS_9allocatorIcEEE6appendEjc
$5e:_Object_InternalGetHashCode_m1371384246
nnh:_Navigation_get_defaultNavigation_m2185194207
Olg:__ZL73LayoutElement_t2808691390_CustomAttributesCacheGenerator_m_FlexibleHeightP21CustomAttributesCache
Dii:_ArgumentCache_get_stringArgument_m3051619173
sVe:_Int32_System_IConvertible_ToSByte_m1449623243_AdjustorThunk
ggf:_AccessViolationException__ctor_m1270251537
u$c:__Z42Register_UnityEngine_Canvas_get_rootCanvasv
SDi:_X509ExtensionCollection_IndexOf_m3972100651
CEb:__Z14resize_trimmedINSt3__26vectorI8MonoPPtr13stl_allocatorIS2_L18MemLabelIdentifier1ELi16EEEEEvRT_j
seb:__ZN39AssetBundleLoadFromStreamAsyncOperation11GetProgressEv
Xe:_TTF_RenderText_Solid
tCb:__ZN13MonoBehaviour25TransferEngineAndInstanceI24GenerateTypeTreeTransferEEvRT_
OSg:_UInt32_System_IConvertible_ToInt64_m3091851828
h3e:_MissingMethodException__ctor_m3898429715
dqg:_RemotingConfiguration_RegisterClientProviderTemplate_m514821425
e9g:_Enumerator_System_Collections_IEnumerator_Reset_m3085583937_gshared
E7h:__Z66RuntimeInvoker_ClientCertificateType_t4001384466_Int32_t2071877448PK10MethodInfoPvPS2_
sdf:_RSAManaged_ExportParameters_m2873993187
YQe:_NumberFormatter_Append_m3268121457
xxe:_Enumerator__ctor_m2816143215_AdjustorThunk
n3c:__ZN11UnityEngine7Connect16PersistentValuesC2Ev
nBf:_X509Chain_FindParent_m404663796
f3e:_MissingMemberException__ctor_m2164043278
UPi:__ZL7log2_32j
QBe:_Collection_1_CopyTo_m2282972507_gshared
yzb:__ZN13EmscriptenWWW10OnProgressEPvjj
SQd:_BaseVertexEffect__ctor_m358261091
UDf:_Interpreter_GetGroupInfo_m312421921
wHb:__Z19TransferField_ArrayI17RemapPPtrTransfer27Converter_UnityEngineObjectEvRK23StaticTransferFieldInfoR31RuntimeSerializationCommandInfoRT0_
tKh:__Z48RuntimeInvoker_Void_t1841601450_SByte_t454417549PK10MethodInfoPvPS2_
_Rf:__ZL53HMACSHA384_t3026079344_CustomAttributesCacheGeneratorP21CustomAttributesCache
x$h:__Z120RuntimeInvoker_Void_t1841601450_Single_t2076509932_Single_t2076509932_Single_t2076509932_Single_t2076509932_Il2CppObjectPK10MethodInfoPvPS2_
Wjb:__ZN14RenderSettings8TransferI18StreamedBinaryReadILb0EEEEvRT_
khe:_Object_Instantiate_TisIl2CppObject_m4219963824_gshared
UXb:__ZN15ApplicationInfo14GetSandboxTypeEv
mdd:_Single_GetHashCode_m3102305584_AdjustorThunk
hoa:__ZN29SerializeTraitsForStringTypesIN4core12basic_stringIcNS0_20StringStorageDefaultIcEEEEE8TransferI24GenerateTypeTreeTransferEEvRS4_RT_
Mee:_Array_swap_TisVector3_t2243707580_m3036634038_gshared
sK:__ZN4FMOD6System9createDSPEP20FMOD_DSP_DESCRIPTIONPPNS_3DSPE
Yz:__ZN7mecanim9animation26DestroyControllerWorkspaceEPNS0_19ControllerWorkspaceERNS_6memory9AllocatorE
dBi:_UriParser_set_SchemeName_m3624672465
AG:__ZN4FMOD8ChannelI11EndCallbackEv
f9c:_ToBase64Transform_TransformBlock_m2201454137
Djc:__ZN8GUIStyle14SetDefaultFontEPN13TextRendering4FontE
IEg:_OpCode_get_StackBehaviourPop_m3787015663_AdjustorThunk
Jvi:_PatternCompiler_EmitCount_m3609178511
upb:__ZN15QualitySettings23VirtualRedirectTransferER24GenerateTypeTreeTransfer
rLi:_U3CCreateWhereIteratorU3Ec__Iterator1D_1_System_Collections_Generic_IEnumerableU3CTSourceU3E_GetEnumerator_m2682676065_gshared
v$g:_GUIStyle_Internal_GetCursorStringIndex_m1491806746
Hfg:__ZL89PointerEventData_t1599784723_CustomAttributesCacheGenerator_U3CpositionU3Ek__BackingFieldP21CustomAttributesCache
i9i:__ZN6il2cpp2os10FileHandleC2Ev
Fec:__Z59Register_UnityEngine_MonoBehaviour_Internal_CancelInvokeAllv
DTf:__ZL84Encoding_t663144255_CustomAttributesCacheGenerator_Encoding_GetByteCount_m4104502544P21CustomAttributesCache
SMd:__ZN23InterfaceActionInvoker1IP25AxisEventData_t1524870173E6InvokeEjP11Il2CppClassP12Il2CppObjectS1_
Yog:_ObjRef_set_TypeInfo_m1661789743
d0i:__ZN30dense_hashtable_const_iteratorINSt3__24pairIK10KeyWrapperIPK19Il2CppGenericMethodEPK26Il2CppGenericMethodIndicesEES6_N6il2cpp8metadata23Il2CppGenericMethodHashEN14dense_hash_mapIS6_SA_SE_NS6_14EqualsComparerINSD_26Il2CppGenericMethodCompareEEENS0_9allocatorISB_EEE9SelectKeyESI_SK_EppEv
cZg:_GUISkin_get_box_m533626169
Vuf:_HybridDictionary_Add_m1037587952
c2g:_Mathf_Cos_m238853451
cJc:_UNITY_FT_Request_Metrics
Sma:__Z37GetBarycentricCoordinatesForOuterCellPPK8Vector3fRK13dynamic_arrayIS_Lj4EERS0_RK11TetrahedronR8Vector4fRf
qnj:__ZN6il2cpp6icalls8mscorlib6System10Reflection10MonoMethod29get_IsGenericMethodDefinitionEP22Il2CppReflectionMethod
Yjj:__ZN6il2cpp2vm6Thread21AllocThreadStaticDataEi
yyi:__ZN23InterfaceActionInvoker4IiibP19LinkRef_t2090853131E6InvokeEjP11Il2CppClassP12Il2CppObjectiibS1_
Zwd:_DateTime_YearMonthDayFormats_m4204607055
sSd:_ColorBlock_set_disabledColor_m3502887543_AdjustorThunk
Hwj:__ZN30dense_hashtable_const_iteratorINSt3__24pairIK10KeyWrapperIPK19Il2CppGenericMethodEP10MethodInfoEES6_N6il2cpp8metadata23Il2CppGenericMethodHashEN14dense_hash_mapIS6_S9_SD_NS6_14EqualsComparerINSC_26Il2CppGenericMethodCompareEEENS0_9allocatorISA_EEE9SelectKeyESH_SJ_EppEv
dN:__Z13RegisterClassI13AudioListenerEvv
bNi:_InvokableCall_1_Find_m951110817_gshared
UKi:_Aes__ctor_m4020215067
xD:__ZN23AnimationOffsetPlayable11GetPositionEv
yoc:__Z18Transfer_BlittableI9JSONWriteLb0E8Vector3fEvRK29SerializationCommandArgumentsR31RuntimeSerializationCommandInfo
y5:__ZN13RuntimeStaticI17UniqueIDGeneratorLb0EE13StaticDestroyEPv
Wf:_emscripten_glUniform4i
fSf:__ZL46MD5_t1507972490_CustomAttributesCacheGeneratorP21CustomAttributesCache
NWd:_Graphic_OnDisable_m2360886868
DRi:_ObjectPool_1_Release_m1615270002_gshared
gf:_emscripten_glUniform4f
Aj:___unlock
Jyj:_GC_default_oom_fn
Jqh:_ScrollRect_InternalCalculateOffset_m3083065267
ZBh:_InternalEnumerator_1_System_Collections_IEnumerator_Reset_m1561424184_AdjustorThunk
Urd:_Comparer_Compare_m4132969818
cM:__ZN20SoundChannelInstance19setReverbPropertiesEP29FMOD_REVERB_CHANNELPROPERTIES
A0d:_U3CCaretBlinkU3Ec__Iterator0_System_Collections_Generic_IEnumeratorU3CobjectU3E_get_Current_m3541562536
aGh:_InternalEnumerator_1__ctor_m2808001655_AdjustorThunk
dDh:_InternalEnumerator_1_System_Collections_IEnumerator_Reset_m2571770313_AdjustorThunk
JFg:_FieldInfo_get_UMarshal_m1934544188
UQh:__Z68RuntimeInvoker_Void_t1841601450_IntPtr_t_MonoMethodInfoU26_t16045984PK10MethodInfoPvPS2_
tLh:__Z86RuntimeInvoker_Int32_t2071877448_Int32_t2071877448_Int32_t2071877448_Int32_t2071877448PK10MethodInfoPvPS2_
ZC:__ZNK26AnimatorControllerPlayable14IsInTransitionEi
thh:_DefaultComparer_Equals_m2171836276_gshared
Plj:__ZN6il2cpp2vm9Exception18GetFormatExceptionEPKc
n6h:__Z56RuntimeInvoker_Void_t1841601450_ResourceInfo_t3933049236PK10MethodInfoPvPS2_
bQf:__ZL55IMessageSink_t2189618969_CustomAttributesCacheGeneratorP21CustomAttributesCache
shc:__Z40Register_UnityEngine_Transform_IsChildOfv
b$g:_GUIStyle_Draw_m1435796321
Mpd:_ArrayList_Sort_m923359189
cuh:_Text_CalculateLayoutInputVertical_m1732119136
tbc:__Z45Register_UnityEngine_Display_GetSystemExtImplv
bHa:__ZN9GfxDevice31DrawIndexedNullGeometryIndirectE16GfxPrimitiveTypeP9GfxBuffer15ComputeBufferIDj
yyh:_InternalEnumerator_1_System_Collections_IEnumerator_get_Current_m3088751576_gshared
WRh:__Z78RuntimeInvoker_Void_t1841601450_Int64_t909078037_Il2CppObject_Int64_t909078037PK10MethodInfoPvPS2_
ndi:_Bounds_set_center_m2069004927_AdjustorThunk
Aff:_X509Certificate_GetSubjectName_m2120755276
Jlc:__Z46GUIStyle_CUSTOM_Internal_DrawWithTextSelectionP12Il2CppObjectR43MonoInternal_DrawWithTextSelectionArguments
RPi:__ZL17log2withScale_128yyi
o3f:__ZL58ResourceRequest_t2560315377_CustomAttributesCacheGeneratorP21CustomAttributesCache
EXc:__ZNSt3__218__insertion_sort_3IRNS_6__lessIN2UI14DepthSortEntryES3_EEPS3_EEvT0_S7_T_
GZb:__ZN2UI13RectTransform15InitializeClassEv
YX:__ZN13RuntimeStaticI15DirectorManagerLb0EE16StaticInitializeEPv
Krc:__ZN8JSONRead8TransferI23ManagedObjectTransfererEEvRT_PKc17TransferMetaFlagsb
Sif:_ASN1_get_Value_m2229768312
cZi:__ZL25UnresolvedVirtualCall_191P12Il2CppObjectsPK10MethodInfo
WKd:_BaseInput_get_touchCount_m998724785
$vb:__ZN11TimeManager6UpdateEv
ADi:_X509Chain_get_Status_m2726750609
r0d:_InputField_get_preferredWidth_m3185355225
KWg:_GUIUtility_get_pixelsPerPoint_m2667928361
QEe:_Collection_1_RemoveItem_m1406181352_gshared
INg:_Thread_SetState_m3198426726
eqd:_ArrayListWrapper_Contains_m1158465965
zee:_Array_swap_TisColor32_t874517518_m2203309732_gshared
rif:_BigInteger_op_LessThan_m3825358479
iIj:_fflush
Hma:__ZN17LightProbeContext4InitERK16LightmapSettingsRK14RenderSettings
Nld:_Convert_ToInt32_m55151042
BXd:_GraphicRaycaster_Raycast_m1206612976
oGj:__GLOBAL__sub_I_Error_cpp
Wxi:_Alternation_GetWidth_m4218808325
CNe:_ReadOnlyCollection_1_System_Collections_IList_Insert_m2651065875_gshared
iIf:__ZL80Il2CppArray_CustomAttributesCacheGenerator_Array_SetValue_m169741241____indices1P21CustomAttributesCache
tga:__ZN10ColorRGBAf8TransferI19StreamedBinaryWriteILb0EEEEvRT_
WLc:_ft_bitmap_glyph_bbox
hwf:_TypeConverterAttribute__ctor_m4061167050
iZi:__ZL25UnresolvedVirtualCall_197P12Il2CppObject22ColorBlock_t2652774230PK10MethodInfo
Esj:__ZN6il2cpp2vm11MethodStack17GetStackFramesRawEv
Eni:_Font_add_textureRebuilt_m1282639736
xfh:_Dictionary_2_ContainsValue_m2760581195_gshared
sAj:_GC_reclaim_uninit
I$a:__Z34ProcessIndexListIsNodeVisibleStep2RK22SceneCullingParametersPK9SceneNodePK4AABBR9IndexList
sAb:__ZN10MonoScriptD2Ev
iia:__ZN6prcoreL12RemapGenericI17TexFormatARGB888817TexFormatBGRA8888EEvPKNS_9InnerInfoE
Qsh:_Slider_OnRectTransformDimensionsChange_m4109401172
ryf:_WebHeaderCollection_Get_m3391944907
EX:__GLOBAL__sub_I_half_cpp
Tcc:__Z39Input_CUSTOM_INTERNAL_get_mousePositionP8Vector3f
HOc:_tt_cmap13_char_next
Aqg:_ServerIdentity__ctor_m1576469955
OMa:__ZN9ShaderLab4Pass16SetupPassOptionsEv
eli:_AnimatorControllerPlayable_INTERNAL_CALL_SetTriggerID_m508896534
cQi:_UnityEvent_4__ctor_m3102731553_gshared
R8h:__Z78RuntimeInvoker_Int32_t2071877448_UICharInfo_t3056636800_UICharInfo_t3056636800PK10MethodInfoPvPS2_
jh:_JS_Sound_ReleaseInstance
Icg:__ZL72IL2CPPStructAlignmentAttribute_t130316838_CustomAttributesCacheGeneratorP21CustomAttributesCache
dta:__ZN13GfxDeviceGLES19DrawBuffersIndirectEP9GfxBufferPK18VertexStreamSourceiP17VertexDeclaration17ShaderChannelMask16GfxPrimitiveType15ComputeBufferIDj
ste:_List_1_Shift_m439051997_gshared
q8g:_Renderer_get_sortingLayerID_m2403577271
lpi:_InAttribute__ctor_m1401060713
LRj:_emscripten_glPixelStorei__wrapper
WDd:_Decimal_System_IConvertible_ToDecimal_m1541432424_AdjustorThunk
JOb:__Z29Transfer_Blittable_ArrayFieldI18StreamedBinaryReadILb0EEaEvRT_R9ArrayInfoRK23StaticTransferFieldInfo
tfc:__Z21Resources_CUSTOM_LoadP12Il2CppStringP12Il2CppObject
Gm:FUNCTION_TABLE_diddi
ghd:_EncoderExceptionFallbackBuffer__ctor_m3538569575
yfc:__Z26Material_CUSTOM_SetIntImplP12Il2CppObjectii
nUe:_Int16_System_IConvertible_ToSingle_m3277935657_AdjustorThunk
Q6i:__ZNSt3__26vectorIPK10MethodInfoNS_9allocatorIS3_EEE21__push_back_slow_pathIRKS3_EEvOT_
Fci:_AttributeHelperEngine_CheckIsEditorScript_m2980171478
Ctf:_SslStreamBase_get_KeyExchangeAlgorithm_m3712013038
eti:_InternalRemotingServices__cctor_m3821625125
Rbc:__Z42Register_UnityEngine_RectOffset_get_bottomv
JKg:_StringBuilder_Insert_m3322917127
Cgh:_DefaultComparer_Equals_m724229128_gshared
Ose:_List_1__cctor_m1337542316_gshared
V9g:_Enumerator_VerifyCurrent_m1702320752_AdjustorThunk
Gvh:_ArrayReadOnlyList_1_Clear_m2539474626_gshared
spg:__ZN21InterfaceFuncInvoker0IP24ObjectU5BU5D_t3614634134E6InvokeEjP11Il2CppClassP12Il2CppObject
gOi:_UnityAction_1_EndInvoke_m2603848420_gshared
Byd:_Convert_ToDouble_m3520060872
dRj:_emscripten_glUniform1f__wrapper
WLj:dynCall_di
ksf:_SslCipherSuite_ComputeServerRecordMAC_m1876572367
iKc:__ZN20TextRenderingPrivate19NativeTextGeneratorC2ERK11UTF16StringPNS_8FontImplE11ColorRGBA32ifRK8Vector2fbifiibffbbbP13dynamic_arrayIN2UI8UIVertexELj4EE
ioc:__Z28RegisterModule_JSONSerializev
dF:__Z111Register_UnityEngine_Experimental_Director_AnimatorControllerPlayable_INTERNAL_CALL_GetAnimatorClipInfoInternalv
aNg:_Interlocked_CompareExchange_m3227034792
Swg:_HashAlgorithm_get_Hash_m931854461
R8i:_il2cpp_monitor_enter
gHh:_DefaultComparer_Compare_m3564013922_gshared
yVb:__ZN2UI13RectTransform8TransferI14SafeBinaryReadEEvRT_
g6b:__Z20IsHumanControllingUsv
JPa:__ZNK19RenderEventsContext21ExecuteCommandBuffersEijR17ShaderPassContextR15RenderNodeQueueP19ProfilerInformationi
sDe:_Collection_1_RemoveAt_m3454169520_gshared
zT:__ZNK20DynamicHeapAllocatorI17LowLevelAllocatorE10GetPtrSizeEPKv
Jmi:_AnimatorControllerPlayable_PlayInFixedTime_m172593751
Ncb:__ZN10systeminfo21GetPersistentDataPathEv
HUd:_Dropdown_set_value_m2945561009
Wsa:__ZN13GfxDeviceGLES17DestroyGpuProgramEPK10GpuProgram
XRe:_GregorianCalendar_GetMonth_m523739832
iDb:__Z44InitializeTransferFunctionScriptingTraitsForI18StreamedBinaryReadILb0EEEvR31TransferFunctionScriptingTraits
JXa:__ZNSt3__218__insertion_sort_3IR23CompareReflectionProbesP31RuntimeReflectionProbeBlendInfoEEvT0_S5_T_
GHb:__ZN12NativeBufferI27Converter_SimpleNativeClassI8GradientEE15SetupForWritingER9ArrayInfo
hJe:_ReadOnlyCollection_1_System_Collections_ICollection_get_IsSynchronized_m2987885125_gshared
QVg:_GameObject_AddComponent_m3757565614
t8:__ZN12_GLOBAL__N_113StaticDestroyEPv
R4h:__Z54RuntimeInvoker_Boolean_t3825574718_Vector4_t2243707581PK10MethodInfoPvPS2_
MTe:_Guid_ToString_m51661589
oic:__ZNK8GUIStyle4DrawER8GUIStateRK5RectTIfER10GUIContentbbbb
vth:_Text_set_font_m1095513810
QVj:_glUnmapBuffer__wrapper
KBd:_DateTime_System_IConvertible_ToUInt32_m1363211018_AdjustorThunk
KZd:_InputField_get_cachedInputTextGenerator_m881618486
wei:_Canvas_get_rootCanvas_m1790974328
Rdc:__Z32Mesh_CUSTOM_ExtractArrayFromListP12Il2CppObject
Dyg:_Binder_get_DefaultBinder_m965620943
oYi:__ZL25UnresolvedVirtualCall_149P12Il2CppObjectiiPK10MethodInfo
nsc:__ZN8JSONRead21TransferSTLStyleArrayINSt3__26vectorI8Gradient13stl_allocatorIS3_L18MemLabelIdentifier1ELi16EEEEEEvRT_17TransferMetaFlags
ypf:_SecurityParameters_Clear_m3409219757
xwb:__ZNSt3__218__insertion_sort_3IRNS_6__lessINS_4pairIPKN5Unity4TypeE7Hash128EES8_EEPS8_EEvT0_SC_T_
pwi:_PatternCompiler_EmitAlternationEnd_m889639343
YIb:__ZN10RectOffset8TransferI24GenerateTypeTreeTransferEEvRT_
nkd:_SimpleEnumerator_get_Current_m482975946
S6b:__Z18GetResourceManagerv
OIj:_srand
mdj:__ZNK15dense_hashtableINSt3__24pairIK10KeyWrapperINS1_IPK10MethodInfoP11Il2CppClassEEEjEES9_17ReflectionMapHashIS8_EN14dense_hash_mapIS9_jSD_NS9_14EqualsComparerINS0_8equal_toIS8_EEEENS0_9allocatorISB_EEE9SelectKeyESI_SK_E10test_emptyERK30dense_hashtable_const_iteratorISB_S9_SD_SM_SI_SK_E
f4e:_MonoTypeInfo__ctor_m1398838196
qXc:__ZN2UI13CanvasManager19RemoveDirtyRendererEPNS_6CanvasEPNS_14CanvasRendererE
x6g:_Rect_get_position_m24550734
xuh:_Toggle_Rebuild_m929023818
AM:__ZN7Texture34UpdateFileTextureUploadInstructionEP28FileTextureUploadInstructionj
j9:__Z15GetIApplicationv
Lci:_AudioClip_InvokePCMSetPositionCallback_Internal_m2304858844
B0c:__ZN11UnityEngine15PlatformWrapper25GetGraphicsRendererStringEv
DMh:__Z51RuntimeInvoker_UInt16_t986882611_Decimal_t724701077PK10MethodInfoPvPS2_
F$d:_InputField_KeyPressed_m3066588581
UGi:_Time_get_unscaledTime_m862335845
C1i:__ZNK15dense_hashtableINSt3__24pairIK10KeyWrapperI13dynamic_arrayIPK10Il2CppTypeLj4EEEPFvvEEES8_N6il2cpp8metadata19Il2CppSignatureHashEN14dense_hash_mapIS8_SB_SF_NS8_14EqualsComparerINSE_22Il2CppSignatureCompareEEENS0_9allocatorISC_EEE9SelectKeyESJ_SL_E13find_positionERS9_
Vrh:_Selectable_DoStateTransition_m539253088
o8c:_SHA512_Create_m439875055
Wb:invoke_vi
g8c:_SHA384Managed_update_m2629600295
uAc:__ZNSt3__26vectorINS0_IN10ClipperLib8IntPointENS_9allocatorIS2_EEEENS3_IS5_EEE7reserveEj
YHa:__ZN15dense_hashtableINSt3__24pairIKN4core12basic_stringIcNS2_20StringStorageDefaultIcEEEEP20ArchiveStorageReaderEES6_20StringHash32FunctionIS6_EN14dense_hash_mapIS6_S9_SC_NS0_8equal_toIS6_EE13stl_allocatorISA_L18MemLabelIdentifier54ELi16EEE9SelectKeyESF_SI_ED2Ev
Ub:invoke_vd
tb:invoke_vf
C$g:_GUIStyle_Internal_CalcSizeWithConstraints_m3375255978
WEh:_InternalEnumerator_1__ctor_m32322958_AdjustorThunk
I3:__ZNK10GameObject8IsActiveEv
NU:__ZN18ScreenManagerWebGL21SetCursorInsideWindowEb
Fug:_SByte_System_IConvertible_ToUInt32_m4256495110
xNd:_PointerEventData_set_eligibleForClick_m2036057844
TBa:__ZN18GfxFramebufferGLES23SetupDefaultFramebufferEPP17RenderSurfaceBaseS2_N2gl6HandleILNS3_10ObjectTypeE9EEE
qIj:_mbsinit
L_g:_GUIStyle_get_Internal_clipOffset_m4237737448
Teg:__ZL70EventSystem_t3466835263_CustomAttributesCacheGenerator_m_FirstSelectedP21CustomAttributesCache
VU:__ZN13ScreenManager18RequestOrientationE17ScreenOrientation
LUi:__ZN6il2cpp2vm5Class12SetupMethodsEP11Il2CppClass
TQ:__ZN11UnityEngine15CloudWebService13WWWRestClient18GetResponseHeadersEv
i9b:__Z39DeleteLastPathNameComponentWithAnySlashRKN4core12basic_stringIcNS_20StringStorageDefaultIcEEEE
WS:__ZN13EmscriptenWWW14BlockUntilDoneEv
Qig:__ZL68InputField_t1631627530_CustomAttributesCacheGenerator_m_KeyboardTypeP21CustomAttributesCache
$uh:_VerticalLayoutGroup_CalculateLayoutInputHorizontal_m497637066
VQd:_Button_get_onClick_m1595880935
YQi:_ListPool_1_Release_m3716853512_gshared
aua:__ZN13GfxDeviceGLES17UploadTextureCubeE9TextureIDPKhiii13TextureFormati18TextureUploadFlags17TextureColorSpace
f8g:_RectTransformUtility_PixelAdjustPoint_m560908615
Fti:_MethodCall__ctor_m4106494862
Zxg:_Module_IsResource_m663979284
Zlc:__Z37Register_UnityEngine_GUIStyle_Cleanupv
Oa:invoke_iiifii
F1b:__ZN8GUILayer12AddToManagerEv
S1f:__ZL109TouchScreenKeyboard_t601950206_CustomAttributesCacheGenerator_TouchScreenKeyboard_Open_m3410222954____secure4P21CustomAttributesCache
h7i:__ZN6il2cpp6icalls8mscorlib6System8MonoType13IsPointerImplEP20Il2CppReflectionType
lyd:_Convert_ToDecimal_m2284596541
arb:__ZN14Texture2DArray34UpdateFileTextureUploadInstructionEP28FileTextureUploadInstructionj
Ti:_emscripten_glFramebufferRenderbuffer
m_f:__ZL64CipherSuiteCollection_t2431504453_CustomAttributesCacheGeneratorP21CustomAttributesCache
xqi:__ZN21InterfaceFuncInvoker3IP12Il2CppObjectP8String_tS1_PS3_E6InvokeEjP11Il2CppClassS1_S3_S1_S4_
Bqf:_TlsServerCertificateRequest_ProcessAsSsl3_m3017921864
GWe:_Int64_GetHashCode_m4047499913
w2a:__ZN9Transform30EnsureTransformHierarchyExistsEv
PN:__ZN11AudioModule26SetDefaultMicrophoneDriverEPv
H$f:__ZL102Camera_t189460977_CustomAttributesCacheGenerator_Camera_INTERNAL_CALL_ScreenToViewportPoint_m529506484P21CustomAttributesCache
Lkd:_Attribute_IsDefined_m216577166
Pod:_Char_ToUpper_m109978609
BAh:_InternalEnumerator_1_get_Current_m1089848479_gshared
AGd:_Double_System_IConvertible_ToInt64_m3798425616
gPd:_StandaloneInputModule_get_repeatDelay_m3025279
Hg:___cxa_find_matching_catch_4
vec:__ZN13MonoBehaviour13StopCoroutineEPKc
A5a:__ZNSt3__26vectorINS_4pairIN4core12basic_stringIcNS2_20StringStorageDefaultIcEEEEPK17MessageIdentifierEENS_9allocatorISA_EEE12__move_rangeEPSA_SE_SE_
HTa:__ZN14qsort_internal17MedianOfThreeSwapIP17RODataReplacement19ROSorterReplacementEEvT_S4_S4_T0_
lYi:__ZL25UnresolvedVirtualCall_146P12Il2CppObject22ColorBlock_t2652774230S1_PK10MethodInfo
fAe:_Collection_1_System_Collections_IList_Insert_m3303840316_gshared
CTi:__ZNK15dense_hashtableINSt3__24pairIK10KeyWrapperIPK22Il2CppGenericParameterEP11Il2CppClassEES6_N6il2cpp5utils11PointerHashIS4_EEN14dense_hash_mapIS6_S9_SE_NS6_14EqualsComparerINS0_8equal_toIS5_EEEENS0_9allocatorISA_EEE9SelectKeyESJ_SL_E3endEv
e9b:__ZN17TransformInternal36OnScaleChangedCalculateTransformTypeE15TransformAccess
XHa:__ZN15dense_hashtableINSt3__24pairIKN4core12basic_stringIcNS2_20StringStorageDefaultIcEEEEP20ArchiveStorageReaderEES6_20StringHash32FunctionIS6_EN14dense_hash_mapIS6_S9_SC_NS0_8equal_toIS6_EE13stl_allocatorISA_L18MemLabelIdentifier54ELi16EEE9SelectKeyESF_SI_E4swapERSL_
ird:_SynchronizedArrayListWrapper_InsertRange_m709359548
uKa:__ZN17ArchiveFileSystem10ToAbsoluteEPKc
lif:_BigInteger_op_Modulus_m13450242
Nib:__ZN4PPtrI8MaterialE8TransferI18StreamedBinaryReadILb0EEEEvRT_
O5h:__Z56RuntimeInvoker_Int32_t2071877448_RaycastResult_t21186376PK10MethodInfoPvPS2_
bzd:_Convert_ToInt32_m2988544165
fde:_Array_Resize_TisColor32_t874517518_m2219502085_gshared
xw:__ZN7mecanim6CRCKeyENS_7eStringE
cuf:_SslStreamBase_get_CanWrite_m2069502593
$Wb:__ZL12SetPrefValueRKN4core12basic_stringIcNS_20StringStorageDefaultIcEEEERK9PrefValue
Y1h:__Z31RuntimeInvoker_Mode_t1081683921PK10MethodInfoPvPS2_
zQb:__ZL30ReconstructParamNamesFromTableIN9ShaderLab20SerializedSubProgram15MatrixParameterEEvRK14dense_hash_mapIiN4core17string_with_labelILi1EEE18SInt32HashFunctionNSt3__28equal_toIiEE13stl_allocatorINS8_4pairIKiS6_EEL18MemLabelIdentifier1ELi16EEERNS8_6vectorIT_NS8_9allocatorISL_EEEE
z_:__ZN19ShaderPropertySheet20ReservePropertyCountEj
Vsj:__ZN6il2cpp5utils11StringUtils6PrintfEPKcz
Uij:__ZNSt3__26vectorIN6il2cpp8metadata18GenericArrayMethodENS_9allocatorIS3_EEE7reserveEj
bha:__ZN15NameToObjectMapI6ShaderNSt3__23mapI4PPtrIS0_EN4core12basic_stringIcNS5_20StringStorageDefaultIcEEEENS1_4lessIS4_EENS1_9allocatorINS1_4pairIKS4_S9_EEEEEENS1_8multimapIS9_S4_NSA_IS9_EENSC_INSD_IKS9_S4_EEEEEEE4FindERSK_
bah:_ShimEnumerator_Reset_m98005789_gshared
goa:__ZN24GenerateTypeTreeTransfer21TransferResourceImageE19ActiveResourceImagePKcR13StreamingInfoPvjiPKN5Unity4TypeE
o4g:_Object_INTERNAL_CALL_Internal_InstantiateSingle_m3932420250
okf:_PKCS1_Compare_m552424558
Tni:_ResourceEnumerator__ctor_m1679839941
yLe:_ReadOnlyCollection_1_System_Collections_IList_set_Item_m1377990618_gshared
SNa:_UNITY_png_zstream_error
xDg:_ILGenerator_make_room_m373147874
cgh:_Dictionary_2_Init_m1045257495_gshared
lVj:_emscripten_glLinkProgram__wrapper
iEi:_X509Extension_get_Oid_m3620527052
mnf:_TlsClientSettings_set_TargetHost_m3421266913
Tcf:_PKCS1_Verify_v15_m2571212635
Djb:__ZNSt3__212__deque_baseI18ReflectionProbeJobNS_9allocatorIS1_EEED2Ev
Lv:__ZN11UnityEngine9Animation27DestroyAnimationSetBindingsEPNS0_20AnimationSetBindingsERN7mecanim6memory9AllocatorE
FQb:__ZN15dense_hashtableINSt3__24pairIKiN4core17string_with_labelILi1EEEEEi18SInt32HashFunctionN14dense_hash_mapIiS5_S7_NS0_8equal_toIiEE13stl_allocatorIS6_L18MemLabelIdentifier1ELi16EEE9SelectKeyESA_SD_E13set_empty_keyERKS6_
TB:__ZN8Animator12CleanupClassEv
Ygd:_DecoderReplacementFallbackBuffer__ctor_m1305504326
lsc:__Z13TransferFieldI8JSONReadLb0E27Converter_SimpleNativeClassI10RectOffsetEEvRK23StaticTransferFieldInfoR31RuntimeSerializationCommandInfoRT1_
yed:_String_IndexOf_m570401060
tZd:_Image_CalculateLayoutInputVertical_m1340533162
kHd:_Enum_System_IConvertible_ToDateTime_m2924690746
sbb:__ZN11AssetBundle9AssetInfo8TransferI14SafeBinaryReadEEvRT_
hVd:_Dropdown_CreateBlocker_m4109366440
Nwg:_HashAlgorithm_System_IDisposable_Dispose_m2106335965
Boj:__GLOBAL__sub_I_GenericMetadata_cpp
n5e:_NotImplementedException__ctor_m1305569814
t5h:__Z59RuntimeInvoker_Int32_t2071877448_KeyValuePair_2_t1174980068PK10MethodInfoPvPS2_
M5g:_RangeAttribute__ctor_m1657271662
tag:__ZL67GUISettings_t622856320_CustomAttributesCacheGenerator_m_CursorColorP21CustomAttributesCache
nic:__ZNK8GUIStyle4DrawER8GUIStateRK5RectTIfER10GUIContentib
v6i:__ZN6il2cpp6icalls8mscorlib6System8MonoType18GetFields_internalEP20Il2CppReflectionTypeiS5_
j$a:__Z24CalculateSpotLightBoundsffRK10Matrix4x4fR15SpotLightBounds
K6e:_TailoringInfo__ctor_m2248501932
tba:__ZNK13RenderTexture21GetShadowSamplingModeEv
UO:__ZN23CloudWebServicesManager23VirtualRedirectTransferER14SafeBinaryRead
Gqd:_FixedSizeArrayListWrapper_InsertRange_m2690348965
RBb:__Z19ShouldTransferFieldR32SerializationCommandQueueBuilder17ScriptingClassPtriR18TransferField_InfoRK20CoreScriptingClasses
WEg:_FieldInfo_get_IsStatic_m1411173225
h$e:_MemoryStream_Read_m2289595005
xL:__ZN5audio5mixer22UpdateAudioMixerMemoryERKNS0_18AudioMixerConstantERNS0_16AudioMixerMemoryEfPN4FMOD6SystemEf
VGc:__ZL21InitializeCachedStripPv
j7c:_SignatureDescription_set_DigestAlgorithm_m3219799565
Dkj:__ZN6il2cpp6icalls8mscorlib6System9Threading6Thread23GetCachedCurrentCultureEP12Il2CppThread
yeg:__ZL94PlayerEditorConnectionEvents_t2252784345_CustomAttributesCacheGenerator_messageTypeSubscribersP21CustomAttributesCache
orh:_Selectable_get_allSelectables_m3045831006
ITa:__ZNK6Camera22GetWorldToCameraMatrixEv
vkd:_ArrayTypeMismatchException__ctor_m2892687300
Asj:__ZN6il2cpp2vm12GenericClass11IsValueTypeEP18Il2CppGenericClass
cfe:_Dictionary_2_Do_CopyTo_TisKeyValuePair_2_t3716250094_TisIl2CppObject_m715850636_gshared
eBb:__ZN13MonoBehaviour7SetNameEPKc
flf:_ContentInfo__ctor_m3579805263
Dxc:__ZN25b2PolygonAndCircleContact7DestroyEP9b2ContactP16b2BlockAllocator
wqh:_ScrollRect_get_verticalNormalizedPosition_m1701804869
Pla:__ZN18AwakeFromLoadQueue5ClearEv
Obh:_Enumerator_get_Current_m2986380627_AdjustorThunk
WZa:__ZNSt3__27__sort5IR15ReflProbeSorterPP15ReflectionProbeEEjT0_S6_S6_S6_S6_T_
e3b:__ZN8Playable10DisconnectEPS_i
vk:_glGenTransformFeedbacks
aqa:__ZN13LoadOperationD2Ev
zbf:_KeyPairPersistence__ctor_m1817312194
X2d:_Array_InternalArray__ICollection_Contains_TisMark_t2724874473_m1640201705_gshared
Mpi:_ActivatedClientTypeEntry_get_ContextAttributes_m53051138
aka:__Z21PlayerStartFirstSceneb
mBg:_TypeBuilder_get_AssemblyQualifiedName_m2097258567
Rga:__ZNSt3__27__sort5IRPFbRKNS_4pairIN9ShaderLab16FastPropertyNameEN18UnityPropertySheet11UnityTexEnvEEES8_EPS6_EEjT0_SD_SD_SD_SD_T_
xxa:__ZNK7ApiGLES18GetExtensionStringEv
kEa:__ZN31TransformFeedbackSkinPoseBufferD0Ev
eRj:_emscripten_glVertexAttrib1f__wrapper
otf:_SslStreamBase_get_MightNeedHandshake_m3432170694
Xgh:_DefaultComparer_Equals_m1281232537_gshared
gp:FUNCTION_TABLE_iiiiiiiii
S_d:_InputField_set_asteriskChar_m619206227
Rvg:_DES_IsSemiWeakKey_m3967392585
m4:__Z24GetComponentOrScriptNameRN5Unity9ComponentE
$Ac:__Z22GetPhysicsGroundBody2Dv
rPe:_Comparison_1__ctor_m2159122699_gshared
tUe:_Int16_System_IConvertible_ToUInt32_m883204517_AdjustorThunk
k7f:__ZL137AnimatorControllerPlayable_t4078305555_CustomAttributesCacheGenerator_AnimatorControllerPlayable_CrossFade_m2119841183____normalizedTime3P21CustomAttributesCache
xIg:_MonoProperty_get_PropertyType_m1921201152
FTd:_FloatTween_TweenValue_m3881535116_AdjustorThunk
gzj:_GC_allochblk
K$c:__ZN22BaseUnityConnectClient19SendAppRunningEventEv
Sla:__Z15UnloadGameScenev
LVj:_glCheckFramebufferStatus__wrapper
aeg:__ZL59WriteOnlyAttribute_t14323075_CustomAttributesCacheGeneratorP21CustomAttributesCache
MB:__ZN16MecanimAnimationD0Ev
qhf:_BigInteger_get_Rng_m2525288368
trg:_BinaryCommon_IsPrimitive_m2132448955
zx:__ZN7mecanim9animation14DeltasFromClipERKNS0_18ClipMuscleConstantERKNS0_12ClipBindingsERKNS_14ValueArrayMaskERNS_10ValueArrayESB_SB_
MCf:_X509ExtensionEnumerator_Reset_m3200687545
Vrd:_CaseInsensitiveHashCodeProvider__ctor_m3775398833
xHh:_Comparer_1_System_Collections_IComparer_Compare_m674728644_gshared
Y1f:__ZL80Input_t1785128008_CustomAttributesCacheGenerator_Input_GetButtonDown_m2792523731P21CustomAttributesCache
Dcc:__Z36Renderer_Get_Custom_PropSortingOrderP12Il2CppObject
pcj:__ZNK15dense_hashtableINSt3__24pairIK10KeyWrapperIPK10Il2CppTypeEjEES6_N6il2cpp8metadata14Il2CppTypeHashEN14dense_hash_mapIS6_jSB_NS6_14EqualsComparerINSA_26Il2CppTypeEqualityComparerEEENS0_9allocatorIS8_EEE9SelectKeyESF_SH_E13find_positionERS7_
iba:__ZN7Texture5ResetEv
Ptc:__ZNK14b2CapsuleShape7RayCastEP15b2RayCastOutputRK14b2RayCastInputRK11b2Transformi
a9f:__ZL82Canvas_t209405766_CustomAttributesCacheGenerator_Canvas_get_renderMode_m1816014618P21CustomAttributesCache
QHb:__Z18Transfer_BlittableI24GenerateTypeTreeTransferLb1EhEvRK29SerializationCommandArgumentsR31RuntimeSerializationCommandInfo
ctb:__ZN10VertexData10DeallocateEv
cFc:__ZN10Collider2D16TransformChangedEi
T9i:__ZNSt3__214__split_bufferIiRNS_9allocatorIiEEEC2EjjS3_
y8b:__ZNK16TypeTreeIterator10ByteOffsetEv
N6d:_Array_FindLastIndex_TisIl2CppObject_m3885928623_gshared
sWd:_Graphic_get_rectTransform_m2697395074
t6:__ZnwjRKSt9nothrow_t
ds:__ZN8Animator11ClearObjectEv
wyb:__ZNSt3__26vectorIi13stl_allocatorIiL18MemLabelIdentifier12ELi16EEE8__appendEj
Q8:__Z20PlayerLoadFirstSceneb
gfa:__ZN14SafeBinaryRead19TransferSTLStyleMapINSt3__23mapI39DeprecatedFastPropertyNameSerializationN18UnityPropertySheet11UnityTexEnvENS1_4lessIS3_EENS1_9allocatorINS1_4pairIKS3_S5_EEEEEEEEvRT_17TransferMetaFlags
Kec:__Z45Register_UnityEngine_MonoBehaviour_IsInvokingv
pSh:__Z65RuntimeInvoker_Void_t1841601450_Int64_t909078037_Int64_t909078037PK10MethodInfoPvPS2_
yxf:_IPv6Address_set_ScopeId_m1442934355
hAc:__ZNSt3__27__sort4IRPFbPN10ClipperLib13IntersectNodeES3_EPS3_EEjT0_S8_S8_S8_T_
hKf:__ZL72PKCS12_t1362584794_CustomAttributesCacheGenerator_U3CU3Ef__switchU24mapBP21CustomAttributesCache
Ksg:_ObjectManager_RaiseOnDeserializedEvent_m512850179
i9f:__ZL83Canvas_t209405766_CustomAttributesCacheGenerator_Canvas_get_renderOrder_m2874842494P21CustomAttributesCache
zeg:__ZL87PlayerEditorConnectionEvents_t2252784345_CustomAttributesCacheGenerator_connectionEventP21CustomAttributesCache
K$f:__ZL86Camera_t189460977_CustomAttributesCacheGenerator_Camera_get_allCamerasCount_m989474043P21CustomAttributesCache
m7b:__Z35UnregisterSerializationCacheBuilderPFv17ScriptingClassPtrR23CachedSerializationDataRbE
Ida:__Z30GetBuiltinVectorParamArraySize24BuiltinShaderVectorParam
J2h:__Z31RuntimeInvoker_Axis_t1431825778PK10MethodInfoPvPS2_
wbj:__ZNSt3__218uninitialized_copyIPNS_4pairIK10KeyWrapperINS1_IPK14Il2CppAssemblyP11Il2CppClassEEEjEESC_EET0_T_SE_SD_
w6e:_CodePointIndexer__ctor_m797342079
Rig:__ZL64InputField_t1631627530_CustomAttributesCacheGenerator_m_LineTypeP21CustomAttributesCache
dSf:__ZL61KeyedHashAlgorithm_t1374150027_CustomAttributesCacheGeneratorP21CustomAttributesCache
AMi:_Predicate_1__ctor_m3243601712_gshared
tgg:__ZL103PointerEventData_t1599784723_CustomAttributesCacheGenerator_PointerEventData_set_clickCount_m2095939005P21CustomAttributesCache
_ob:__ZN21RendererUpdateManager11AddRendererER8Renderer
CYb:__Z13RegisterClassI15ResourceManagerEvv
atg:_SerializationEntry_t3485203212_marshal_pinvoke_back
hsb:__ZN14SafeBinaryRead21TransferSTLStyleArrayI13dynamic_arrayIfLj4EEEEvRT_17TransferMetaFlags
BUf:__ZL79Thread_t241561612_CustomAttributesCacheGenerator_Thread_GetHashCode_m2038641494P21CustomAttributesCache
Wsj:__ZN6il2cpp5utils11StringUtils11Utf16ToUtf8EPKDs
_Gg:_MonoEventInfo_GetEventInfo_m2331957186
S0c:__ZN11UnityEngine15PlatformWrapper20IsRootedOrJailbrokenEv
pAf:_X509Certificate2_GetNameInfo_m402390219
e$a:__Z33IntersectAABBPlaneBoundsOptimizedRK4AABBPKN4math7_float4Ei
skd:_Swapper_BeginInvoke_m2652511022
k7g:_RectOffset_t3387826427_marshal_pinvoke_back
hMg:_UTF8Encoding_GetBytes_m2973831055
hta:__ZN9GfxDevice19EndGeometryJobFrameEv
OTh:__Z49RuntimeInvoker_SByte_t454417549_Int32_t2071877448PK10MethodInfoPvPS2_
_Oe:_Comparison_1_Invoke_m2645957248_gshared
LHb:__ZN27Converter_SimpleNativeClassI17AnimationCurveTplIfEE17ScriptingToNativeER18ScriptingObjectPtrPS1_
EUh:__Z197RuntimeInvoker_Boolean_t3825574718_Il2CppObject_Il2CppObject_Il2CppObject_Int32_t2071877448_DateTimeU26_t3448131235_SByte_t454417549_BooleanU26_t3168250738_SByte_t454417549_ExceptionU26_t1467204777PK10MethodInfoPvPS2_
ZEj:__ZN6il2cpp8metadata24Il2CppGenericInstCompare7CompareERK10KeyWrapperIPK17Il2CppGenericInstES8_
a0i:__ZNK15dense_hashtableINSt3__24pairIK10KeyWrapperIPK19Il2CppGenericMethodEPK26Il2CppGenericMethodIndicesEES6_N6il2cpp8metadata23Il2CppGenericMethodHashEN14dense_hash_mapIS6_SA_SE_NS6_14EqualsComparerINSD_26Il2CppGenericMethodCompareEEENS0_9allocatorISB_EEE9SelectKeyESI_SK_E5beginEv
JWd:_Graphic_get_materialForRendering_m2600868951
Upf:_TlsClientSettings_get_ClientCertificate_m89435195
CRf:__ZL61AsymmetricAlgorithm_t784058677_CustomAttributesCacheGeneratorP21CustomAttributesCache
Vmi:_AnimatorControllerPlayable_INTERNAL_CALL_PlayInternal_m3496633968
BDg:__ZN21InterfaceFuncInvoker1IiP12MemberInfo_tE6InvokeEjP11Il2CppClassP12Il2CppObjectS1_
k6h:__Z54RuntimeInvoker_Void_t1841601450_ILTokenInfo_t149559338PK10MethodInfoPvPS2_
lCe:_Collection_1_System_Collections_IList_Contains_m3210868188_gshared
fyi:_AnchorInfo_get_IgnoreCase_m2406760852
jGa:__ZN9GfxDevice22UploadTextureCubeArrayE9TextureIDPKhjii13TextureFormati18TextureUploadFlags17TextureColorSpace
ZZb:__ZNK17AnimationCurveTplIfE8EvaluateEfPNS0_5CacheE
ELa:__Z31ManagerContextInitializeClassesv
y6i:__ZNSt3__213__vector_baseIP9FieldInfoNS_9allocatorIS2_EEED2Ev
Msf:_TlsException_get_Alert_m4022765752
tMc:_ft_smooth_transform
_Kf:__ZL53SortedList_t3004938869_CustomAttributesCacheGeneratorP21CustomAttributesCache
GJc:_UNITY_FT_List_Finalize
KEj:__ZN6il2cpp6icalls8mscorlib6System7Runtime8Remoting10Activation18ActivationServices34AllocateUninitializedClassInstanceEP20Il2CppReflectionType
WUa:__Z20LightAttenuateApproxRKfS0_
s1:__ZN9Scripting30SetCachedPtrOnScriptingWrapperE18ScriptingObjectPtrP6Object
_H:__ZNK12AudioManager26GetTypeInfoVirtualInternalEv
sKb:__Z18Transfer_BlittableI19StreamedBinaryWriteILb0EELb0EdEvRK29SerializationCommandArgumentsR31RuntimeSerializationCommandInfo
eab:__ZN17LowLevelAllocator6MallocEj
ngd:_ASCIIEncoding_GetBytes_m3649277167
OWg:_GUILayoutUtility_Internal_GetWindowRect_m1287880151
nLh:__Z49RuntimeInvoker_Char_t3454481338_Int32_t2071877448PK10MethodInfoPvPS2_
Teh:_Dictionary_2__ctor_m2457723796_gshared
iwc:__ZN16b2PrismaticJoint4DumpEv
B$h:__Z49RuntimeInvoker_Il2CppObject_Il2CppObject_IntPtr_tPK10MethodInfoPvPS2_
V4e:_MonoType_GetObjectData_m2888677152
Noa:__ZN18BlockRangeInternal16PopLastNodeIndexEP10BlockRangeji
jVg:_Version__ctor_m2972638031
wje:_Enumerator_System_Collections_IEnumerator_Reset_m886102771_AdjustorThunk
O9e:_Kernel_MultiplyByDword_m155008287
xrb:__ZN4MeshD0Ev
O3c:__ZL42RequestRecreateEyeTexturesBeforeNextUpdatev
Fch:_ValueCollection_System_Collections_Generic_ICollectionU3CTValueU3E_get_IsReadOnly_m3005456072_gshared
SKe:_ReadOnlyCollection_1_System_Collections_ICollection_get_SyncRoot_m1577944046_gshared
Yca:__ZNK6Camera20IsCurrentlyRenderingEv
Xlh:_LayoutUtility_U3CGetMinHeightU3Em__4_m1769295917
a_c:__Z36CanvasRenderer_CUSTOM_SetPopMaterialP12Il2CppObjectS0_i
uSf:__ZL58RijndaelManaged_t1034060848_CustomAttributesCacheGeneratorP21CustomAttributesCache
kpc:__Z18Transfer_BlittableI9JSONWriteLb0EdEvRK29SerializationCommandArgumentsR31RuntimeSerializationCommandInfo
zOa:_UNITY_png_write_info_before_PLTE
Gvc:__ZNK11b2GearJoint16GetReactionForceEf
k0e:_TextReader__ctor_m3276128267
nne:_List_1_System_Collections_Generic_ICollectionU3CTU3E_get_IsReadOnly_m3598018290_gshared
eJe:_ReadOnlyCollection_1_System_Collections_IList_Insert_m3679749778_gshared
Cuh:_Toggle_OnDidApplyAnimationProperties_m325835214
fHj:_wctomb
xac:__Z27Camera_CUSTOM_GetAllCamerasP11Il2CppArray
fBb:__ZNK13MonoBehaviour25GetNeedsPerObjectTypeTreeEv
LKj:__ZNSt11logic_errorD0Ev
Yvd:_Convert_InternalFromBase64String_m3682756716
bd:___cxa_rethrow
Iqc:__Z18Transfer_BlittableI8JSONReadLb1EhEvRK29SerializationCommandArgumentsR31RuntimeSerializationCommandInfo
kDc:__ZN18Overlap2DQueryBase13ReportFixtureEP9b2Fixture
hag:__ZL86GUI_t4082743951_CustomAttributesCacheGenerator_U3CnextScrollStepTimeU3Ek__BackingFieldP21CustomAttributesCache
X6b:__ZN10systeminfo23SupportsLocationServiceEv
g2f:__ZL85Input_t1785128008_CustomAttributesCacheGenerator_Input_get_touchSupported_m3352846145P21CustomAttributesCache
GQ:__ZNKSt3__26__treeINS_12__value_typeIN4core12basic_stringIcNS2_20StringStorageDefaultIcEEEES6_EENS_19__map_value_compareIS6_S7_NS_4lessIS6_EELb1EEENS_9allocatorIS7_EEE4findIS6_EENS_21__tree_const_iteratorIS7_PNS_11__tree_nodeIS7_PvEEiEERKT_
Dxi:_Regex_System_Runtime_Serialization_ISerializable_GetObjectData_m4035555909
hPg:_TimeSpan_Add_m3228293154
_gh:_DefaultComparer_Equals_m4098991076_gshared
R2a:__ZN13MonoBehaviour8SetClassE17ScriptingClassPtr18ScriptingObjectPtr
Mkf:_RC4__cctor_m523650203
Jsi:_CrossContextDelegate_Invoke_m2908136830
sKi:_Locale_GetText_m3480617287
Rgf:_ApplicationIdentity_ToString_m800036884
bV:__ZN20LocalFileSystemPosix4ReadER13FileEntryDatayyPvPy
vYa:__ZNSt3__211__sift_downIRN23ForwardShaderRenderLoop18RenderObjectSorterILb0EEEP21ForwardRenderPassDataEEvT0_S7_T_NS_15iterator_traitsIS7_E15difference_typeES7_
q2e:_UnmanagedMemoryStream_get_Position_m4093669769
kQf:__ZL83MethodDictionary_t1742974787_CustomAttributesCacheGenerator_U3CU3Ef__switchU24map21P21CustomAttributesCache
HNj:dynCall_iiiiiiffiiiiiiiiiffffiiii
uBb:__ZN13MonoBehaviour5DoGUIENS_13GUILayoutTypeEii
Yhf:_Kernel_Multiply_m1938858919
gBg:_DerivedType_IsDefined_m555719351
Vui:_Mark_get_IsDefined_m3332701456
t9a:__ZNK12TLSAllocatorI14StackAllocatorE8ContainsEPKv
bwb:__ZN11TimeManager8TransferI18StreamedBinaryReadILb0EEEEvRT_
XUb:__ZN15SerializeTraitsINSt3__23mapI4PPtrI6ShaderEN4core12basic_stringIcNS5_20StringStorageDefaultIcEEEENS0_4lessIS4_EENS0_9allocatorINS0_4pairIKS4_S9_EEEEEEE8TransferI24GenerateTypeTreeTransferEEvRSH_RT_
Ucf:_EncryptedPrivateKeyInfo__ctor_m3964541963
awg:_DESTransform__cctor_m1179482644
Qih:_EqualityComparer_1_System_Collections_IEqualityComparer_GetHashCode_m1465362976_gshared
k4g:_Object_t1021602117_marshal_pinvoke_cleanup
Lrb:__ZN14BlendShapeData8TransferI14SafeBinaryReadEEvRT_
zGi:_TextGenerator_PopulateWithErrors_m467881283
vHd:_Enum_Format_m2294492821
wVf:__ZL81Convert_t2607082565_CustomAttributesCacheGenerator_Convert_ToDateTime_m3810846875P21CustomAttributesCache
rlb:__ZN7Texture25ReloadFromStorageIfNeededEPvb
Ryb:__ZN24GenerateTypeTreeTransfer8TransferINSt3__26vectorIN30RuntimeInitializeOnLoadManager15ClassMethodInfoE13stl_allocatorIS4_L18MemLabelIdentifier12ELi16EEEEEEvRT_PKc17TransferMetaFlags
lgg:__ZL106PointerEventData_t1599784723_CustomAttributesCacheGenerator_PointerEventData_set_pressPosition_m2094137883P21CustomAttributesCache
eah:_ShimEnumerator_get_Entry_m2332479818_gshared
yLd:_BaseRaycaster_get_priority_m247683215
qCd:_DateTime_CheckDateTimeKind_m329345155_AdjustorThunk
xZi:__ZL25UnresolvedVirtualCall_212P12Il2CppObject38CustomAttributeNamedArgument_t94157543PK10MethodInfo
OUc:_Update_Max
lni:_PlayableHandle_Equals_m1435096530_AdjustorThunk
qkj:__ZN6il2cpp6icalls8mscorlib6SystemL15ThrowNoWideningEv
_mg:__ZL93gameController_t3294668058_CustomAttributesCacheGenerator_gameController_SpawnObs_m1228338094P21CustomAttributesCache
h_b:__ZNK23TransformChangeDispatch24GetChangeMaskForInterestENS_12InterestTypeE
Wgc:__Z45Transform_CUSTOM_INTERNAL_CALL_TransformPointP12Il2CppObjectRK8Vector3fRS1_
VBe:__ZN23InterfaceActionInvoker2Ii18Color32_t874517518E6InvokeEjP11Il2CppClassP12Il2CppObjectiS0_
Y8a:__ZL10KeyHandleriPK23EmscriptenKeyboardEventPv
d2i:__ZN14dense_hash_mapI10KeyWrapperI13dynamic_arrayIPK10Il2CppTypeLj4EEEPFvvEN6il2cpp8metadata19Il2CppSignatureHashENS6_14EqualsComparerINSA_22Il2CppSignatureCompareEEENSt3__29allocatorINSF_4pairIKS6_S8_EEEEEC2EjRKSB_RKSE_
Ffa:__ZNSt3__26__treeINS_12__value_typeI39DeprecatedFastPropertyNameSerializationfEENS_19__map_value_compareIS2_S3_NS_4lessIS2_EELb1EEENS_9allocatorIS3_EEE7destroyEPNS_11__tree_nodeIS3_PvEE
kOc:_tt_cmap4_char_index
tYh:__Z54RuntimeInvoker_Void_t1841601450_Vector2U26_t3911752445PK10MethodInfoPvPS2_
Bci:_AsyncOperation_get_allowSceneActivation_m2825451182
IPg:_TimeSpan_op_Addition_m3421801803
NJa:__ZNK12HandlerChain8IsHiddenERK13FileEntryData
jig:__ZL50Graphic_t2426225576_CustomAttributesCacheGeneratorP21CustomAttributesCache
dHb:__ZL26Transfer_SimpleNativeClassI17RemapPPtrTransfer10RectOffsetLb0EEvRK29SerializationCommandArgumentsR31RuntimeSerializationCommandInfo
hKc:__Z14ValidateFormatR13dynamic_arrayIN20TextRenderingPrivate16TextFormatChangeELj4EE
$ne:_List_1__ctor_m2672294496_gshared
QIi:_Vector2_op_Implicit_m1064335535
sBd:_DateTime_System_IConvertible_ToInt32_m2789391054_AdjustorThunk
waf:_ASN1Convert_FromInt32_m1541043489
AOd:_PointerInputModule_ProcessMove_m3200120346
Fwd:_Convert_ToByte_m1008221737
Njf:_MD2Managed_MD2Transform_m3825201358
_Ce:_Collection_1_System_Collections_IList_IndexOf_m3976312928_gshared
Rjg:__ZL69Scrollbar_t3248359358_CustomAttributesCacheGenerator_m_OnValueChangedP21CustomAttributesCache
Ohe:_KeyValuePair_2__ctor_m3201181706_gshared
Ozc:__ZN10ClipperLib14PointInPolygonERKNS_8IntPointEPNS_5OutPtE
kog:_SoapFieldAttribute_get_XmlElementName_m4100905008
MUd:_Dropdown_AddOptions_m835420907
Wfg:__ZL107PointerEventData_t1599784723_CustomAttributesCacheGenerator_PointerEventData_get_rawPointerPress_m448871540P21CustomAttributesCache
Kda:__ZNK9ShaderLab20ShaderBlendStateDesc15ToGfxBlendStateEPK19ShaderPropertySheetS3_R13GfxBlendState
RKf:__ZL92Hashtable_t909839986_CustomAttributesCacheGenerator_Hashtable_t909839986____hcp_PropertyInfoP21CustomAttributesCache
aSd:_CanvasUpdateRegistry_IsRebuildingLayout_m1677873278
QBc:__ZN15dense_hashtableINSt3__24pairIKNS1_IPK10Collider2DS4_EE11Collision2DEES5_NS2_23ColliderPairHashFunctorEN14dense_hash_mapIS5_S7_S9_NS0_8equal_toIS5_EE13stl_allocatorIS8_L18MemLabelIdentifier65ELi16EEE9SelectKeyESC_SF_E9copy_fromERKSI_j
qZh:__Z64RuntimeInvoker_Boolean_t3825574718_PlayableHandleU26_t3483893774PK10MethodInfoPvPS2_
$v:__ZN11UnityEngine9AnimationL22GenericBindingCallbackEPvS1_i
wUc:_Compute_Point_Displacement
HUb:__ZN9ShaderLab9IntShaderC2Ev
o7i:__ZN6il2cpp6icalls8mscorlib6SystemL9IsPrivateEPK9EventInfo
zDj:__ZN6il2cpp6icalls8mscorlib6System10Reflection4Emit11TypeBuilder20setup_internal_classEP27Il2CppReflectionTypeBuilderS7_
Ryh:_InternalEnumerator_1_System_Collections_IEnumerator_Reset_m3237341717_AdjustorThunk
ZXg:_RectOffset_set_left_m620681523
$4g:_Physics2D_Raycast_m2560154475
owh:_ArrayReadOnlyList_1_IndexOf_m1809425308_gshared
F5h:__Z61RuntimeInvoker_Int32_t2071877448_ResourceCacheItem_t333236149PK10MethodInfoPvPS2_
w8i:_il2cpp_gc_disable
jE:__Z69AnimatorControllerPlayable_CUSTOM_INTERNAL_CALL_GetLayerIndexInternalR9HPlayableP12Il2CppString
jNd:_ExecuteEvents_U3Cs_HandlerListPoolU3Em__0_m2903690915
Ltd:_Hashtable_Clone_m165405752
lwc:__ZN16b2PrismaticJoint24SolveVelocityConstraintsERK12b2SolverData
pNf:__ZL61CallingConventions_t1097349142_CustomAttributesCacheGeneratorP21CustomAttributesCache
yKh:__Z140RuntimeInvoker_Boolean_t3825574718_Il2CppObject_Int32_t2071877448_Il2CppObject_SByte_t454417549_Int64U26_t763825331_ExceptionU26_t1467204777PK10MethodInfoPvPS2_
Hgi:_Component_BroadcastMessage_m444672650
l0c:__ZN11UnityEngine15PlatformWrapper19GetPhysicalMemoryMBEv
chg:__ZL144U3CStartU3Ec__Iterator0_t3220237554_CustomAttributesCacheGenerator_U3CStartU3Ec__Iterator0_System_Collections_IEnumerator_get_Current_m290565900P21CustomAttributesCache
fW:__Z15CreateDirectoryRKN4core12basic_stringIcNS_20StringStorageDefaultIcEEEE
Uma:__Z21CalculateGlobalMatrix23TransformAccessReadOnly
LJf:__ZL70InternalsVisibleToAttribute_t1037732567_CustomAttributesCacheGeneratorP21CustomAttributesCache
QYe:_MonoIO_GetCurrentDirectory_m1509324201
j8c:_SHA384Managed_adjustByteCounts_m410900820
uLg:_UTF32Encoding_GetHashCode_m4205784236
Rof:_Context_get_ReceivedConnectionEnd_m3369356276
mhg:__ZL73U3COnFinishSubmitU3Ec__Iterator0_t99135383_CustomAttributesCacheGeneratorP21CustomAttributesCache
AYb:__Z13RegisterClassI14RenderSettingsEvv
fGi:_TextGenerator_Finalize_m4242493229
yye:_Collection_1_ConvertItem_m3563206219_gshared
FPg:_TimeSpan_Subtract_m3597791685_AdjustorThunk
RGg:_MonoCMethod_get_Name_m764669486
Fmi:_AnimatorControllerPlayable_CrossFade_m3146661810
bz:__ZN7mecanim12statemachine24CreateStateMachineOutputEPKNS0_20StateMachineConstantEjRNS_6memory9AllocatorE
B1g:_Logger__ctor_m3834134587
I7i:_il2cpp_assembly_get_image
Gta:__ZNK9GfxDevice27GetActiveRenderSurfaceWidthEv
w4d:_SetPropertyUtility_SetClass_TisIl2CppObject_m3524554928_gshared
fbb:__ZNK11AssetBundle26GetTypeInfoVirtualInternalEv
D0c:__ZN11UnityEngine15PlatformWrapper28GetCleanGraphicsFixedVersionEv
X7a:__ZN16MemoryFileSystem5WriteER13FileEntryDatayyPvPy
w:tempBigIntP
zaj:__ZN6il2cpp2vm4Type7GetTypeEPK10Il2CppType
MEf:_Interval_t2354235237_marshal_pinvoke_cleanup
X6g:_Rect_Contains_m1334685291_AdjustorThunk
P_b:__ZN16SpriteRenderData28PrepareRenderingDataIfNeededEv
xkd:_AssemblyLoadEventHandler_Invoke_m108373765
zOd:_PointerInputModule_ShouldStartDrag_m4163638715
Ghg:__ZL61Dropdown_t1985816271_CustomAttributesCacheGenerator_m_OptionsP21CustomAttributesCache
XWi:__ZL24UnresolvedVirtualCall_76P12Il2CppObjectPK10MethodInfo
xN:__ZN11AudioModule16SetListenerPauseEb
gPa:__Z16FindCameraStacksRKNSt3__24listI4PPtrI6CameraENS_9allocatorIS3_EEEERNS_6vectorI11CameraStackNS4_ISA_EEEE
rKi:_WebRequestUtils__cctor_m893658947
gnb:__ZN10GISettings8TransferI14SafeBinaryReadEEvRT_
yn:FUNCTION_TABLE_vifff
JLe:_ReadOnlyCollection_1_System_Collections_Generic_ICollectionU3CTU3E_Remove_m2957273994_gshared
sLd:_BaseInputModule_ShouldActivateModule_m2899747874
sba:__ZN13RenderTexture13ApplySettingsEv
_Tf:__ZL92UTF8Encoding_t111055448_CustomAttributesCacheGenerator_UTF8Encoding_GetByteCount_m2547312609P21CustomAttributesCache
$e:_JS_Sound_SetListenerPosition
rn:FUNCTION_TABLE_fiffi
xEg:_ModuleBuilderTokenGenerator_GetToken_m3427457873
EAb:__ZN9TextAsset9SetScriptERKN4core12basic_stringIcNS0_20StringStorageDefaultIcEEEEb
Drh:_Selectable_get_isPointerInside_m3162215687
nme:_List_1_System_Collections_IList_Contains_m149594880_gshared
brj:__ZNK15dense_hashtableINSt3__24pairIK10KeyWrapperINS1_IPKcS4_EEEiEES6_24NamespaceAndNamePairHashN14dense_hash_mapIS6_iS9_NS6_14EqualsComparerI26NamespaceAndNamePairEqualsEENS0_9allocatorIS8_EEE9SelectKeyESD_SF_E10test_emptyERK24dense_hashtable_iteratorIS8_S6_S9_SH_SD_SF_E
cWf:__ZL78Convert_t2607082565_CustomAttributesCacheGenerator_Convert_ToSByte_m2585959569P21CustomAttributesCache
$6g:_Rect_Overlaps_m4145874649
KUg:_UnauthorizedAccessException__ctor_m3480402128
L9e:_BigInteger_op_Modulus_m3788401748
jti:_ArgInfo_GetInOutArgs_m3184132151
ala:__ZNK8Material16MarkDependenciesER27GarbageCollectorThreadState
xUf:__ZL85Thread_t241561612_CustomAttributesCacheGenerator_Thread_get_CurrentThread_m3667342817P21CustomAttributesCache
mpc:__ZL17Transfer_GUIStyleI9JSONWriteLb0EEvRK29SerializationCommandArgumentsR31RuntimeSerializationCommandInfo
USa:__Z28GetHaloVertexPositionsStereoP8Vector3fRKS_S2_f
Nja:__ZN6prcoreL27StretchGenericFloatBilinearI15TexFormatRGHalfEEvPKNS_9InnerInfoE
Tdg:__ZL85UnityEvent_1_t4075366602_CustomAttributesCacheGenerator_UnityEvent_1__ctor_m152711818P21CustomAttributesCache
gje:_Enumerator_MoveNext_m598197344_AdjustorThunk
Qhi:_DisplaysUpdatedDelegate_Invoke_m3646339243
TFi:_TextGenerationSettings_t2543476768_marshal_pinvoke_back
lfd:_String_JoinUnchecked_m1880555587
$da:__ZNK9ShaderLab7Program21GetMatchingSubProgramEPK6ShaderPKNS_4PassERK16ShaderKeywordSetjPS7_R19ShaderSnippetResult
Bae:_Array_InternalArray__Insert_TisKeyValuePair_2_t1174980068_m2464431954_gshared
h$f:__ZL109AsyncOperation_t3814632279_CustomAttributesCacheGenerator_AsyncOperation_set_allowSceneActivation_m3988498951P21CustomAttributesCache
wfc:__Z49Register_UnityEngine_Resources_GetBuiltinResourcev
wyi:_BalancingGroup_set_Balance_m3452171919
wOc:_tt_cmap10_char_index
IUd:_Dropdown_Awake_m335654827
l6:__Z18GetITerrainManagerv
Hfh:_Dictionary_2_U3CCopyToU3Em__0_m1479035402_gshared
Crd:_BitArray_set_Item_m3801461194
oPd:_StandaloneInputModule_get_cancelButton_m1563746440
QTi:__ZN15dense_hashtableINSt3__24pairIK10KeyWrapperIPK22Il2CppGenericParameterEP11Il2CppClassEES6_N6il2cpp5utils11PointerHashIS4_EEN14dense_hash_mapIS6_S9_SE_NS6_14EqualsComparerINS0_8equal_toIS5_EEEENS0_9allocatorISA_EEE9SelectKeyESJ_SL_E3endEv
Xed:_String_Remove_m3580114465
sLc:_UNITY_FT_Destroy_Class_cff_field_handlers
nTb:__ZN9ShaderLab22SerializedBindChannels8TransferI19StreamedBinaryWriteILb0EEEEvRT_
qIf:__ZL65Il2CppArray_CustomAttributesCacheGenerator_Array_Copy_m1969461849P21CustomAttributesCache
Rxh:_InternalEnumerator_1_MoveNext_m1791963761_AdjustorThunk
Ujc:__ZN5IMGUI20MoveWindowFromLayoutER8GUIStateiRK5RectTIfE
TNf:__ZL56ParameterInfo_t2249040075_CustomAttributesCacheGeneratorP21CustomAttributesCache
Vpi:_UrlAttribute_get_UrlValue_m3448699483
d1f:__ZL83GameObject_t1756533147_CustomAttributesCacheGenerator_GameObject_set_tag_m717375123P21CustomAttributesCache
mYg:_Mathf_Max_m1875893177
lUg:_UIntPtr__ctor_m2737768530
MJc:_UNITY_FT_Stream_ReadUShort
ldi:_Bounds_get_center_m129401026_AdjustorThunk
d$d:_InputField_OnEnable_m3797157569
Vbc:__Z51Register_UnityEngine_GUILayer_INTERNAL_CALL_HitTestv
aic:__Z50Register_UnityEngine_Object_FindSceneObjectsOfTypev
efa:__ZNSt3__26__treeINS_12__value_typeIN4core12basic_stringIcNS2_20StringStorageDefaultIcEEEES6_EENS_19__map_value_compareIS6_S7_NS_4lessIS6_EELb1EEE13stl_allocatorIS7_L18MemLabelIdentifier1ELi16EEE7destroyEPNS_11__tree_nodeIS7_PvEE
vLi:_Nullable_1__ctor_m796575255_gshared
Vxj:__ZN6il2cpp2vm8Profiler7GCEventE13Il2CppGCEvent
CBd:_DateTimeUtils_ToString_m3878360633
pkj:__ZN6il2cpp6icalls8mscorlib6SystemL16ThrowInvalidCastEPK11Il2CppClassS5_
wFh:_InternalEnumerator_1_get_Current_m3732458101_AdjustorThunk
dxb:__ZN12AspectRatios8TransferI24GenerateTypeTreeTransferEEvRT_
FPd:_StandaloneInputModule_ForceAutoSelect_m1167170508
wxh:_InternalEnumerator_1_MoveNext_m1636015243_gshared
Amf:_Context_get_ServerWriteIV_m2960700649
QPd:_TouchInputModule_Process_m1373751353
Rf:_emscripten_glUniform1fv
Zdb:__ZNK17FileSystemHandler8IsHiddenERK13FileEntryData
IMd:_ExecuteEvents_Execute_m898902863
jJ:__ZN4FMOD7Channel7setModeEj
TAg:_DerivedType_InvokeMember_m4149586013
NS:__ZN13EmscriptenWWW6CancelEv
tuf:_TlsStream_SetLength_m1460039587
$jc:__ZN11IMGUIModule12AddGUIScriptER8ListNodeI13MonoBehaviourE
pb:invoke_difi
LNd:_PointerEventData_set_rawPointerPress_m1484888025
S5:__ZL50StaticRegisterSceneLoadedCallback_LightmapSettingsPv
Qqd:_SimpleEnumerator_Clone_m215554974
ZVa:__ZN29MotionVectorRenderLoopScratch15ThreadedCleanupEv
Qm:FUNCTION_TABLE_iiffi
OXd:_GridLayoutGroup_get_cellSize_m1061731753
urj:__ZN15dense_hashtableINSt3__24pairIK10KeyWrapperINS1_IPKcS4_EEEiEES6_24NamespaceAndNamePairHashN14dense_hash_mapIS6_iS9_NS6_14EqualsComparerI26NamespaceAndNamePairEqualsEENS0_9allocatorIS8_EEE9SelectKeyESD_SF_E12expand_arrayEjN21dense_hash_map_traits17integral_constantIbLb0EEE
Rih:_EqualityComparer_1_System_Collections_IEqualityComparer_Equals_m300683774_gshared
oya:__ZN21GLESGpuProgramApplier11ApplyVectorERKN20GpuProgramParameters14ValueParameterEPK8Vector4ft
G_a:__Z17PrepareSceneNodesP11CullResults
WJi:_Vector4_ToString_m2340321043_AdjustorThunk
Kja:__ZN6prcoreL27StretchGenericFloatBilinearI18TexFormatRGBAFloatEEvPKNS_9InnerInfoE
zzi:_Parser_IsIgnoreCase_m4155598997
Hnj:__ZN15dense_hashtableINSt3__24pairIK10KeyWrapperIP14Il2CppIUnknownEjEES5_N6il2cpp5utils11PointerHashIS3_EEN14dense_hash_mapIS5_jSB_NS5_14EqualsComparerINS0_8equal_toIS4_EEEENS0_9allocatorIS7_EEE9SelectKeyESG_SI_E12expand_arrayEjN21dense_hash_map_traits17integral_constantIbLb0EEE
LQc:_cff_size_done
Wih:_EqualityComparer_1_System_Collections_IEqualityComparer_Equals_m3376587337_gshared
jQa:__ZN22RenderingCommandBuffer13GetAndCheckRTE24BuiltinRenderTextureTypeRKN9ShaderLab16FastPropertyNameEPKcPP13RenderTexture
Z4a:__ZN6Camera34UpdatePreviousViewProjectionMatrixEv
cea:__ZN9ShaderLab11ShaderState25RemoveUnsupportedProgramsEPK6Shader
_Tb:__ZL23AddGpuProgramParametersR20GpuProgramParametersRKNSt3__26vectorIN9ShaderLab20SerializedSubProgram15MatrixParameterENS1_9allocatorIS5_EEEERKNS2_INS4_15VectorParameterENS6_ISB_EEEEiP16PropertyNamesSet
H_f:__ZL179U3CCreateWhereIteratorU3Ec__Iterator1D_1_t2523986802_CustomAttributesCacheGenerator_U3CCreateWhereIteratorU3Ec__Iterator1D_1_System_Collections_IEnumerator_get_Current_m1354814095P21CustomAttributesCache
Uhc:__Z44Register_UnityEngine_Object_DestroyImmediatev
oLf:__ZL57CompareOptions_t2829943955_CustomAttributesCacheGeneratorP21CustomAttributesCache
fbc:__Z47Register_UnityEngine_Component_BroadcastMessagev
Br:__ZN18StreamedBinaryReadILb0EE21TransferSTLStyleArrayI13dynamic_arrayI4PPtrI6ObjectELj4EEEEvRT_17TransferMetaFlags
aPf:__ZL62_ConstructorBuilder_t1236878896_CustomAttributesCacheGeneratorP21CustomAttributesCache
D7b:__Z26scripting_class_has_parent17ScriptingClassPtrS_
lWe:_Int64_System_IConvertible_ToInt16_m2022633688_AdjustorThunk
m6e:_OrdinalComparer__ctor_m2952942058
dGj:__ZN6il2cpp8metadata25Il2CppGenericClassCompare7CompareEPK18Il2CppGenericClassS4_
Fu:__ZNK8Animator20IsInMatchTargetStateEv
Fm:FUNCTION_TABLE_viiifiii
Gkc:__Z36Register_UnityEngine_GUI_set_changedv
XSd:_ColorTween_get_startColor_m278546349_AdjustorThunk
icd:_Encoding_get_Unicode_m1382741113
vri:_LifetimeServices_set_SponsorshipTimeout_m1403222216
E4d:_SetPropertyUtility_SetStruct_TisFitMode_t4030874534_m2608169783_gshared
nPh:__Z64RuntimeInvoker_Single_t2076509932_Il2CppObject_Int32_t2071877448PK10MethodInfoPvPS2_
Uod:_Char_ToString_m1401375624_AdjustorThunk
r8d:_Array_InternalArray__ICollection_Add_TisTableRange_t2011406615_m147373358_gshared
Lxd:_Convert_ToDateTime_m1251728572
t8d:_Array_InternalArray__ICollection_Add_TisBoolean_t3825574718_m1009318882_gshared
EMe:_ReadOnlyCollection_1_System_Collections_IList_set_Item_m1149349508_gshared
Ny:__ZN27AnimationLayerMixerPlayable18SetInputConnectionEP8Playablei
imc:__Z42Register_UnityEngine_GUIStyle_get_wordWrapv
ksg:_ObjectReader_ReadObjectContent_m3949770110
dre:_List_1_System_Collections_ICollection_get_SyncRoot_m3031553207_gshared
Dgi:_Component_SendMessage_m4199581575
ora:__ZZ19InitializeGfxDevice20GfxCreateDeviceFlagsEN38PreLateUpdateEndGraphicsJobsLatestruct7ForwardEv
AVi:__ZN6il2cpp2vm5Class40GetInterfaceInvokeDataFromVTableSlowPathEPK12Il2CppObjectPK11Il2CppClassj
cig:__ZL69FontData_t2614388407_CustomAttributesCacheGenerator_m_AlignByGeometryP21CustomAttributesCache
Oib:__ZN20TierGraphicsSettings8TransferI18StreamedBinaryReadILb0EEEEvRT_
tth:_Text_get_font_m3115501113
zjj:__GLOBAL__sub_I_Thread_cpp
pfa:__ZN14SafeBinaryRead8TransferINSt3__24pairIN9ShaderLab16FastPropertyNameE10ColorRGBAfEEEEvRT_PKc17TransferMetaFlags
HPi:__ZL9rshift128PyS_
esg:_ObjectReader_RecordFixup_m1893348030
NBg:_EnumBuilder_GetElementType_m1228393631
nhj:__ZN14dense_hash_mapI10KeyWrapperINSt3__24pairIPK12PropertyInfoP11Il2CppClassEEEj17ReflectionMapHashIS8_ENS9_14EqualsComparerINS1_8equal_toIS8_EEEENS1_9allocatorINS2_IKS9_jEEEEE13set_empty_keyERSH_
gk:_glRenderbufferStorage
frj:__ZNK15dense_hashtableINSt3__24pairIK10KeyWrapperINS1_IPKcS4_EEEiEES6_24NamespaceAndNamePairHashN14dense_hash_mapIS6_iS9_NS6_14EqualsComparerI26NamespaceAndNamePairEqualsEENS0_9allocatorIS8_EEE9SelectKeyESD_SF_E13find_positionERS7_
AMf:__ZL80ILGenerator_t99948092_CustomAttributesCacheGenerator_ILGenerator_Emit_m116557729P21CustomAttributesCache
DFf:__ZL43Il2CppObject_CustomAttributesCacheGeneratorP21CustomAttributesCache
qdc:__Z45Register_UnityEngine_Input_get_touchSupportedv
H0c:__ZN11UnityEngine15PlatformWrapper28GetTextureFormatSupportFlagsEv
mMc:_UNITY_FT_Create_Class_pshinter_module_class
h$h:__Z103RuntimeInvoker_Void_t1841601450_Vector2U26_t3911752445_Il2CppObject_Il2CppObject_Vector2U26_t3911752445PK10MethodInfoPvPS2_
ued:_String_CompareOrdinalCaseInsensitiveUnchecked_m2002640463
mmd:_Boolean_GetHashCode_m1894638460
oRc:_cf2_setError
Kgf:_AppDomainInitializer_BeginInvoke_m2446455399
wUg:_UIntPtr_ToUInt32_m1679632738_AdjustorThunk
MLg:_UTF7Encoding_InternalGetChars_m4157428055
Nma:__Z33InterpolateLightProbeCoefficientsRK17LightProbeContextRK29LightProbeSamplingCoordinatesR20SphericalHarmonicsL2
N3f:__ZL86Texture_t2243626319_CustomAttributesCacheGenerator_Texture_Internal_GetWidth_m56137242P21CustomAttributesCache
Xbf:_SmallXmlParser_HandleBufferedContent_m3397096753
dh:_glDisable
l0d:_InputField_OnDeselect_m3963675647
Dyh:_InternalEnumerator_1_MoveNext_m1994485778_AdjustorThunk
l$c:__Z44Register_UnityEngine_Canvas_get_pixelPerfectv
cie:_KeyValuePair_2_get_Value_m1916631176_AdjustorThunk
Xyg:_MethodBase__ctor_m3951051358
Qjb:__ZN4PPtrI9Texture2DE8TransferI14SafeBinaryReadEEvRT_
ptj:__ZN6il2cpp5utils11StringUtils15StringDuplicateEPKDsj
uUd:_Dropdown_get_template_m3014799983
bDf:_BaseMachine_Scan_m122450399
Xmi:_AnimatorControllerPlayable_PlayInternal_m3385259863
Gpd:_ArrayList_CopyTo_m2353632788
eNf:__ZL71AssemblyFileVersionAttribute_t2897687916_CustomAttributesCacheGeneratorP21CustomAttributesCache
C8h:__Z33RuntimeInvoker_Color32_t874517518PK10MethodInfoPvPS2_
O5:__ZNSt3__26vectorINS_4pairIyP17VertexDeclarationEENS_9allocatorIS4_EEE6assignIPS4_EENS_9enable_ifIXaasr21__is_forward_iteratorIT_EE5valuesr16is_constructibleIS4_NS_15iterator_traitsISB_E9referenceEEE5valueEvE4typeESB_SB_
roe:_List_1_Add_m943275925_gshared
h5h:__Z100RuntimeInvoker_Int32_t2071877448_Il2CppObject_Color32_t874517518_Int32_t2071877448_Int32_t2071877448PK10MethodInfoPvPS2_
Ywg:_HMAC_get_BlockSizeValue_m603907214
qWa:__ZNK8Material12GetPassCountEv
kvd:_Enumerator__cctor_m3784927209
jWj:b110
kWj:b111
lWj:b112
fLj:_bitshift64Ashr
nWj:b114
pWj:b115
qWj:b116
Sea:__ZNK8Material26GetTypeInfoVirtualInternalEv
sEc:__ZN11Rigidbody2D23VirtualRedirectTransferER14SafeBinaryRead
H_b:__ZN14SpriteRenderer12CleanupClassEv
Qza:__ZN4crnd12crn_unpacker22decode_alpha_endpointsEv
G$a:__Z23CullDynamicObjectsUmbraPK4AABBPKN5Umbra15OcclusionBufferER9IndexList
tDe:_Collection_1_RemoveItem_m2565709010_gshared
lOc:_tt_cmap4_char_next
F0h:__Z86RuntimeInvoker_Void_t1841601450_Il2CppObject_StringU26_t638738783_StringU26_t638738783PK10MethodInfoPvPS2_
sNb:__ZN18StreamedBinaryReadILb1EE21TransferSTLStyleArrayI13dynamic_arrayIiLj4EEEEvRT_17TransferMetaFlags
JZ:__ZN17DirectorFrameTime14ResetDSPValuesEv
SZi:__ZL25UnresolvedVirtualCall_233P12Il2CppObjecti19Vector3_t2243707580PK10MethodInfo
rBi:_GeneralNames_ToString_m800435094
QQd:_BaseMeshEffect_OnDidApplyAnimationProperties_m2484799839
ERf:__ZL73AsymmetricSignatureDeformatter_t3580832979_CustomAttributesCacheGeneratorP21CustomAttributesCache
vgd:_ASCIIEncoding_GetString_m3931709239
O0f:__ZL97GameObject_t1756533147_CustomAttributesCacheGenerator_GameObject__ctor_m1633632305____components1P21CustomAttributesCache
GGa:__ZN9GfxDevice20SetComputeBufferDataE15ComputeBufferIDPKvj
jSg:_UInt16_Parse_m3560204090
Psc:__ZN8JSONRead21TransferSTLStyleArrayI13dynamic_arrayIsLj2EEEEvRT_18MemLabelIdentifier17TransferMetaFlags
XI:__ZN4FMOD7Channel11setPositionEjj
Xh:_glBindSampler
R6:__Z22CreateMutexLockedQueuev
TNe:_ReadOnlyCollection_1_System_Collections_Generic_ICollectionU3CTU3E_Clear_m964488020_gshared
ocd:_SecurityFrame_get_Domain_m3219347572_AdjustorThunk
_h:_glGetVertexAttribiv
v7c:_SHA1__ctor_m788472966
v8d:_Array_InternalArray__ICollection_Add_TisChar_t3454481338_m422084244_gshared
L$i:__ZNSt3__218uninitialized_fillIPNS_4pairIK10KeyWrapperIPKcEP11Il2CppClassEES9_EEvT_SB_RKT0_
WWc:__ZN2UI11CanvasGroup23VirtualRedirectTransferER18StreamedBinaryReadILb0EE
ibh:_Transform_1_EndInvoke_m803975703_gshared
QNe:_ReadOnlyCollection_1_get_Item_m3778245964_gshared
hXf:__ZL52EventArgs_t3289624707_CustomAttributesCacheGeneratorP21CustomAttributesCache
xli:_AnimatorControllerPlayable_GetLayerName_m2571001466
Wrc:__ZN8JSONRead8TransferIbEEvRT_PKc17TransferMetaFlagsb
Oze:_Collection_1_RemoveAt_m290627370_gshared
Vai:_AnimationEvent_get_objectReferenceParameter_m3565420672
INd:_PointerEventData_get_lastPress_m3835070463
k1g:_DefaultValueAttribute_Equals_m3216982933
izf:_X509KeyUsageExtension_Decode_m3292847033
c6:__ZN26SharedLightmapSettingsDataD2Ev
AGg:_Module_filter_by_type_name_ignore_case_m3574895736
tQf:__ZL57ProxyAttribute_t4031752430_CustomAttributesCacheGeneratorP21CustomAttributesCache
Smb:__ZN26CustomRenderTextureManager19PreAllocateMaterialEP19CustomRenderTexture
FGc:__ZN19ControllerHitReport13onObstacleHitERKN5physx23PxControllerObstacleHitE
Mrg:_ObjectReader_ReadObject_m397855326
Qyj:_GC_promote_black_lists
PYd:_Image_get_fillAmount_m3354146540
Hsc:__Z29Transfer_Blittable_ArrayFieldI8JSONRead8Vector4fEvRT_R9ArrayInfoRK23StaticTransferFieldInfo
_le:_List_1_Sort_m1518807012_gshared
oKc:__ZNK13TextRendering4Font9GetAscentEv
Zn:FUNCTION_TABLE_vf
zo:FUNCTION_TABLE_vd
TQg:_Type_GetMethod_m1930231379
Bo:FUNCTION_TABLE_vi
Yqg:_WellKnownServiceTypeEntry_ToString_m493996021
fMf:__ZL55StreamReader_t2360341767_CustomAttributesCacheGeneratorP21CustomAttributesCache
H0g:_HumanBone_get_humanName_m2091758568_AdjustorThunk
$Pf:__ZL51IMessage_t3044378324_CustomAttributesCacheGeneratorP21CustomAttributesCache
l7e:_SimpleCollator_GetContraction_m1391584430
pmd:_CultureInfo_get_InvariantCulture_m398972276
Rld:_Boolean_System_IConvertible_ToInt64_m4142756949_AdjustorThunk
E$f:__ZL84Camera_t189460977_CustomAttributesCacheGenerator_Camera_get_targetTexture_m705925974P21CustomAttributesCache
NC:__ZNK8Animator17HasBoundPlayablesEv
fEc:__ZN17Physics2DSettings8TransferI24GenerateTypeTreeTransferEEvRT_
Bjf:_HMAC_initializePad_m3828610671
m5f:__ZL68DrivenTransformProperties_t2488747555_CustomAttributesCacheGeneratorP21CustomAttributesCache
xpe:_List_1_Contains_m980727749_gshared
c7c:_RSAParameters_t1462703416_marshal_pinvoke_cleanup
Bri:_ConfigHandler_OnChars_m2004226744
zci:_AsyncOperation_get_priority_m966065939
va:invoke_iiifiii
vlj:__ZN6il2cpp2vm9Exception11FromNameMsgEPK11Il2CppImagePKcS6_S6_
nSe:_NumberFormatInfo_get_NumberDecimalDigits_m3706097953
DQg:_Type_internal_from_name_m1506974323
hn:FUNCTION_TABLE_fiiifii
gC:__ZN10HumanTrait15InitializeClassEv
YZ:__Z14GetTimeManagerv
G6f:__ZL143AnimatorControllerPlayable_t4078305555_CustomAttributesCacheGenerator_AnimatorControllerPlayable_INTERNAL_CALL_GetLayerNameInternal_m2049776925P21CustomAttributesCache
LXb:__ZneRK20SpriteTilingPropertyS1_
wZh:__Z67RuntimeInvoker_Void_t1841601450_Scene_t1684909666_Int32_t2071877448PK10MethodInfoPvPS2_
bfb:__Z12GUIDToStringRK9UnityGUIDPc
Fcb:__ZN15FileSystemEntry4LockE12FileLockModeP12FileAccessor
c2d:_Array_get_swapper_TisIl2CppObject_m1701356863_gshared
mtj:__ZN4utf88internal20is_overlong_sequenceIiEEbjT_
Ui:_glReadBuffer
SPh:__Z31RuntimeInvoker_SByte_t454417549PK10MethodInfoPvPS2_
Wqd:_SynchronizedArrayListWrapper_get_Count_m4104930530
Twg:_HashAlgorithm_get_HashSize_m2625667696
yXa:__Z30SetupBakedOcclusionForGeometrybRK26SharedLightmapSettingsDataRK15LightmapIndicesR17ShaderPassContext
sde:_Array_Resize_TisVector4_t2243707581_m1528805937_gshared
kad:_SecurityPermission_IsSubsetOf_m1087302418
lbc:__Z41Register_UnityEngine_Cursor_get_lockStatev
XWa:__Z14SetupLightmapsRK8Vector4fS1_R17ShaderPassContext
PEf:_Interval_get_Empty_m3170923997
AXg:_GUILayoutEntry_CalcWidth_m2520096159
YZb:__Z20DestroyObjectDelayedP6Objectf
tT:__ZN20DynamicHeapAllocatorI17LowLevelAllocatorED0Ev
A$d:_InputField_OnDrag_m726194348
vzc:__ZN10ClipperLib11ClipperBase5ResetEv
kpi:_GuidAttribute__ctor_m1099153635
t8e:_PreviousInfo__ctor_m1442166472_AdjustorThunk
iUa:__ZN9DepthPassD2Ev
_Bd:_DateTime_get_Kind_m1331920314_AdjustorThunk
RH:__ZN11AudioFilter6GetDSPEv
O_i:__ZN13Il2CppHashMapIPKcP11Il2CppClassN6il2cpp5utils11StringUtils12StringHasherIS1_EENS6_21CaseSensitiveComparerENSt3__29allocatorINSA_4pairIK10KeyWrapperIS1_ES3_EEEEEC2EjRKS8_RKS9_
eJc:__ZN20TextRenderingPrivate15DynamicFontData36GetFaceForCharacterIfAvailableInFontERKNS_7FontRefERKNSt3__26vectorI4PPtrIN13TextRendering4FontEE13stl_allocatorIS9_L18MemLabelIdentifier34ELi16EEEEj
Y$:__ZN19RuntimeSceneManager14CanUnloadSceneEP10UnityScene
yUa:__Z22ExtractRenderNodeQueueRK11CullResults15ExtractionFlagsR15RenderNodeQueue
oce:_Array_InternalArray__set_Item_TisContentType_t1028629049_m703420360_gshared
tuj:__ZN6il2cpp2vm6Method7GetNameEPK10MethodInfo
wxe:_List_1_set_Item_m1431784996_gshared
dH:__ZN24AudioScriptBufferManagerC2Ev
GIc:__ZNSt3__26vectorIh13stl_allocatorIhL18MemLabelIdentifier1ELi16EEE8__appendEj
JIc:__ZN20TextRenderingPrivate8FontImpl16ResetPackingDataEv
VOg:_TimeSpan_get_Hours_m3804628138_AdjustorThunk
k7d:_Array_InternalArray__IndexOf_TisLink_t865133271_m3612939760_gshared
uoc:__Z18Transfer_BlittableI9JSONWriteLb0EfEvRK29SerializationCommandArgumentsR31RuntimeSerializationCommandInfo
Fba:__Z21GetAsyncUploadManagerv
Lj:_emscripten_glDetachShader
qUg:_UIntPtr__cctor_m889490270
t6e:_SafeHandleZeroOrMinusOneIsInvalid_get_IsInvalid_m2033528032
God:_Char_IsUpper_m4083577610
aza:__ZN17GenericDynamicVBO20ReleaseChunkInternalERK21DynamicVBOChunkHandlejj
zVc:__ZL27CleanupModule_TextRenderingv
s6e:_SafeHandleZeroOrMinusOneIsInvalid__ctor_m3340306667
HHj:_fmodl
dpg:_SerializationInfo_AddValue_m902275108
VHj:_fmodf
mGe:_Collection_1_RemoveItem_m2272047354_gshared
vLb:__Z18Transfer_BlittableI18StreamedBinaryReadILb1EELb1E4AABBEvRK29SerializationCommandArgumentsR31RuntimeSerializationCommandInfo
Cca:__ZN12CachedWriter11Align4WriteEv
BVa:__Z20DoDeferredRenderLoopR17RenderLoopContextR13dynamic_arrayI16RenderObjectDataLj4EES4_RK11CullResultsRP13RenderTextureSA_Pb
Cpa:__ZNSt3__26vectorIiNS_9allocatorIiEEE21__push_back_slow_pathIKiEEvRT_
i8f:__ZL137AnimatorControllerPlayable_t4078305555_CustomAttributesCacheGenerator_AnimatorControllerPlayable_INTERNAL_CALL_ResetTriggerID_m3592790433P21CustomAttributesCache
iqa:__ZN19RuntimeSceneManager11CreateSceneEv
$tg:_RuntimeTypeHandle__ctor_m235560320_AdjustorThunk
BQc:_ps_get_standard_strings
qBe:_Collection_1_IsValidItem_m1908012838_gshared
xXa:__Z27SetupBakedOcclusionForLightbRK15SharedLightDataR17ShaderPassContext
AEj:__ZN6il2cpp2os5Mutex6UnlockEv
Ywf:__ZN21InterfaceFuncInvoker1IP13Uri_t19570940S1_E6InvokeEjP11Il2CppClassP12Il2CppObjectS1_
Hqh:_ScrollRect_OnScroll_m3346515304
f7f:__ZL137AnimatorControllerPlayable_t4078305555_CustomAttributesCacheGenerator_AnimatorControllerPlayable_CrossFadeInFixedTimeInternal_m3729673154P21CustomAttributesCache
Ymg:__ZL119U3CDeathTimerU3Ec__Iterator0_t590892158_CustomAttributesCacheGenerator_U3CDeathTimerU3Ec__Iterator0_Dispose_m3802525832P21CustomAttributesCache
cke:_Enumerator_System_Collections_IEnumerator_get_Current_m3461301268_gshared
zeh:_Dictionary_2_CopyToCheck_m1638253305_gshared
HPa:__Z18RenderImageFiltersR10RenderLoopb
sw:__ZN24dense_hashtable_iteratorINSt3__24pairIKN11UnityEngine9Animation14GenericBindingENS3_10BoundIndexEEES4_NS3_25GenericBindingHashFunctorEN14dense_hash_mapIS4_S6_S8_NS3_30GenericBindingValueArrayUniqueE13stl_allocatorIS7_L18MemLabelIdentifier1ELi16EEE9SelectKeyESA_SD_E30advance_past_empty_and_deletedEv
fT:__Z19free_alloc_internalPv18MemLabelIdentifier
yeb:__ZNK23ArchiveStorageConverter16GetDirectoryInfoEv
YZc:__Z43CanvasRenderer_Get_Custom_PropMaterialCountP12Il2CppObject
P1g:__ZN23InterfaceActionInvoker2IP21Exception_t1927440687P18Object_t1021602117E6InvokeEjP11Il2CppClassP12Il2CppObjectS1_S3_
h3a:__ZN10GameObjectD2Ev
YIe:_ReadOnlyCollection_1_System_Collections_Generic_IListU3CTU3E_set_Item_m25653560_gshared
fXg:_GUIContent_t4210063000_marshal_pinvoke_cleanup
vp:__ZN6Object23VirtualRedirectTransferER19StreamedBinaryWriteILb1EE
F8b:__ZNK9BlobWrite24HasOffsetPtrWithDebugPtrEv
ukg:__ZL68Selectable_t1490392188_CustomAttributesCacheGenerator_m_InteractableP21CustomAttributesCache
pzb:__ZN33AssetBundleLoadFromAsyncOperation12IsCrc32ValidEv
dgi:_Color32_op_Implicit_m889975790
wji:_UnityEventBase_RebuildPersistentCallsIfNeeded_m1583202007
Blf:_CertificateSelectionCallback_Invoke_m2902629105
s5:__ZN10InputEventD2Ev
IRe:_DateTimeFormatInfo_GetAllDateTimePatternsInternal_m1587126173
CIi:_Vector2_ToString_m775491729_AdjustorThunk
Jad:_Evidence__ctor_m1638117806
ZCe:__ZN21InterfaceFuncInvoker1Ib22UICharInfo_t3056636800E6InvokeEjP11Il2CppClassP12Il2CppObjectS0_
$fj:__ZNK15dense_hashtableINSt3__24pairIK10KeyWrapperIPK14Il2CppAssemblyEPK16MonoAssemblyNameEES6_N6il2cpp5utils11PointerHashIS4_EEN14dense_hash_mapIS6_SA_SF_NS6_14EqualsComparerINS0_8equal_toIS5_EEEENS0_9allocatorISB_EEE9SelectKeyESK_SM_E3endEv
xzh:_InternalEnumerator_1_Dispose_m3578333724_AdjustorThunk
N6c:_RSA_ToXmlString_m4145056574
p9:__Z20SetPlayerPauseDirect11PlayerPause
LGd:_Double_System_IConvertible_ToUInt64_m1318285078_AdjustorThunk
mHj:_isalpha
Q8i:_il2cpp_object_unbox
nph:_Selectable_FindSelectable_m2739582497
keb:__ZN17FileSystemHandler5TouchER13FileEntryData
Qvc:__ZNK12b2MotorJoint17GetReactionTorqueEf
EBd:_DateTimeUtils_ZeroPad_m86470512
v4h:__Z73RuntimeInvoker_Boolean_t3825574718_CustomAttributeNamedArgument_t94157543PK10MethodInfoPvPS2_
Z4i:__ZN6il2cpp2vmL17IsSocketAsyncCallEP14Il2CppDelegate
KFc:__Z13RegisterClassI11Rigidbody2DEvv
I1g:_Logger_IsLogTypeAllowed_m1750132386
jxj:__ZN6il2cpp2vm6String6NewLenEPKcj
Qgb:__ZN6Camera23VirtualRedirectTransferER19StreamedBinaryWriteILb0EE
Vvj:__ZN6il2cpp2os6Thread12GetApartmentEv
WGa:__ZN9GfxDevice28UpdateComputeConstantBuffersEjP12ObjectHandleI18ConstantBuffer_TagPvEjjPKhPKjS8_PKi
_k:_time
y5c:_RC2Transform__cctor_m4079629627
m6h:__Z60RuntimeInvoker_Void_t1841601450_ResourceCacheItem_t333236149PK10MethodInfoPvPS2_
LPc:_ps_hints_done
Alh:_EqualityComparer_1_System_Collections_IEqualityComparer_Equals_m1091252481_gshared
lXd:_Graphic_UnregisterDirtyLayoutCallback_m1724443555
Loa:__ZN14BatchAllocator6CommitE18MemLabelIdentifier
XRc:_cf2_stack_free
v0:__ZN15dense_hashtableINSt3__24pairIKiP6ObjectEEi21InstanceIDHashFunctorN14dense_hash_mapIiS4_S6_NS0_8equal_toIiEE13stl_allocatorIS5_L18MemLabelIdentifier65ELi16EEE9SelectKeyES9_SC_E12resize_deltaEjj
Slg:__ZL94LayoutGroup_t3962498969_CustomAttributesCacheGenerator_LayoutGroup_DelayedSetDirty_m4276695617P21CustomAttributesCache
MA:__ZN8Animator31ClearInternalControllerPlayableEv
C3a:__ZN10GameObject8TransferI24GenerateTypeTreeTransferEEvRT_
Hke:_Enumerator_VerifyState_m3913376581_gshared
vlg:__ZL72GridLayoutGroup_t1515633077_CustomAttributesCacheGenerator_m_StartCornerP21CustomAttributesCache
F_f:__ZL83U3CCreateWhereIteratorU3Ec__Iterator1D_1_t2523986802_CustomAttributesCacheGeneratorP21CustomAttributesCache
Fbj:__ZN15dense_hashtableINSt3__24pairIK10KeyWrapperINS1_IPK9FieldInfoP11Il2CppClassEEEjEES9_17ReflectionMapHashIS8_EN14dense_hash_mapIS9_jSD_NS9_14EqualsComparerINS0_8equal_toIS8_EEEENS0_9allocatorISB_EEE9SelectKeyESI_SK_E4findERSA_
hVj:_glDeleteSync__wrapper
OEi:_SerializePrivateVariables__ctor_m806793207
iyd:_Decimal_op_Implicit_m623319612
nch:_ValueCollection_System_Collections_Generic_ICollectionU3CTValueU3E_Remove_m98888100_gshared
jMd:_EventTrigger_OnPointerExit_m2119176877
TNg:_ThreadAbortException__ctor_m1623816114
h$b:__ZN13ProduceHelperI30RuntimeInitializeOnLoadManagerLb0EE7ProduceE18MemLabelIdentifier18ObjectCreationMode
s1a:__ZN13RenderTexture19SetAutoGenerateMipsEb
uha:__Z20GetTextureFormatInfo13TextureFormat
gmc:__Z43Register_UnityEngine_GUIStyle_get_alignmentv
Fz:__ZN26AnimatorControllerPlayable8GetFloatEiRf
rnh:_Shadow__ctor_m924057531
XNd:_PointerEventData_set_worldPosition_m192283671
Lze:_Collection_1_InsertItem_m1391780791_gshared
aNj:dynCall_iiifiiii
oMb:__ZN18StreamedBinaryReadILb1EE5AlignEv
wJi:_Vector3_get_right_m1884123822
VCj:__ZN6il2cpp5utils10MemoryPool6MallocEj
wG:__ZN11SoundHandle8InstanceD2Ev
w7:__ZN31CanvasBatchIntermediateRenderer13StaticDestroyEPv
uEi:_X509Store_BuildCrlsCollection_m52567568
w3i:__ZNK15dense_hashtableINSt3__24pairIK10KeyWrapperIPK11Il2CppClassEPKcEES6_N6il2cpp5utils11PointerHashIS3_EEN14dense_hash_mapIS6_S9_SE_NS6_14EqualsComparerINS0_8equal_toIS5_EEEENS0_9allocatorISA_EEE9SelectKeyESJ_SL_E10test_emptyERK24dense_hashtable_iteratorISA_S6_SE_SN_SJ_SL_E
Ysg:_CallbackHandler__ctor_m1235509347
Rge:_Array_InternalArray__get_Item_TisUICharInfo_t3056636800_m3872982785_gshared
BJe:_ReadOnlyCollection_1_System_Collections_Generic_ICollectionU3CTU3E_get_IsReadOnly_m3561954522_gshared
uHd:_Enum_ToString_m662345249
bme:_List_1_get_Capacity_m531373308_gshared
gSj:_emscripten_glBindProgramARB__wrapper
ORf:__ZL66DESCryptoServiceProvider_t933603253_CustomAttributesCacheGeneratorP21CustomAttributesCache
ibc:__Z41Register_UnityEngine_CullingGroup_Disposev
Llb:__ZN7Cubemap23VirtualRedirectTransferER19StreamedBinaryWriteILb0EE
p_h:__Z100RuntimeInvoker_Void_t1841601450_Il2CppObject_Single_t2076509932_Int32_t2071877448_Single_t2076509932PK10MethodInfoPvPS2_
QIa:__ZN25MultiBlocksMemoryFileData5WriteEyyPKv
rwc:__ZNK13b2PulleyJoint16GetReactionForceEf
pNh:__Z78RuntimeInvoker_Il2CppObject_Int64_t909078037_Int64_t909078037_Int64_t909078037PK10MethodInfoPvPS2_
Aej:__ZNSt3__218uninitialized_fillIPNS_4pairIK10KeyWrapperINS1_IPK12PropertyInfoP11Il2CppClassEEEjEESB_EEvT_SD_RKT0_
Sse:_List_1_System_Collections_IList_Add_m4271264217_gshared
fvh:_Action_1_BeginInvoke_m1305519803_gshared
MLa:__ZZ23InitPlayerLoopCallbacksvEN47InitializationAsyncUploadTimeSlicedUpdatestruct7ForwardEv
Jgj:__ZN14dense_hash_mapI10KeyWrapperIPK10Il2CppTypeEjN6il2cpp8metadata14Il2CppTypeHashENS4_14EqualsComparerINS6_26Il2CppTypeEqualityComparerEEENSt3__29allocatorINSB_4pairIKS4_jEEEEE13set_empty_keyERSE_
Wac:__Z35Component_CUSTOM_SendMessageUpwardsP12Il2CppObjectP12Il2CppStringS0_i
_Aa:__ZL17ProgramUniform2fvPK7ApiGLESjiihPKv
EIf:__ZL65Il2CppArray_CustomAttributesCacheGenerator_Array_Sort_m4096942812P21CustomAttributesCache
BIc:__ZN20TextRenderingPrivate8FontImpl21HasCharacterInTextureEjijfPj
Keb:__ZN13Lz4CompressorD0Ev
JIj:_htonl
mwa:__Z20GetBufferManagerGLESv
p6d:__ZN21InterfaceFuncInvoker1Ii18Color32_t874517518E6InvokeEjP11Il2CppClassP12Il2CppObjectS0_
xOb:__ZN18StreamedBinaryReadILb0EE21TransferSTLStyleArrayI31ArrayOfManagedObjectsTransfererEEvRT_17TransferMetaFlags
XLg:_UTF7Decoder_GetChars_m2790530452
IIj:_htons
n_h:__Z82RuntimeInvoker_Boolean_t3825574718_PlayableHandleU26_t3483893774_Int32_t2071877448PK10MethodInfoPvPS2_
$qc:__Z18Transfer_BlittableI8JSONReadLb0EtEvRK29SerializationCommandArgumentsR31RuntimeSerializationCommandInfo
_ej:__ZN15dense_hashtableINSt3__24pairIK10KeyWrapperINS1_IPK9EventInfoP11Il2CppClassEEEjEES9_17ReflectionMapHashIS8_EN14dense_hash_mapIS9_jSD_NS9_14EqualsComparerINS0_8equal_toIS8_EEEENS0_9allocatorISB_EEE9SelectKeyESI_SK_E12expand_arrayEjN21dense_hash_map_traits17integral_constantIbLb0EEE
b_g:_GUIStyle_t1799908754_marshal_pinvoke_back
TLa:__ZZ23InitPlayerLoopCallbacksvEN44EarlyUpdateResetFrameStatsAfterPresentstruct7ForwardEv
uKh:__Z49RuntimeInvoker_Int32_t2071877448_Int64_t909078037PK10MethodInfoPvPS2_
Lth:_Text_set_fontSize_m2101304336
Zlb:__ZNK7Cubemap20GetTextureLayerCountEv
nLc:_pshinter_module_class_pic_free
Ejg:__ZL68Navigation_t1571958496_CustomAttributesCacheGenerator_m_SelectOnLeftP21CustomAttributesCache
Zu:__ZN34AnimationStateMachineMixerPlayable13EndTransitionEv
pAc:__ZNSt3__26vectorIxNS_9allocatorIxEEE6assignIPxEENS_9enable_ifIXaasr21__is_forward_iteratorIT_EE5valuesr16is_constructibleIxNS_15iterator_traitsIS7_E9referenceEEE5valueEvE4typeES7_S7_
AI:__ZN12AudioManager21FixMasterGroupRoutingEv
S8c:_SymmetricAlgorithm_set_Key_m2973350820
EEc:__ZN6b2Body9SetActiveEb
Xhg:__ZL58FontData_t2614388407_CustomAttributesCacheGenerator_m_FontP21CustomAttributesCache
lyf:_WebHeaderCollection_IsHeaderValue_m1723393133
jtd:_Hashtable__ctor_m4280223555
sYd:_HorizontalOrVerticalLayoutGroup_get_childForceExpandWidth_m227100883
ruj:__ZN6il2cpp2os10ThreadImpl33UnregisterCurrentThreadForCleanupEv
Z$f:__ZL97Component_t3819376471_CustomAttributesCacheGenerator_Component_GetComponentInChildren_m3985003615P21CustomAttributesCache
Py:__ZN27AnimationLayerMixerPlayable22PrepareAnimationEventsEfR13dynamic_arrayI22AnimationClipEventInfoLj4EE
GDb:__Z18Transfer_BlittableI14SafeBinaryReadLb1E4AABBEvRK29SerializationCommandArgumentsR31RuntimeSerializationCommandInfo
Atj:__ZN6il2cpp6icalls8mscorlib6System4Enum12get_hashcodeEP12Il2CppObject
V0g:_Input_INTERNAL_get_mouseScrollDelta_m1140491498
Wki:_AnimatorControllerPlayable_SetInteger_m1311149575
Wme:_List_1_Sort_m2895170076_gshared
IU:__ZNK13ScreenManager16GetScreenTimeoutEv
jH:__ZN9AudioClip7WWWOpenEPKciPjPPvS4_
FZf:__ZL66Uri_t19570940_CustomAttributesCacheGenerator_Uri__ctor_m3854873816P21CustomAttributesCache
sXh:__Z79RuntimeInvoker_Void_t1841601450_Il2CppObject_Int32_t2071877448_Int64_t909078037PK10MethodInfoPvPS2_
zDb:__Z18Transfer_BlittableI14SafeBinaryReadLb0E8Vector2fEvRK29SerializationCommandArgumentsR31RuntimeSerializationCommandInfo
blg:__ZL101ToggleGroup_t1030026315_CustomAttributesCacheGenerator_ToggleGroup_U3CAnyTogglesOnU3Em__0_m1218114300P21CustomAttributesCache
Gxf:_IPv6Address_SwapUShort_m1481806078
Kmi:_AnimatorControllerPlayable_PlayInFixedTime_m2562520484
k_:__ZN13RuntimeStaticINSt3__23setI19RepeatingLogMessageNS0_4lessIS2_EE13stl_allocatorIS2_L18MemLabelIdentifier70ELi16EEEELb0EE16StaticInitializeEPv
Uc:_emscripten_glVertexAttrib2f
kRb:__ZN15SerializeTraitsIN9ShaderLab20SerializedSubProgram16TextureParameterEE8TransferI14SafeBinaryReadEEvRS2_RT_
Smd:_Byte_System_IConvertible_ToInt16_m1575115635_AdjustorThunk
Kqi:_CrossAppDomainData_get_ProcessID_m2865289777
Nt:__ZN11UnityEngine9Animation31SetHumanTransformPropertyValuesERKNS0_21AvatarBindingConstantERKN7mecanim8skeleton13SkeletonPoseTIN4math4trsXEEEbb
ZRg:_UInt16_System_IConvertible_ToUInt16_m1646506872_AdjustorThunk
Yri:_Context_get_HasGlobalDynamicSinks_m3205328884
K7e:_SimpleCollator_CompareQuick_m619038530
Bkg:__ZL93Selectable_t1490392188_CustomAttributesCacheGenerator_Selectable_get_isPointerDown_m774209881P21CustomAttributesCache
Qtf:_SslStreamBase_EndRead_m1072850679
Clf:_CertificateSelectionCallback_BeginInvoke_m990408067
YGa:__ZN9GfxDevice22DispatchComputeProgramE12ObjectHandleI18ComputeProgram_TagPvEjjj
nd:_SDL_GetTicks
PAe:_Collection_1_System_Collections_IList_Contains_m3345685421_gshared
rYc:__ZN2UI14CanvasRenderer11SyncCullingENS0_8SyncFlagE
ydj:__ZN15dense_hashtableINSt3__24pairIK10KeyWrapperINS1_IPK11Il2CppImageP11Il2CppClassEEEjEES9_17ReflectionMapHashIS8_EN14dense_hash_mapIS9_jSD_NS9_14EqualsComparerINS0_8equal_toIS8_EEEENS0_9allocatorISB_EEE9SelectKeyESI_SK_E6insertERKSB_
ew:__Z16AppendPathToHashRKN7mecanim5crc32EPKc
l$a:__Z21CreateShadowCullerJobP30CreateUmbraShadowCullerJobData
S1g:_Material_get_mainTexture_m432794412
SAa:__ZL18ProgramUniform2uivPK7ApiGLESjiihPKv
DQi:_U3CStartU3Ec__Iterator0_System_Collections_Generic_IEnumeratorU3CobjectU3E_get_Current_m1702093362_gshared
PTj:_glUniform4iv__wrapper
lYa:__Z33GenerateShadowCasterPartsSortDataRK16ShadowCasterDatajRK15RenderNodeQueueRKNSt3__26vectorI20ShadowCasterPartData13stl_allocatorIS7_L18MemLabelIdentifier2ELi16EEEERK10Matrix4x4fRjP20ShadowCasterSortData
Vod:_Char_GetTypeCode_m2251277629_AdjustorThunk
pke:_Enumerator_Dispose_m3109097029_AdjustorThunk
sgh:_Dictionary_2_ToTKey_m4209561517_gshared
iRc:_cf2_computeDarkening
hX:__GLOBAL__sub_I_runtime_gfxdevice_lump_cpp
Aci:_AsyncOperation_set_priority_m3581020444
c6b:__ZN12InputManager18GetAnyKeyThisFrameEv
kzj:_GC_expand_hp_inner
D1i:__ZNK15dense_hashtableINSt3__24pairIK10KeyWrapperI13dynamic_arrayIPK10Il2CppTypeLj4EEEPFvvEEES8_N6il2cpp8metadata19Il2CppSignatureHashEN14dense_hash_mapIS8_SB_SF_NS8_14EqualsComparerINSE_22Il2CppSignatureCompareEEENS0_9allocatorISC_EEE9SelectKeyESJ_SL_E12test_deletedEj
nc:invoke_viiiififfi
Gcc:__Z25Screen_Get_Custom_PropDpiv
WKb:__Z29Transfer_Blittable_ArrayFieldI19StreamedBinaryWriteILb0EEsEvRT_R9ArrayInfoRK23StaticTransferFieldInfo
mQd:_AnimationTriggers_get_disabledTrigger_m2987312382
OQa:__ZN13ComputeShader20GetCompatibleVariantE17GfxDeviceRendereri
btj:__ZN4utf812find_invalidIPKcEET_S3_S3_
HCf:_X509ExtensionCollection_System_Collections_ICollection_CopyTo_m3421329346
Eyj:_GC_err_printf
yCg:_FieldBuilder_SetValue_m3109503557
wWd:_Graphic_OnBeforeTransformParentChanged_m1866292273
yAf:_X509Certificate2_Verify_m1574874641
Wgg:__ZL58PhysicsRaycaster_t249603239_CustomAttributesCacheGeneratorP21CustomAttributesCache
oIc:__ZN20TextRenderingPrivate19NativeTextGenerator23FixLineHorizontalOffsetEiii
zlh:_EqualityComparer_1_System_Collections_IEqualityComparer_GetHashCode_m1473684243_gshared
cvd:_SortedList_GetEnumerator_m1318483481
mjd:_Array_CreateInstance_m3327690220
cWd:_FontData_UnityEngine_ISerializationCallbackReceiver_OnBeforeSerialize_m2486694676
ow:__ZN7mecanim9animation19DestroyAnimationSetEPNS0_12AnimationSetERNS_6memory9AllocatorE
cXe:_IntPtr__ctor_m2996690883_AdjustorThunk
oPh:__Z64RuntimeInvoker_Double_t4078015681_Il2CppObject_Int32_t2071877448PK10MethodInfoPvPS2_
q2:__ZN14SerializedFile7ReleaseEv
fIf:__ZL69Il2CppArray_CustomAttributesCacheGenerator_Array_GetValue_m1507415734P21CustomAttributesCache
U7a:__ZN16MemoryFileSystem4OpenER13FileEntryData14FilePermission16FileAutoBehavior
XGe:_Collection_1_Remove_m3355928137_gshared
hMh:__Z52RuntimeInvoker_UInt64_t2909196914_Decimal_t724701077PK10MethodInfoPvPS2_
i7:__ZN13RuntimeStaticI13RendererSceneLb0EE13StaticDestroyEPv
gN:__ZN12AudioManager12CleanupClassEv
uIb:__Z18Transfer_BlittableI24GenerateTypeTreeTransferLb1E12PropertyNameEvRK29SerializationCommandArgumentsR31RuntimeSerializationCommandInfo
pwb:__ZN14SafeBinaryRead21TransferSTLStyleArrayI10vector_mapIPKN5Unity4TypeE7Hash128NSt3__24lessIS5_EENS7_9allocatorINS7_4pairIS5_S6_EEEEEEEvRT_17TransferMetaFlags
iH:__ZN9AudioClip18GetQueuedAudioDataEPPvj
Z5h:__Z59RuntimeInvoker_Void_t1841601450_DictionaryEntry_t3048875398PK10MethodInfoPvPS2_
Ehh:_DefaultComparer_GetHashCode_m3439703487_gshared
I5b:__ZNK9Texture2D17CheckHasPixelDataEv
TDc:__ZN15b2ContactSolver13StoreImpulsesEv
UTa:__Z18SetShadowsKeywordsR17ShaderPassContext9LightType10ShadowType16ShadowProjectionbb
mhj:__ZN14dense_hash_mapI10KeyWrapperINSt3__24pairIPK12PropertyInfoP11Il2CppClassEEEj17ReflectionMapHashIS8_ENS9_14EqualsComparerINS1_8equal_toIS8_EEEENS1_9allocatorINS2_IKS9_jEEEEEC2EjRKSB_RKSF_
j1b:__ZN17CollisionMeshDataC2Ev
Vxg:_Assembly_GetModule_m2064378601
ROi:_UnityEvent_1_AddListener_m846589010_gshared
nWf:__ZL79Convert_t2607082565_CustomAttributesCacheGenerator_Convert_ToUInt16_m3866680988P21CustomAttributesCache
iqh:_ScrollRect_SetDirty_m93243192
Zmb:__ZN16LightmapSettings23VirtualRedirectTransferER19StreamedBinaryWriteILb0EE
gFc:__ZN19CollisionListener2DC2Ev
h4g:_MessageTypeSubscribers__ctor_m743474932
ETj:_glTexParameteriv__wrapper
$oa:__ZN18IDCollectorFunctor18GenerateInstanceIDEi17TransferMetaFlags
ube:_Array_InternalArray__set_Item_TisTableRange_t2011406615_m2386708730_gshared
pKh:__Z40RuntimeInvoker_Il2CppObject_Il2CppObjectPK10MethodInfoPvPS2_
SDc:__ZN15b2ContactSolver9WarmStartEv
hRe:_NumberFormatter_ToDecHex_m1474793296
Xjj:__ZN6il2cpp2vm6Thread8SetStateEP12Il2CppThreadNS0_11ThreadStateE
j6e:_OperatingSystem_Clone_m1943707477
XVd:_FontData_set_richText_m29558601
iOg:_Scheduler_Change_m4063588742
c3i:__ZN6il2cpp2vm13MetadataCache25GetMethodGenericContainerEPK10MethodInfo
pde:_Array_Resize_TisVector2_t2243707579_m1117258774_gshared
RQ:__ZN11UnityEngine15CloudWebService13WWWRestClientD0Ev
Twh:_InternalEnumerator_1_Dispose_m1640363425_AdjustorThunk
KEi:_HitInfo_SendMessage_m3368777144_AdjustorThunk
p2h:__Z41RuntimeInvoker_SelectionState_t3187567897PK10MethodInfoPvPS2_
npa:__ZN17PersistentManager4LockEv
Uec:__Z22PlayableValidityChecksRK9HPlayableb
c8h:__Z53RuntimeInvoker_RaycastHit_t87180320_Int32_t2071877448PK10MethodInfoPvPS2_
txb:__ZN15ResourceManagerD2Ev
Are:_List_1_Insert_m2532850849_gshared
Nac:__Z41Register_UnityEngine_Camera_GetAllCamerasv
x0f:__ZL91CullingGroup_t1091689465_CustomAttributesCacheGenerator_CullingGroup_SendEvents_m1292564468P21CustomAttributesCache
Bte:_List_1_Sort_m2659614836_gshared
ljg:__ZL154U3CCaretBlinkU3Ec__Iterator0_t906898126_CustomAttributesCacheGenerator_U3CCaretBlinkU3Ec__Iterator0_System_Collections_IEnumerator_get_Current_m2309548992P21CustomAttributesCache
f3g:_Mesh_get_vertices_m626989480
Pmh:_MaskableGraphic_OnCanvasHierarchyChanged_m2012659245
Kza:__ZN4crnd12crn_unpacker10unpack_dxnEPPhjjjjjj
r2c:__ZN28PerformanceReportingSettings8TransferI14SafeBinaryReadEEvRT_
JGh:_DefaultComparer__ctor_m3668042_gshared
Dyd:_Double_Parse_m2344589511
f5h:__Z122RuntimeInvoker_Int32_t2071877448_Il2CppObject_CustomAttributeTypedArgument_t1498197914_Int32_t2071877448_Int32_t2071877448PK10MethodInfoPvPS2_
llj:__ZN6il2cpp2vm22EmbeddedResourceRecordC2ERKS1_
qUb:__ZNSt3__26vectorIN9ShaderLab20SerializedSubProgram15VectorParameterENS_9allocatorIS3_EEE21__push_back_slow_pathIKS3_EEvRT_
FPh:__Z109RuntimeInvoker_Void_t1841601450_Int32U26_t455636984_Int32U26_t455636984_Int32U26_t455636984_Int32_t2071877448PK10MethodInfoPvPS2_
Glb:__ZN9Texture2D13AwakeFromLoadE17AwakeFromLoadMode
T8e:_Kernel_SingleByteDivideInPlace_m1760318278
b7e:_MSCompatUnicodeTableUtil__cctor_m1479836795
xzi:_PositionAssertion__ctor_m3703837499
m1d:_LayoutGroup_get_minWidth_m4111745491
K0e:_StreamWriter_Initialize_m1707678624
psj:__ZN6il2cpp2vm3RCW14QueryInterfaceILb0EEEP14Il2CppIUnknownP15Il2CppComObjectRK10Il2CppGuid
bqh:_ScrollRect_set_verticalScrollbar_m2903688658
e0g:_GUIStyle_INTERNAL_CALL_SetMouseTooltip_m1802284884
zia:__ZN6prcoreL17RemapGenericFloatI15TexFormatRFloat18TexFormatARGBFloatEEvPKNS_9InnerInfoE
Pdb:__ZNK21AssetBundleFileSystem4SizeERK13FileEntryData
pPf:__ZL50_Thread_t1894135853_CustomAttributesCacheGeneratorP21CustomAttributesCache
LAh:_InternalEnumerator_1_get_Current_m1047712960_gshared
dX:__GLOBAL__sub_I_runtime_camera_renderlayers_lump_cpp
yYi:__ZL25UnresolvedVirtualCall_159P12Il2CppObject23RaycastResult_t21186376PK10MethodInfo
c2c:__ZN11UnityEngine15PlatformWrapper20GetPlayerPrefsUInt64ERKN4core12basic_stringIcNS1_20StringStorageDefaultIcEEEEy
MXa:__ZN20ReflectionProbeCacheC2ER13BatchRendererR15RenderLoopStats
qda:__ZN7Texture23VirtualRedirectTransferER18StreamedBinaryReadILb0EE
Aph:_U3CClickRepeatU3Ec__Iterator0_System_Collections_Generic_IEnumeratorU3CobjectU3E_get_Current_m3444627780
Y7:__ZN18AssetBundleManagerC2Ev
dKa:__ZNK12HandlerChain6ExistsERK13FileEntryData
w_f:__ZL61ExtensionAttribute_t1840441203_CustomAttributesCacheGeneratorP21CustomAttributesCache
BSh:__Z88RuntimeInvoker_Boolean_t3825574718_Int16_t4041245914_Int16_t4041245914_Int32_t2071877448PK10MethodInfoPvPS2_
$yd:_Convert_ToInt32_m2734833291
CYa:__Z30FindDirectAttenuationFromProbeP18ForwardLightsBlockbiRK10RenderNodeRK23FindForwardLightsParamsf
uvb:__ZN12InputManager23VirtualRedirectTransferER24GenerateTypeTreeTransfer
_Vb:__ZN9Transform23VirtualRedirectTransferER24GenerateTypeTreeTransfer
gma:__Z18GetLODGroupManagerv
uve:_List_1_Sort_m3574220472_gshared
mUb:__ZNSt3__26vectorIN9ShaderLab20SerializedSubProgram12UAVParameterENS_9allocatorIS3_EEE21__push_back_slow_pathIKS3_EEvRT_
gai:__Z92RuntimeInvoker_Il2CppObject_CustomAttributeNamedArgument_t94157543_Il2CppObject_Il2CppObjectPK10MethodInfoPvPS2_
Cqi:_CrossAppDomainChannel_RegisterCrossAppDomainChannel_m43456045
qCf:_X509ChainElement_Count_m228862214
TPg:_TimeZone_IsDaylightSavingTime_m1840774423
QTc:_UNITY_tt_size_ready_bytecode
XGc:__ZN13TextRendering4FontD2Ev
ila:__ZN27GenericSlowGarbageCollectorD2Ev
iXh:__Z48RuntimeInvoker_Void_t1841601450_Byte_t3683104436PK10MethodInfoPvPS2_
VJc:_UNITY_FT_Stream_Open
uXc:__GLOBAL__sub_I_runtime_ui_lump_cpp
ZIa:__ZN10MemoryFile4ReadEyyPvPy
Asa:__ZN13GfxDeviceGLES26UpdateViewProjectionMatrixEv
yhi:_DebugLogHandler__ctor_m3134219506
Xqa:__ZNSt3__26vectorIN22BuiltinResourceManager8ResourceENS_9allocatorIS2_EEE21__push_back_slow_pathIKS2_EEvRT_
Fwh:_InternalEnumerator_1_System_Collections_IEnumerator_Reset_m1181480250_AdjustorThunk
MF:__ZN4FMOD3DSP12setParameterEif
E8:__ZN13MemoryManager16StaticInitializeEv
jLf:__ZL53StackFrame_t2050294881_CustomAttributesCacheGeneratorP21CustomAttributesCache
sf:___cxa_free_exception
UMe:_ReadOnlyCollection_1_System_Collections_ICollection_CopyTo_m4126742951_gshared
GJ:__ZN4FMOD22FakeModChannelCallbackEPv
yf:_emscripten_glValidateProgram
_Pa:__ZN4Mesh10CreateMeshEv
Gej:__ZN6il2cpp2gc19AppendOnlyGCHashMapINSt3__24pairIPK9EventInfoP11Il2CppClassEEP21Il2CppReflectionEvent17ReflectionMapHashIS9_ENS2_8equal_toIS9_EEE3AddERKS9_SB_
EG:__ZN4FMOD7SystemI11createSoundEPKcjP22FMOD_CREATESOUNDEXINFOPPNS_5SoundE
eFi:_Sprite_get_associatedAlphaSplitTexture_m3617241169
$qg:_ArrayFixupRecord_FixupImpl_m2377725358
dCi:_PKCS12_get_Certificates_m2320062949
GRc:_cf2_stack_clear
lGd:_Double_System_IConvertible_ToBoolean_m4251806534_AdjustorThunk
T9e:_BigInteger_op_GreaterThanOrEqual_m1998498565
iah:_ShimEnumerator_Reset_m2247049027_gshared
d7f:__ZL150AnimatorControllerPlayable_t4078305555_CustomAttributesCacheGenerator_AnimatorControllerPlayable_CrossFadeInFixedTimeInternal_m793606818____fixedTime4P21CustomAttributesCache
uzc:__ZN10ClipperLib11ClipperBase5ClearEv
t1a:__ZN7Texture13SetAnisoLevelEi
JAf:_X509Chain_Process_m2508784250
HGa:__ZN9GfxDevice20GetComputeBufferDataE15ComputeBufferIDPvj
pwe:_List_1_RemoveAt_m2929488689_gshared
RWi:__ZL24UnresolvedVirtualCall_70P12Il2CppObjectS0_S0_iS0_S0_PK10MethodInfo
MLc:_raccess_guess_vfat
d$c:__Z44Canvas_CUSTOM_GetETC1SupportedCanvasMaterialv
kEi:_X509Extension_Decode_m972859652
V6:__ZN33InstancedMeshIntermediateRenderer13StaticDestroyEPv
HUe:_Int16_Parse_m3012618547
qwi:_PatternLinkStack_set_BaseAddress_m781925478
wnj:__ZN14dense_hash_mapI10KeyWrapperIP14Il2CppIUnknownEjN6il2cpp5utils11PointerHashIS1_EENS3_14EqualsComparerINSt3__28equal_toIS2_EEEENS9_9allocatorINS9_4pairIKS3_jEEEEE13set_empty_keyERSF_
S5d:_Array_InternalArray__IEnumerable_GetEnumerator_TisVector4_t2243707581_m829381058_gshared
uhb:__Z21DestroyShadowMapCacheP14ShadowMapCache
az:__ZN7mecanim9animation25CreateControllerWorkspaceEPKNS0_18ControllerConstantERNS_6memory9AllocatorE
Q7d:_Array_InternalArray__IndexOf_TisUInt64_t2909196914_m3958307360_gshared
mXd:_Graphic_RegisterDirtyVerticesCallback_m4169445219
$fh:_Dictionary_2_get_Count_m3636113691_gshared
Mgj:__ZN15dense_hashtableINSt3__24pairIK10KeyWrapperIPK10Il2CppTypeEjEES6_N6il2cpp8metadata14Il2CppTypeHashEN14dense_hash_mapIS6_jSB_NS6_14EqualsComparerINSA_26Il2CppTypeEqualityComparerEEENS0_9allocatorIS8_EEE9SelectKeyESF_SH_E14squash_deletedEv
wmj:__ZN6il2cpp2vm13LivenessState5ResetEv
THi:_Transform_get_parent_m147407266
vnc:__ZN9JSONWrite8TransferI11KeyframeTplIfEEEvRT_PKc17TransferMetaFlags
cVh:__Z71RuntimeInvoker_Double_t4078015681_Double_t4078015681_Double_t4078015681PK10MethodInfoPvPS2_
qth:_Text_get_cachedTextGenerator_m224335893
Oee:_Array_swap_TisVector4_t2243707581_m3504221493_gshared
RVg:_GameObject_GetComponent_m306258075
XFh:_InternalEnumerator_1_Dispose_m4229866913_AdjustorThunk
Uog:_ObjRef_get_ChannelInfo_m53840305
boj:__ZN6il2cpp2vm3RCW23GetOrCreateFromIUnknownEP14Il2CppIUnknownP11Il2CppClass
slj:__ZN6il2cpp2vm9Exception27RaiseNullReferenceExceptionEv
qHa:__ZN24BuiltinShaderParamValuesC2Ev
moc:__ZL41CreateJSONTransferFunctionScriptingTraitsv
_nd:_Convert_ToInt32_m3683486440
MZe:_FileStream_get_CanWrite_m775322953
_Zf:__ZL72PKCS12_t1362584795_CustomAttributesCacheGenerator_U3CU3Ef__switchU24map7P21CustomAttributesCache
wOg:_TimerCallback_BeginInvoke_m2938818726
AMa:__Z23GetLateBehaviourManagerv
TMd:_ExecuteEvents_Execute_m2863348178
T3:__ZN10MemoryPool10DeallocateEPv
$Re:_NumberFormatInfo__ctor_m2752806684
FQd:_CanvasUpdateRegistry_get_instance_m862315367
tCe:_Collection_1_System_Collections_IList_get_IsReadOnly_m1820916678_gshared
fwi:_PatternCompiler_EmitFastRepeat_m1175707353
dge:_Array_InternalArray__get_Item_TisKeyValuePair_2_t3716250094_m3120861630_gshared
qLc:_cff_driver_class_pic_free
XUf:__ZL62ApplicationException_t474868623_CustomAttributesCacheGeneratorP21CustomAttributesCache
WDj:__ZNSt3__26__treeINS_12__value_typeIPvxEENS_19__map_value_compareIS2_S3_NS_4lessIS2_EELb1EEENS_9allocatorIS3_EEE16__insert_node_atEPNS_16__tree_node_baseIS2_EERSD_SD_
iy:__ZN17AnimationPlayable22SetStateMachineMessageEN7mecanim12statemachine19StateMachineMessageE
ntc:__ZNK9rapidjson12GenericValueINS_4UTF8IcEE13JSONAllocatorE6AcceptINS_6WriterI16TempBufferWriterS2_S2_S3_EEEEbRT_
PMj:dynCall_vif
Jfh:_Dictionary_2__ctor_m2849528578_gshared
QMj:dynCall_vid
Z9f:__ZL75Event_t3028476042_CustomAttributesCacheGenerator_Event_get_type_m2426033198P21CustomAttributesCache
jqe:_List_1_System_Collections_IList_get_Item_m3989815218_gshared
RMj:dynCall_vii
sxd:_DateTime__ctor_m3604679583
nOb:__Z18Transfer_BlittableI18StreamedBinaryReadILb0EELb0EdEvRK29SerializationCommandArgumentsR31RuntimeSerializationCommandInfo
wvi:_Enumerator_System_Collections_IEnumerator_MoveNext_m3313126804
Ati:_AsyncResult_set_CallMessage_m4011807282
YTa:__ZNK17InstancedPropInfo14IsInstanceableERK19ShaderPropertySheet
Wef:_PKCS12_Finalize_m107130293
oab:__ZN5Unity9Component16CheckConsistencyEv
CQd:_LayoutRebuilder_ValidController_m2595049322
M6f:__ZL156AnimatorControllerPlayable_t4078305555_CustomAttributesCacheGenerator_AnimatorControllerPlayable_INTERNAL_CALL_GetAnimatorTransitionInfoInternal_m2259454958P21CustomAttributesCache
IBa:__ZN7ApiGLES11CheckShaderERjb
pjg:__ZL138U3CMouseDragOutsideRectU3Ec__Iterator1_t2599668326_CustomAttributesCacheGenerator_U3CMouseDragOutsideRectU3Ec__Iterator1__ctor_m1439320044P21CustomAttributesCache
B7g:_RectTransform_set_anchoredPosition_m2077229449
lKb:__ZL26Transfer_SimpleNativeClassI19StreamedBinaryWriteILb0EE10RectOffsetLb1EEvRK29SerializationCommandArgumentsR31RuntimeSerializationCommandInfo
noh:_RaycastAllCallback__ctor_m3281594834
cge:_Array_InternalArray__get_Item_TisKeyValuePair_2_t1174980068_m964958642_gshared
Psd:_DictionaryEntry_get_Key_m3623293571_AdjustorThunk
kcj:__ZN15dense_hashtableINSt3__24pairIK10KeyWrapperIPK10Il2CppTypeEjEES6_N6il2cpp8metadata14Il2CppTypeHashEN14dense_hash_mapIS6_jSB_NS6_14EqualsComparerINSA_26Il2CppTypeEqualityComparerEEENS0_9allocatorIS8_EEE9SelectKeyESF_SH_E3endEv
EYa:__Z28GetNonInterpolatedLightProbeRK17LightProbeContextjR20SphericalHarmonicsL2
F8d:_Array_InternalArray__ICollection_Add_TisDateTime_t693205669_m3559987213_gshared
ava:__ZN13GfxDeviceGLES17SetGpuProgramNameEP10GpuProgramPKc
g4i:__ZN6il2cpp2vm13MetadataCache28GetMethodDefinitionFromIndexEi
xYf:__ZL77U3CPrivateImplementationDetailsU3E_t1486305137_CustomAttributesCacheGeneratorP21CustomAttributesCache
bvb:__Z14RecalculateUVs14StrideIteratorI8Vector2fES1_S_I8Vector3fER9Texture2DRKS0_RK5RectTIfERK8Vector4fSB_S7_21SpritePackingRotation
ifa:__ZN14SafeBinaryRead19TransferSTLStyleMapINSt3__23mapI39DeprecatedFastPropertyNameSerialization10ColorRGBAfNS1_4lessIS3_EENS1_9allocatorINS1_4pairIKS3_S4_EEEEEEEEvRT_17TransferMetaFlags
Izb:__ZN14CachingManager13WriteInfoFileERKN4core12basic_stringIcNS0_20StringStorageDefaultIcEEEERKNSt3__26vectorIS4_NS7_9allocatorIS4_EEEE
lud:_Slot_t2022531261_marshal_pinvoke
bdi:_Behaviour_get_enabled_m4079055610
GCa:__ZN7ApiGLES18CreateRenderbufferEiN2gl9TexFormatEii
ZIi:_Vector3_Lerp_m2935648359
lKi:_NetFxCoreExtensions_GetMethodInfo_m2715372889
gh:_atexit
Ord:_BitArrayEnumerator_Reset_m3218489242
_5g:_RaycastHit_t87180320_marshal_pinvoke_cleanup
dnd:_Byte_System_IConvertible_ToUInt16_m2275325191
r6d:__ZN21InterfaceFuncInvoker1Ii23RaycastResult_t21186376E6InvokeEjP11Il2CppClassP12Il2CppObjectS0_
Wzg:_ConstructorBuilder_get_CallingConvention_m443074051
nfj:__ZN6il2cpp2vmL31GetObjectForMissingDefaultValueEj
ZGf:__ZL80Decimal_t724701077_CustomAttributesCacheGenerator_Decimal_op_Implicit_m233687092P21CustomAttributesCache
nbj:__ZN15dense_hashtableINSt3__24pairIK10KeyWrapperINS1_IPK14Il2CppAssemblyP11Il2CppClassEEEjEES9_17ReflectionMapHashIS8_EN14dense_hash_mapIS9_jSD_NS9_14EqualsComparerINS0_8equal_toIS8_EEEENS0_9allocatorISB_EEE9SelectKeyESI_SK_E16reset_thresholdsEv
f8a:__ZN16MemoryFileSystem19InitializeFileEntryER13FileEntryData
nEe:_Collection_1__ctor_m824713192_gshared
TRb:__ZN9ShaderLab14SerializedPassC2ERKS0_
Ayh:_InternalEnumerator_1_System_Collections_IEnumerator_get_Current_m3088751576_AdjustorThunk
Hta:__ZNK9GfxDevice28GetActiveRenderSurfaceHeightEv
cDg:_GenericTypeParameterBuilder_GetCustomAttributes_m3266536625
l:STACKTOP
vVd:_U3CDelayedDestroyDropdownListU3Ec__Iterator0_System_Collections_IEnumerator_get_Current_m622919791
wM:__ZNK7Texture14IsDepthTextureEv
oTc:_cff_get_name_index
B$f:__ZL81Camera_t189460977_CustomAttributesCacheGenerator_Camera_get_cullingMask_m73686965P21CustomAttributesCache
P2e:_Math_Cos_m43596019
onb:__ZN21EnlightenSceneMapping16BuildRemapTablesEv
$Cb:__ZNSt3__26vectorI4PPtrI10MonoScriptE13stl_allocatorIS3_L18MemLabelIdentifier76ELi16EEE8__appendEj
k4b:__ZN17TransformInternal27UpdateDeepChildCountUpwardsER18TransformHierarchyii
_Eh:_InternalEnumerator_1_System_Collections_IEnumerator_get_Current_m1533037706_AdjustorThunk
qKj:__ZNK10__cxxabiv117__class_type_info16search_above_dstEPNS_19__dynamic_cast_infoEPKvS4_ib
yKf:__ZL59ArrayListWrapper_t3918858854_CustomAttributesCacheGeneratorP21CustomAttributesCache
h6h:__Z72RuntimeInvoker_Void_t1841601450_CustomAttributeTypedArgument_t1498197914PK10MethodInfoPvPS2_
A:tempBigIntD
kdd:_Single_Equals_m3359827399_AdjustorThunk
oMd:_EventTrigger_OnPointerClick_m413999043
z:tempBigIntI
SMi:_CachedInvokableCall_1__ctor_m127496184_gshared
Iif:_PrimalityTests_RabinMillerTest_m2029846965
y:tempBigIntR
x:tempBigIntS
fYe:_BinaryReader_ReadInt32_m1811936587
